
STM32L476JG-SensorTile_ALLMEMS1.elf:     file format elf32-littlearm

Sections:
Idx Name          Size      VMA       LMA       File off  Algn
  0 .isr_vector   00000188  08004000  08004000  00004000  2**0
                  CONTENTS, ALLOC, LOAD, READONLY, DATA
  1 .text         00009d88  08004190  08004190  00004190  2**4
                  CONTENTS, ALLOC, LOAD, READONLY, CODE
  2 .rodata       00000578  0800df18  0800df18  0000df18  2**3
                  CONTENTS, ALLOC, LOAD, READONLY, DATA
  3 .init_array   00000004  0800e490  0800e490  0000e490  2**2
                  CONTENTS, ALLOC, LOAD, DATA
  4 .fini_array   00000004  0800e494  0800e494  0000e494  2**2
                  CONTENTS, ALLOC, LOAD, DATA
  5 .data         000001e8  20000000  0800e498  00010000  2**2
                  CONTENTS, ALLOC, LOAD, DATA
  6 .bss          0000288c  200001e8  0800e680  000101e8  2**2
                  ALLOC
  7 .noinit       00000000  10000000  10000000  00000000  2**0
                  ALLOC
  8 .bss2         00000000  200001e8  200001e8  000101e8  2**0
                  CONTENTS
  9 ._user_heap_stack 00003000  20002a74  20002a74  00012a74  2**0
                  ALLOC
 10 .ARM.attributes 0000002e  00000000  00000000  000101e8  2**0
                  CONTENTS, READONLY
 11 .comment      00000043  00000000  00000000  00010216  2**0
                  CONTENTS, READONLY
 12 .debug_line   000304e2  00000000  00000000  00010259  2**0
                  CONTENTS, READONLY, DEBUGGING, OCTETS
 13 .debug_line_str 000000bb  00000000  00000000  0004073b  2**0
                  CONTENTS, READONLY, DEBUGGING, OCTETS
 14 .debug_info   0002a9b8  00000000  00000000  000407f6  2**0
                  CONTENTS, READONLY, DEBUGGING, OCTETS
 15 .debug_abbrev 00005839  00000000  00000000  0006b1ae  2**0
                  CONTENTS, READONLY, DEBUGGING, OCTETS
 16 .debug_aranges 00001cd8  00000000  00000000  000709e8  2**3
                  CONTENTS, READONLY, DEBUGGING, OCTETS
 17 .debug_str    00120bf6  00000000  00000000  000726c0  2**0
                  CONTENTS, READONLY, DEBUGGING, OCTETS
 18 .debug_rnglists 0000160f  00000000  00000000  001932b6  2**0
                  CONTENTS, READONLY, DEBUGGING, OCTETS
 19 .debug_loclists 00011c6e  00000000  00000000  001948c5  2**0
                  CONTENTS, READONLY, DEBUGGING, OCTETS
 20 .debug_macro  00031e78  00000000  00000000  001a6533  2**0
                  CONTENTS, READONLY, DEBUGGING, OCTETS
 21 .debug_frame  00005bf4  00000000  00000000  001d83ac  2**2
                  CONTENTS, READONLY, DEBUGGING, OCTETS

Disassembly of section .text:

08004190 <__do_global_dtors_aux>:
 8004190:	b510      	push	{r4, lr}
 8004192:	4c05      	ldr	r4, [pc, #20]	; (80041a8 <__do_global_dtors_aux+0x18>)
 8004194:	7823      	ldrb	r3, [r4, #0]
 8004196:	b933      	cbnz	r3, 80041a6 <__do_global_dtors_aux+0x16>
 8004198:	4b04      	ldr	r3, [pc, #16]	; (80041ac <__do_global_dtors_aux+0x1c>)
 800419a:	b113      	cbz	r3, 80041a2 <__do_global_dtors_aux+0x12>
 800419c:	4804      	ldr	r0, [pc, #16]	; (80041b0 <__do_global_dtors_aux+0x20>)
 800419e:	f3af 8000 	nop.w
 80041a2:	2301      	movs	r3, #1
 80041a4:	7023      	strb	r3, [r4, #0]
 80041a6:	bd10      	pop	{r4, pc}
 80041a8:	200001e8 	.word	0x200001e8
 80041ac:	00000000 	.word	0x00000000
 80041b0:	0800df00 	.word	0x0800df00

080041b4 <frame_dummy>:
 80041b4:	b508      	push	{r3, lr}
 80041b6:	4b03      	ldr	r3, [pc, #12]	; (80041c4 <frame_dummy+0x10>)
 80041b8:	b11b      	cbz	r3, 80041c2 <frame_dummy+0xe>
 80041ba:	4903      	ldr	r1, [pc, #12]	; (80041c8 <frame_dummy+0x14>)
 80041bc:	4803      	ldr	r0, [pc, #12]	; (80041cc <frame_dummy+0x18>)
 80041be:	f3af 8000 	nop.w
 80041c2:	bd08      	pop	{r3, pc}
 80041c4:	00000000 	.word	0x00000000
 80041c8:	200001ec 	.word	0x200001ec
 80041cc:	0800df00 	.word	0x0800df00

080041d0 <memchr>:
 80041d0:	f001 01ff 	and.w	r1, r1, #255	; 0xff
 80041d4:	2a10      	cmp	r2, #16
 80041d6:	db2b      	blt.n	8004230 <memchr+0x60>
 80041d8:	f010 0f07 	tst.w	r0, #7
 80041dc:	d008      	beq.n	80041f0 <memchr+0x20>
 80041de:	f810 3b01 	ldrb.w	r3, [r0], #1
 80041e2:	3a01      	subs	r2, #1
 80041e4:	428b      	cmp	r3, r1
 80041e6:	d02d      	beq.n	8004244 <memchr+0x74>
 80041e8:	f010 0f07 	tst.w	r0, #7
 80041ec:	b342      	cbz	r2, 8004240 <memchr+0x70>
 80041ee:	d1f6      	bne.n	80041de <memchr+0xe>
 80041f0:	b4f0      	push	{r4, r5, r6, r7}
 80041f2:	ea41 2101 	orr.w	r1, r1, r1, lsl #8
 80041f6:	ea41 4101 	orr.w	r1, r1, r1, lsl #16
 80041fa:	f022 0407 	bic.w	r4, r2, #7
 80041fe:	f07f 0700 	mvns.w	r7, #0
 8004202:	2300      	movs	r3, #0
 8004204:	e8f0 5602 	ldrd	r5, r6, [r0], #8
 8004208:	3c08      	subs	r4, #8
 800420a:	ea85 0501 	eor.w	r5, r5, r1
 800420e:	ea86 0601 	eor.w	r6, r6, r1
 8004212:	fa85 f547 	uadd8	r5, r5, r7
 8004216:	faa3 f587 	sel	r5, r3, r7
 800421a:	fa86 f647 	uadd8	r6, r6, r7
 800421e:	faa5 f687 	sel	r6, r5, r7
 8004222:	b98e      	cbnz	r6, 8004248 <memchr+0x78>
 8004224:	d1ee      	bne.n	8004204 <memchr+0x34>
 8004226:	bcf0      	pop	{r4, r5, r6, r7}
 8004228:	f001 01ff 	and.w	r1, r1, #255	; 0xff
 800422c:	f002 0207 	and.w	r2, r2, #7
 8004230:	b132      	cbz	r2, 8004240 <memchr+0x70>
 8004232:	f810 3b01 	ldrb.w	r3, [r0], #1
 8004236:	3a01      	subs	r2, #1
 8004238:	ea83 0301 	eor.w	r3, r3, r1
 800423c:	b113      	cbz	r3, 8004244 <memchr+0x74>
 800423e:	d1f8      	bne.n	8004232 <memchr+0x62>
 8004240:	2000      	movs	r0, #0
 8004242:	4770      	bx	lr
 8004244:	3801      	subs	r0, #1
 8004246:	4770      	bx	lr
 8004248:	2d00      	cmp	r5, #0
 800424a:	bf06      	itte	eq
 800424c:	4635      	moveq	r5, r6
 800424e:	3803      	subeq	r0, #3
 8004250:	3807      	subne	r0, #7
 8004252:	f015 0f01 	tst.w	r5, #1
 8004256:	d107      	bne.n	8004268 <memchr+0x98>
 8004258:	3001      	adds	r0, #1
 800425a:	f415 7f80 	tst.w	r5, #256	; 0x100
 800425e:	bf02      	ittt	eq
 8004260:	3001      	addeq	r0, #1
 8004262:	f415 3fc0 	tsteq.w	r5, #98304	; 0x18000
 8004266:	3001      	addeq	r0, #1
 8004268:	bcf0      	pop	{r4, r5, r6, r7}
 800426a:	3801      	subs	r0, #1
 800426c:	4770      	bx	lr
 800426e:	bf00      	nop

08004270 <__aeabi_drsub>:
 8004270:	f081 4100 	eor.w	r1, r1, #2147483648	; 0x80000000
 8004274:	e002      	b.n	800427c <__adddf3>
 8004276:	bf00      	nop

08004278 <__aeabi_dsub>:
 8004278:	f083 4300 	eor.w	r3, r3, #2147483648	; 0x80000000

0800427c <__adddf3>:
 800427c:	b530      	push	{r4, r5, lr}
 800427e:	ea4f 0441 	mov.w	r4, r1, lsl #1
 8004282:	ea4f 0543 	mov.w	r5, r3, lsl #1
 8004286:	ea94 0f05 	teq	r4, r5
 800428a:	bf08      	it	eq
 800428c:	ea90 0f02 	teqeq	r0, r2
 8004290:	bf1f      	itttt	ne
 8004292:	ea54 0c00 	orrsne.w	ip, r4, r0
 8004296:	ea55 0c02 	orrsne.w	ip, r5, r2
 800429a:	ea7f 5c64 	mvnsne.w	ip, r4, asr #21
 800429e:	ea7f 5c65 	mvnsne.w	ip, r5, asr #21
 80042a2:	f000 80e2 	beq.w	800446a <__adddf3+0x1ee>
 80042a6:	ea4f 5454 	mov.w	r4, r4, lsr #21
 80042aa:	ebd4 5555 	rsbs	r5, r4, r5, lsr #21
 80042ae:	bfb8      	it	lt
 80042b0:	426d      	neglt	r5, r5
 80042b2:	dd0c      	ble.n	80042ce <__adddf3+0x52>
 80042b4:	442c      	add	r4, r5
 80042b6:	ea80 0202 	eor.w	r2, r0, r2
 80042ba:	ea81 0303 	eor.w	r3, r1, r3
 80042be:	ea82 0000 	eor.w	r0, r2, r0
 80042c2:	ea83 0101 	eor.w	r1, r3, r1
 80042c6:	ea80 0202 	eor.w	r2, r0, r2
 80042ca:	ea81 0303 	eor.w	r3, r1, r3
 80042ce:	2d36      	cmp	r5, #54	; 0x36
 80042d0:	bf88      	it	hi
 80042d2:	bd30      	pophi	{r4, r5, pc}
 80042d4:	f011 4f00 	tst.w	r1, #2147483648	; 0x80000000
 80042d8:	ea4f 3101 	mov.w	r1, r1, lsl #12
 80042dc:	f44f 1c80 	mov.w	ip, #1048576	; 0x100000
 80042e0:	ea4c 3111 	orr.w	r1, ip, r1, lsr #12
 80042e4:	d002      	beq.n	80042ec <__adddf3+0x70>
 80042e6:	4240      	negs	r0, r0
 80042e8:	eb61 0141 	sbc.w	r1, r1, r1, lsl #1
 80042ec:	f013 4f00 	tst.w	r3, #2147483648	; 0x80000000
 80042f0:	ea4f 3303 	mov.w	r3, r3, lsl #12
 80042f4:	ea4c 3313 	orr.w	r3, ip, r3, lsr #12
 80042f8:	d002      	beq.n	8004300 <__adddf3+0x84>
 80042fa:	4252      	negs	r2, r2
 80042fc:	eb63 0343 	sbc.w	r3, r3, r3, lsl #1
 8004300:	ea94 0f05 	teq	r4, r5
 8004304:	f000 80a7 	beq.w	8004456 <__adddf3+0x1da>
 8004308:	f1a4 0401 	sub.w	r4, r4, #1
 800430c:	f1d5 0e20 	rsbs	lr, r5, #32
 8004310:	db0d      	blt.n	800432e <__adddf3+0xb2>
 8004312:	fa02 fc0e 	lsl.w	ip, r2, lr
 8004316:	fa22 f205 	lsr.w	r2, r2, r5
 800431a:	1880      	adds	r0, r0, r2
 800431c:	f141 0100 	adc.w	r1, r1, #0
 8004320:	fa03 f20e 	lsl.w	r2, r3, lr
 8004324:	1880      	adds	r0, r0, r2
 8004326:	fa43 f305 	asr.w	r3, r3, r5
 800432a:	4159      	adcs	r1, r3
 800432c:	e00e      	b.n	800434c <__adddf3+0xd0>
 800432e:	f1a5 0520 	sub.w	r5, r5, #32
 8004332:	f10e 0e20 	add.w	lr, lr, #32
 8004336:	2a01      	cmp	r2, #1
 8004338:	fa03 fc0e 	lsl.w	ip, r3, lr
 800433c:	bf28      	it	cs
 800433e:	f04c 0c02 	orrcs.w	ip, ip, #2
 8004342:	fa43 f305 	asr.w	r3, r3, r5
 8004346:	18c0      	adds	r0, r0, r3
 8004348:	eb51 71e3 	adcs.w	r1, r1, r3, asr #31
 800434c:	f001 4500 	and.w	r5, r1, #2147483648	; 0x80000000
 8004350:	d507      	bpl.n	8004362 <__adddf3+0xe6>
 8004352:	f04f 0e00 	mov.w	lr, #0
 8004356:	f1dc 0c00 	rsbs	ip, ip, #0
 800435a:	eb7e 0000 	sbcs.w	r0, lr, r0
 800435e:	eb6e 0101 	sbc.w	r1, lr, r1
 8004362:	f5b1 1f80 	cmp.w	r1, #1048576	; 0x100000
 8004366:	d31b      	bcc.n	80043a0 <__adddf3+0x124>
 8004368:	f5b1 1f00 	cmp.w	r1, #2097152	; 0x200000
 800436c:	d30c      	bcc.n	8004388 <__adddf3+0x10c>
 800436e:	0849      	lsrs	r1, r1, #1
 8004370:	ea5f 0030 	movs.w	r0, r0, rrx
 8004374:	ea4f 0c3c 	mov.w	ip, ip, rrx
 8004378:	f104 0401 	add.w	r4, r4, #1
 800437c:	ea4f 5244 	mov.w	r2, r4, lsl #21
 8004380:	f512 0f80 	cmn.w	r2, #4194304	; 0x400000
 8004384:	f080 809a 	bcs.w	80044bc <__adddf3+0x240>
 8004388:	f1bc 4f00 	cmp.w	ip, #2147483648	; 0x80000000
 800438c:	bf08      	it	eq
 800438e:	ea5f 0c50 	movseq.w	ip, r0, lsr #1
 8004392:	f150 0000 	adcs.w	r0, r0, #0
 8004396:	eb41 5104 	adc.w	r1, r1, r4, lsl #20
 800439a:	ea41 0105 	orr.w	r1, r1, r5
 800439e:	bd30      	pop	{r4, r5, pc}
 80043a0:	ea5f 0c4c 	movs.w	ip, ip, lsl #1
 80043a4:	4140      	adcs	r0, r0
 80043a6:	eb41 0101 	adc.w	r1, r1, r1
 80043aa:	3c01      	subs	r4, #1
 80043ac:	bf28      	it	cs
 80043ae:	f5b1 1f80 	cmpcs.w	r1, #1048576	; 0x100000
 80043b2:	d2e9      	bcs.n	8004388 <__adddf3+0x10c>
 80043b4:	f091 0f00 	teq	r1, #0
 80043b8:	bf04      	itt	eq
 80043ba:	4601      	moveq	r1, r0
 80043bc:	2000      	moveq	r0, #0
 80043be:	fab1 f381 	clz	r3, r1
 80043c2:	bf08      	it	eq
 80043c4:	3320      	addeq	r3, #32
 80043c6:	f1a3 030b 	sub.w	r3, r3, #11
 80043ca:	f1b3 0220 	subs.w	r2, r3, #32
 80043ce:	da0c      	bge.n	80043ea <__adddf3+0x16e>
 80043d0:	320c      	adds	r2, #12
 80043d2:	dd08      	ble.n	80043e6 <__adddf3+0x16a>
 80043d4:	f102 0c14 	add.w	ip, r2, #20
 80043d8:	f1c2 020c 	rsb	r2, r2, #12
 80043dc:	fa01 f00c 	lsl.w	r0, r1, ip
 80043e0:	fa21 f102 	lsr.w	r1, r1, r2
 80043e4:	e00c      	b.n	8004400 <__adddf3+0x184>
 80043e6:	f102 0214 	add.w	r2, r2, #20
 80043ea:	bfd8      	it	le
 80043ec:	f1c2 0c20 	rsble	ip, r2, #32
 80043f0:	fa01 f102 	lsl.w	r1, r1, r2
 80043f4:	fa20 fc0c 	lsr.w	ip, r0, ip
 80043f8:	bfdc      	itt	le
 80043fa:	ea41 010c 	orrle.w	r1, r1, ip
 80043fe:	4090      	lslle	r0, r2
 8004400:	1ae4      	subs	r4, r4, r3
 8004402:	bfa2      	ittt	ge
 8004404:	eb01 5104 	addge.w	r1, r1, r4, lsl #20
 8004408:	4329      	orrge	r1, r5
 800440a:	bd30      	popge	{r4, r5, pc}
 800440c:	ea6f 0404 	mvn.w	r4, r4
 8004410:	3c1f      	subs	r4, #31
 8004412:	da1c      	bge.n	800444e <__adddf3+0x1d2>
 8004414:	340c      	adds	r4, #12
 8004416:	dc0e      	bgt.n	8004436 <__adddf3+0x1ba>
 8004418:	f104 0414 	add.w	r4, r4, #20
 800441c:	f1c4 0220 	rsb	r2, r4, #32
 8004420:	fa20 f004 	lsr.w	r0, r0, r4
 8004424:	fa01 f302 	lsl.w	r3, r1, r2
 8004428:	ea40 0003 	orr.w	r0, r0, r3
 800442c:	fa21 f304 	lsr.w	r3, r1, r4
 8004430:	ea45 0103 	orr.w	r1, r5, r3
 8004434:	bd30      	pop	{r4, r5, pc}
 8004436:	f1c4 040c 	rsb	r4, r4, #12
 800443a:	f1c4 0220 	rsb	r2, r4, #32
 800443e:	fa20 f002 	lsr.w	r0, r0, r2
 8004442:	fa01 f304 	lsl.w	r3, r1, r4
 8004446:	ea40 0003 	orr.w	r0, r0, r3
 800444a:	4629      	mov	r1, r5
 800444c:	bd30      	pop	{r4, r5, pc}
 800444e:	fa21 f004 	lsr.w	r0, r1, r4
 8004452:	4629      	mov	r1, r5
 8004454:	bd30      	pop	{r4, r5, pc}
 8004456:	f094 0f00 	teq	r4, #0
 800445a:	f483 1380 	eor.w	r3, r3, #1048576	; 0x100000
 800445e:	bf06      	itte	eq
 8004460:	f481 1180 	eoreq.w	r1, r1, #1048576	; 0x100000
 8004464:	3401      	addeq	r4, #1
 8004466:	3d01      	subne	r5, #1
 8004468:	e74e      	b.n	8004308 <__adddf3+0x8c>
 800446a:	ea7f 5c64 	mvns.w	ip, r4, asr #21
 800446e:	bf18      	it	ne
 8004470:	ea7f 5c65 	mvnsne.w	ip, r5, asr #21
 8004474:	d029      	beq.n	80044ca <__adddf3+0x24e>
 8004476:	ea94 0f05 	teq	r4, r5
 800447a:	bf08      	it	eq
 800447c:	ea90 0f02 	teqeq	r0, r2
 8004480:	d005      	beq.n	800448e <__adddf3+0x212>
 8004482:	ea54 0c00 	orrs.w	ip, r4, r0
 8004486:	bf04      	itt	eq
 8004488:	4619      	moveq	r1, r3
 800448a:	4610      	moveq	r0, r2
 800448c:	bd30      	pop	{r4, r5, pc}
 800448e:	ea91 0f03 	teq	r1, r3
 8004492:	bf1e      	ittt	ne
 8004494:	2100      	movne	r1, #0
 8004496:	2000      	movne	r0, #0
 8004498:	bd30      	popne	{r4, r5, pc}
 800449a:	ea5f 5c54 	movs.w	ip, r4, lsr #21
 800449e:	d105      	bne.n	80044ac <__adddf3+0x230>
 80044a0:	0040      	lsls	r0, r0, #1
 80044a2:	4149      	adcs	r1, r1
 80044a4:	bf28      	it	cs
 80044a6:	f041 4100 	orrcs.w	r1, r1, #2147483648	; 0x80000000
 80044aa:	bd30      	pop	{r4, r5, pc}
 80044ac:	f514 0480 	adds.w	r4, r4, #4194304	; 0x400000
 80044b0:	bf3c      	itt	cc
 80044b2:	f501 1180 	addcc.w	r1, r1, #1048576	; 0x100000
 80044b6:	bd30      	popcc	{r4, r5, pc}
 80044b8:	f001 4500 	and.w	r5, r1, #2147483648	; 0x80000000
 80044bc:	f045 41fe 	orr.w	r1, r5, #2130706432	; 0x7f000000
 80044c0:	f441 0170 	orr.w	r1, r1, #15728640	; 0xf00000
 80044c4:	f04f 0000 	mov.w	r0, #0
 80044c8:	bd30      	pop	{r4, r5, pc}
 80044ca:	ea7f 5c64 	mvns.w	ip, r4, asr #21
 80044ce:	bf1a      	itte	ne
 80044d0:	4619      	movne	r1, r3
 80044d2:	4610      	movne	r0, r2
 80044d4:	ea7f 5c65 	mvnseq.w	ip, r5, asr #21
 80044d8:	bf1c      	itt	ne
 80044da:	460b      	movne	r3, r1
 80044dc:	4602      	movne	r2, r0
 80044de:	ea50 3401 	orrs.w	r4, r0, r1, lsl #12
 80044e2:	bf06      	itte	eq
 80044e4:	ea52 3503 	orrseq.w	r5, r2, r3, lsl #12
 80044e8:	ea91 0f03 	teqeq	r1, r3
 80044ec:	f441 2100 	orrne.w	r1, r1, #524288	; 0x80000
 80044f0:	bd30      	pop	{r4, r5, pc}
 80044f2:	bf00      	nop

080044f4 <__aeabi_ui2d>:
 80044f4:	f090 0f00 	teq	r0, #0
 80044f8:	bf04      	itt	eq
 80044fa:	2100      	moveq	r1, #0
 80044fc:	4770      	bxeq	lr
 80044fe:	b530      	push	{r4, r5, lr}
 8004500:	f44f 6480 	mov.w	r4, #1024	; 0x400
 8004504:	f104 0432 	add.w	r4, r4, #50	; 0x32
 8004508:	f04f 0500 	mov.w	r5, #0
 800450c:	f04f 0100 	mov.w	r1, #0
 8004510:	e750      	b.n	80043b4 <__adddf3+0x138>
 8004512:	bf00      	nop

08004514 <__aeabi_i2d>:
 8004514:	f090 0f00 	teq	r0, #0
 8004518:	bf04      	itt	eq
 800451a:	2100      	moveq	r1, #0
 800451c:	4770      	bxeq	lr
 800451e:	b530      	push	{r4, r5, lr}
 8004520:	f44f 6480 	mov.w	r4, #1024	; 0x400
 8004524:	f104 0432 	add.w	r4, r4, #50	; 0x32
 8004528:	f010 4500 	ands.w	r5, r0, #2147483648	; 0x80000000
 800452c:	bf48      	it	mi
 800452e:	4240      	negmi	r0, r0
 8004530:	f04f 0100 	mov.w	r1, #0
 8004534:	e73e      	b.n	80043b4 <__adddf3+0x138>
 8004536:	bf00      	nop

08004538 <__aeabi_f2d>:
 8004538:	0042      	lsls	r2, r0, #1
 800453a:	ea4f 01e2 	mov.w	r1, r2, asr #3
 800453e:	ea4f 0131 	mov.w	r1, r1, rrx
 8004542:	ea4f 7002 	mov.w	r0, r2, lsl #28
 8004546:	bf1f      	itttt	ne
 8004548:	f012 437f 	andsne.w	r3, r2, #4278190080	; 0xff000000
 800454c:	f093 4f7f 	teqne	r3, #4278190080	; 0xff000000
 8004550:	f081 5160 	eorne.w	r1, r1, #939524096	; 0x38000000
 8004554:	4770      	bxne	lr
 8004556:	f032 427f 	bics.w	r2, r2, #4278190080	; 0xff000000
 800455a:	bf08      	it	eq
 800455c:	4770      	bxeq	lr
 800455e:	f093 4f7f 	teq	r3, #4278190080	; 0xff000000
 8004562:	bf04      	itt	eq
 8004564:	f441 2100 	orreq.w	r1, r1, #524288	; 0x80000
 8004568:	4770      	bxeq	lr
 800456a:	b530      	push	{r4, r5, lr}
 800456c:	f44f 7460 	mov.w	r4, #896	; 0x380
 8004570:	f001 4500 	and.w	r5, r1, #2147483648	; 0x80000000
 8004574:	f021 4100 	bic.w	r1, r1, #2147483648	; 0x80000000
 8004578:	e71c      	b.n	80043b4 <__adddf3+0x138>
 800457a:	bf00      	nop

0800457c <__aeabi_ul2d>:
 800457c:	ea50 0201 	orrs.w	r2, r0, r1
 8004580:	bf08      	it	eq
 8004582:	4770      	bxeq	lr
 8004584:	b530      	push	{r4, r5, lr}
 8004586:	f04f 0500 	mov.w	r5, #0
 800458a:	e00a      	b.n	80045a2 <__aeabi_l2d+0x16>

0800458c <__aeabi_l2d>:
 800458c:	ea50 0201 	orrs.w	r2, r0, r1
 8004590:	bf08      	it	eq
 8004592:	4770      	bxeq	lr
 8004594:	b530      	push	{r4, r5, lr}
 8004596:	f011 4500 	ands.w	r5, r1, #2147483648	; 0x80000000
 800459a:	d502      	bpl.n	80045a2 <__aeabi_l2d+0x16>
 800459c:	4240      	negs	r0, r0
 800459e:	eb61 0141 	sbc.w	r1, r1, r1, lsl #1
 80045a2:	f44f 6480 	mov.w	r4, #1024	; 0x400
 80045a6:	f104 0432 	add.w	r4, r4, #50	; 0x32
 80045aa:	ea5f 5c91 	movs.w	ip, r1, lsr #22
 80045ae:	f43f aed8 	beq.w	8004362 <__adddf3+0xe6>
 80045b2:	f04f 0203 	mov.w	r2, #3
 80045b6:	ea5f 0cdc 	movs.w	ip, ip, lsr #3
 80045ba:	bf18      	it	ne
 80045bc:	3203      	addne	r2, #3
 80045be:	ea5f 0cdc 	movs.w	ip, ip, lsr #3
 80045c2:	bf18      	it	ne
 80045c4:	3203      	addne	r2, #3
 80045c6:	eb02 02dc 	add.w	r2, r2, ip, lsr #3
 80045ca:	f1c2 0320 	rsb	r3, r2, #32
 80045ce:	fa00 fc03 	lsl.w	ip, r0, r3
 80045d2:	fa20 f002 	lsr.w	r0, r0, r2
 80045d6:	fa01 fe03 	lsl.w	lr, r1, r3
 80045da:	ea40 000e 	orr.w	r0, r0, lr
 80045de:	fa21 f102 	lsr.w	r1, r1, r2
 80045e2:	4414      	add	r4, r2
 80045e4:	e6bd      	b.n	8004362 <__adddf3+0xe6>
 80045e6:	bf00      	nop

080045e8 <__aeabi_dmul>:
 80045e8:	b570      	push	{r4, r5, r6, lr}
 80045ea:	f04f 0cff 	mov.w	ip, #255	; 0xff
 80045ee:	f44c 6ce0 	orr.w	ip, ip, #1792	; 0x700
 80045f2:	ea1c 5411 	ands.w	r4, ip, r1, lsr #20
 80045f6:	bf1d      	ittte	ne
 80045f8:	ea1c 5513 	andsne.w	r5, ip, r3, lsr #20
 80045fc:	ea94 0f0c 	teqne	r4, ip
 8004600:	ea95 0f0c 	teqne	r5, ip
 8004604:	f000 f8de 	bleq	80047c4 <__aeabi_dmul+0x1dc>
 8004608:	442c      	add	r4, r5
 800460a:	ea81 0603 	eor.w	r6, r1, r3
 800460e:	ea21 514c 	bic.w	r1, r1, ip, lsl #21
 8004612:	ea23 534c 	bic.w	r3, r3, ip, lsl #21
 8004616:	ea50 3501 	orrs.w	r5, r0, r1, lsl #12
 800461a:	bf18      	it	ne
 800461c:	ea52 3503 	orrsne.w	r5, r2, r3, lsl #12
 8004620:	f441 1180 	orr.w	r1, r1, #1048576	; 0x100000
 8004624:	f443 1380 	orr.w	r3, r3, #1048576	; 0x100000
 8004628:	d038      	beq.n	800469c <__aeabi_dmul+0xb4>
 800462a:	fba0 ce02 	umull	ip, lr, r0, r2
 800462e:	f04f 0500 	mov.w	r5, #0
 8004632:	fbe1 e502 	umlal	lr, r5, r1, r2
 8004636:	f006 4200 	and.w	r2, r6, #2147483648	; 0x80000000
 800463a:	fbe0 e503 	umlal	lr, r5, r0, r3
 800463e:	f04f 0600 	mov.w	r6, #0
 8004642:	fbe1 5603 	umlal	r5, r6, r1, r3
 8004646:	f09c 0f00 	teq	ip, #0
 800464a:	bf18      	it	ne
 800464c:	f04e 0e01 	orrne.w	lr, lr, #1
 8004650:	f1a4 04ff 	sub.w	r4, r4, #255	; 0xff
 8004654:	f5b6 7f00 	cmp.w	r6, #512	; 0x200
 8004658:	f564 7440 	sbc.w	r4, r4, #768	; 0x300
 800465c:	d204      	bcs.n	8004668 <__aeabi_dmul+0x80>
 800465e:	ea5f 0e4e 	movs.w	lr, lr, lsl #1
 8004662:	416d      	adcs	r5, r5
 8004664:	eb46 0606 	adc.w	r6, r6, r6
 8004668:	ea42 21c6 	orr.w	r1, r2, r6, lsl #11
 800466c:	ea41 5155 	orr.w	r1, r1, r5, lsr #21
 8004670:	ea4f 20c5 	mov.w	r0, r5, lsl #11
 8004674:	ea40 505e 	orr.w	r0, r0, lr, lsr #21
 8004678:	ea4f 2ece 	mov.w	lr, lr, lsl #11
 800467c:	f1b4 0cfd 	subs.w	ip, r4, #253	; 0xfd
 8004680:	bf88      	it	hi
 8004682:	f5bc 6fe0 	cmphi.w	ip, #1792	; 0x700
 8004686:	d81e      	bhi.n	80046c6 <__aeabi_dmul+0xde>
 8004688:	f1be 4f00 	cmp.w	lr, #2147483648	; 0x80000000
 800468c:	bf08      	it	eq
 800468e:	ea5f 0e50 	movseq.w	lr, r0, lsr #1
 8004692:	f150 0000 	adcs.w	r0, r0, #0
 8004696:	eb41 5104 	adc.w	r1, r1, r4, lsl #20
 800469a:	bd70      	pop	{r4, r5, r6, pc}
 800469c:	f006 4600 	and.w	r6, r6, #2147483648	; 0x80000000
 80046a0:	ea46 0101 	orr.w	r1, r6, r1
 80046a4:	ea40 0002 	orr.w	r0, r0, r2
 80046a8:	ea81 0103 	eor.w	r1, r1, r3
 80046ac:	ebb4 045c 	subs.w	r4, r4, ip, lsr #1
 80046b0:	bfc2      	ittt	gt
 80046b2:	ebd4 050c 	rsbsgt	r5, r4, ip
 80046b6:	ea41 5104 	orrgt.w	r1, r1, r4, lsl #20
 80046ba:	bd70      	popgt	{r4, r5, r6, pc}
 80046bc:	f441 1180 	orr.w	r1, r1, #1048576	; 0x100000
 80046c0:	f04f 0e00 	mov.w	lr, #0
 80046c4:	3c01      	subs	r4, #1
 80046c6:	f300 80ab 	bgt.w	8004820 <__aeabi_dmul+0x238>
 80046ca:	f114 0f36 	cmn.w	r4, #54	; 0x36
 80046ce:	bfde      	ittt	le
 80046d0:	2000      	movle	r0, #0
 80046d2:	f001 4100 	andle.w	r1, r1, #2147483648	; 0x80000000
 80046d6:	bd70      	pople	{r4, r5, r6, pc}
 80046d8:	f1c4 0400 	rsb	r4, r4, #0
 80046dc:	3c20      	subs	r4, #32
 80046de:	da35      	bge.n	800474c <__aeabi_dmul+0x164>
 80046e0:	340c      	adds	r4, #12
 80046e2:	dc1b      	bgt.n	800471c <__aeabi_dmul+0x134>
 80046e4:	f104 0414 	add.w	r4, r4, #20
 80046e8:	f1c4 0520 	rsb	r5, r4, #32
 80046ec:	fa00 f305 	lsl.w	r3, r0, r5
 80046f0:	fa20 f004 	lsr.w	r0, r0, r4
 80046f4:	fa01 f205 	lsl.w	r2, r1, r5
 80046f8:	ea40 0002 	orr.w	r0, r0, r2
 80046fc:	f001 4200 	and.w	r2, r1, #2147483648	; 0x80000000
 8004700:	f021 4100 	bic.w	r1, r1, #2147483648	; 0x80000000
 8004704:	eb10 70d3 	adds.w	r0, r0, r3, lsr #31
 8004708:	fa21 f604 	lsr.w	r6, r1, r4
 800470c:	eb42 0106 	adc.w	r1, r2, r6
 8004710:	ea5e 0e43 	orrs.w	lr, lr, r3, lsl #1
 8004714:	bf08      	it	eq
 8004716:	ea20 70d3 	biceq.w	r0, r0, r3, lsr #31
 800471a:	bd70      	pop	{r4, r5, r6, pc}
 800471c:	f1c4 040c 	rsb	r4, r4, #12
 8004720:	f1c4 0520 	rsb	r5, r4, #32
 8004724:	fa00 f304 	lsl.w	r3, r0, r4
 8004728:	fa20 f005 	lsr.w	r0, r0, r5
 800472c:	fa01 f204 	lsl.w	r2, r1, r4
 8004730:	ea40 0002 	orr.w	r0, r0, r2
 8004734:	f001 4100 	and.w	r1, r1, #2147483648	; 0x80000000
 8004738:	eb10 70d3 	adds.w	r0, r0, r3, lsr #31
 800473c:	f141 0100 	adc.w	r1, r1, #0
 8004740:	ea5e 0e43 	orrs.w	lr, lr, r3, lsl #1
 8004744:	bf08      	it	eq
 8004746:	ea20 70d3 	biceq.w	r0, r0, r3, lsr #31
 800474a:	bd70      	pop	{r4, r5, r6, pc}
 800474c:	f1c4 0520 	rsb	r5, r4, #32
 8004750:	fa00 f205 	lsl.w	r2, r0, r5
 8004754:	ea4e 0e02 	orr.w	lr, lr, r2
 8004758:	fa20 f304 	lsr.w	r3, r0, r4
 800475c:	fa01 f205 	lsl.w	r2, r1, r5
 8004760:	ea43 0302 	orr.w	r3, r3, r2
 8004764:	fa21 f004 	lsr.w	r0, r1, r4
 8004768:	f001 4100 	and.w	r1, r1, #2147483648	; 0x80000000
 800476c:	fa21 f204 	lsr.w	r2, r1, r4
 8004770:	ea20 0002 	bic.w	r0, r0, r2
 8004774:	eb00 70d3 	add.w	r0, r0, r3, lsr #31
 8004778:	ea5e 0e43 	orrs.w	lr, lr, r3, lsl #1
 800477c:	bf08      	it	eq
 800477e:	ea20 70d3 	biceq.w	r0, r0, r3, lsr #31
 8004782:	bd70      	pop	{r4, r5, r6, pc}
 8004784:	f094 0f00 	teq	r4, #0
 8004788:	d10f      	bne.n	80047aa <__aeabi_dmul+0x1c2>
 800478a:	f001 4600 	and.w	r6, r1, #2147483648	; 0x80000000
 800478e:	0040      	lsls	r0, r0, #1
 8004790:	eb41 0101 	adc.w	r1, r1, r1
 8004794:	f411 1f80 	tst.w	r1, #1048576	; 0x100000
 8004798:	bf08      	it	eq
 800479a:	3c01      	subeq	r4, #1
 800479c:	d0f7      	beq.n	800478e <__aeabi_dmul+0x1a6>
 800479e:	ea41 0106 	orr.w	r1, r1, r6
 80047a2:	f095 0f00 	teq	r5, #0
 80047a6:	bf18      	it	ne
 80047a8:	4770      	bxne	lr
 80047aa:	f003 4600 	and.w	r6, r3, #2147483648	; 0x80000000
 80047ae:	0052      	lsls	r2, r2, #1
 80047b0:	eb43 0303 	adc.w	r3, r3, r3
 80047b4:	f413 1f80 	tst.w	r3, #1048576	; 0x100000
 80047b8:	bf08      	it	eq
 80047ba:	3d01      	subeq	r5, #1
 80047bc:	d0f7      	beq.n	80047ae <__aeabi_dmul+0x1c6>
 80047be:	ea43 0306 	orr.w	r3, r3, r6
 80047c2:	4770      	bx	lr
 80047c4:	ea94 0f0c 	teq	r4, ip
 80047c8:	ea0c 5513 	and.w	r5, ip, r3, lsr #20
 80047cc:	bf18      	it	ne
 80047ce:	ea95 0f0c 	teqne	r5, ip
 80047d2:	d00c      	beq.n	80047ee <__aeabi_dmul+0x206>
 80047d4:	ea50 0641 	orrs.w	r6, r0, r1, lsl #1
 80047d8:	bf18      	it	ne
 80047da:	ea52 0643 	orrsne.w	r6, r2, r3, lsl #1
 80047de:	d1d1      	bne.n	8004784 <__aeabi_dmul+0x19c>
 80047e0:	ea81 0103 	eor.w	r1, r1, r3
 80047e4:	f001 4100 	and.w	r1, r1, #2147483648	; 0x80000000
 80047e8:	f04f 0000 	mov.w	r0, #0
 80047ec:	bd70      	pop	{r4, r5, r6, pc}
 80047ee:	ea50 0641 	orrs.w	r6, r0, r1, lsl #1
 80047f2:	bf06      	itte	eq
 80047f4:	4610      	moveq	r0, r2
 80047f6:	4619      	moveq	r1, r3
 80047f8:	ea52 0643 	orrsne.w	r6, r2, r3, lsl #1
 80047fc:	d019      	beq.n	8004832 <__aeabi_dmul+0x24a>
 80047fe:	ea94 0f0c 	teq	r4, ip
 8004802:	d102      	bne.n	800480a <__aeabi_dmul+0x222>
 8004804:	ea50 3601 	orrs.w	r6, r0, r1, lsl #12
 8004808:	d113      	bne.n	8004832 <__aeabi_dmul+0x24a>
 800480a:	ea95 0f0c 	teq	r5, ip
 800480e:	d105      	bne.n	800481c <__aeabi_dmul+0x234>
 8004810:	ea52 3603 	orrs.w	r6, r2, r3, lsl #12
 8004814:	bf1c      	itt	ne
 8004816:	4610      	movne	r0, r2
 8004818:	4619      	movne	r1, r3
 800481a:	d10a      	bne.n	8004832 <__aeabi_dmul+0x24a>
 800481c:	ea81 0103 	eor.w	r1, r1, r3
 8004820:	f001 4100 	and.w	r1, r1, #2147483648	; 0x80000000
 8004824:	f041 41fe 	orr.w	r1, r1, #2130706432	; 0x7f000000
 8004828:	f441 0170 	orr.w	r1, r1, #15728640	; 0xf00000
 800482c:	f04f 0000 	mov.w	r0, #0
 8004830:	bd70      	pop	{r4, r5, r6, pc}
 8004832:	f041 41fe 	orr.w	r1, r1, #2130706432	; 0x7f000000
 8004836:	f441 0178 	orr.w	r1, r1, #16252928	; 0xf80000
 800483a:	bd70      	pop	{r4, r5, r6, pc}

0800483c <__aeabi_ddiv>:
 800483c:	b570      	push	{r4, r5, r6, lr}
 800483e:	f04f 0cff 	mov.w	ip, #255	; 0xff
 8004842:	f44c 6ce0 	orr.w	ip, ip, #1792	; 0x700
 8004846:	ea1c 5411 	ands.w	r4, ip, r1, lsr #20
 800484a:	bf1d      	ittte	ne
 800484c:	ea1c 5513 	andsne.w	r5, ip, r3, lsr #20
 8004850:	ea94 0f0c 	teqne	r4, ip
 8004854:	ea95 0f0c 	teqne	r5, ip
 8004858:	f000 f8a7 	bleq	80049aa <__aeabi_ddiv+0x16e>
 800485c:	eba4 0405 	sub.w	r4, r4, r5
 8004860:	ea81 0e03 	eor.w	lr, r1, r3
 8004864:	ea52 3503 	orrs.w	r5, r2, r3, lsl #12
 8004868:	ea4f 3101 	mov.w	r1, r1, lsl #12
 800486c:	f000 8088 	beq.w	8004980 <__aeabi_ddiv+0x144>
 8004870:	ea4f 3303 	mov.w	r3, r3, lsl #12
 8004874:	f04f 5580 	mov.w	r5, #268435456	; 0x10000000
 8004878:	ea45 1313 	orr.w	r3, r5, r3, lsr #4
 800487c:	ea43 6312 	orr.w	r3, r3, r2, lsr #24
 8004880:	ea4f 2202 	mov.w	r2, r2, lsl #8
 8004884:	ea45 1511 	orr.w	r5, r5, r1, lsr #4
 8004888:	ea45 6510 	orr.w	r5, r5, r0, lsr #24
 800488c:	ea4f 2600 	mov.w	r6, r0, lsl #8
 8004890:	f00e 4100 	and.w	r1, lr, #2147483648	; 0x80000000
 8004894:	429d      	cmp	r5, r3
 8004896:	bf08      	it	eq
 8004898:	4296      	cmpeq	r6, r2
 800489a:	f144 04fd 	adc.w	r4, r4, #253	; 0xfd
 800489e:	f504 7440 	add.w	r4, r4, #768	; 0x300
 80048a2:	d202      	bcs.n	80048aa <__aeabi_ddiv+0x6e>
 80048a4:	085b      	lsrs	r3, r3, #1
 80048a6:	ea4f 0232 	mov.w	r2, r2, rrx
 80048aa:	1ab6      	subs	r6, r6, r2
 80048ac:	eb65 0503 	sbc.w	r5, r5, r3
 80048b0:	085b      	lsrs	r3, r3, #1
 80048b2:	ea4f 0232 	mov.w	r2, r2, rrx
 80048b6:	f44f 1080 	mov.w	r0, #1048576	; 0x100000
 80048ba:	f44f 2c00 	mov.w	ip, #524288	; 0x80000
 80048be:	ebb6 0e02 	subs.w	lr, r6, r2
 80048c2:	eb75 0e03 	sbcs.w	lr, r5, r3
 80048c6:	bf22      	ittt	cs
 80048c8:	1ab6      	subcs	r6, r6, r2
 80048ca:	4675      	movcs	r5, lr
 80048cc:	ea40 000c 	orrcs.w	r0, r0, ip
 80048d0:	085b      	lsrs	r3, r3, #1
 80048d2:	ea4f 0232 	mov.w	r2, r2, rrx
 80048d6:	ebb6 0e02 	subs.w	lr, r6, r2
 80048da:	eb75 0e03 	sbcs.w	lr, r5, r3
 80048de:	bf22      	ittt	cs
 80048e0:	1ab6      	subcs	r6, r6, r2
 80048e2:	4675      	movcs	r5, lr
 80048e4:	ea40 005c 	orrcs.w	r0, r0, ip, lsr #1
 80048e8:	085b      	lsrs	r3, r3, #1
 80048ea:	ea4f 0232 	mov.w	r2, r2, rrx
 80048ee:	ebb6 0e02 	subs.w	lr, r6, r2
 80048f2:	eb75 0e03 	sbcs.w	lr, r5, r3
 80048f6:	bf22      	ittt	cs
 80048f8:	1ab6      	subcs	r6, r6, r2
 80048fa:	4675      	movcs	r5, lr
 80048fc:	ea40 009c 	orrcs.w	r0, r0, ip, lsr #2
 8004900:	085b      	lsrs	r3, r3, #1
 8004902:	ea4f 0232 	mov.w	r2, r2, rrx
 8004906:	ebb6 0e02 	subs.w	lr, r6, r2
 800490a:	eb75 0e03 	sbcs.w	lr, r5, r3
 800490e:	bf22      	ittt	cs
 8004910:	1ab6      	subcs	r6, r6, r2
 8004912:	4675      	movcs	r5, lr
 8004914:	ea40 00dc 	orrcs.w	r0, r0, ip, lsr #3
 8004918:	ea55 0e06 	orrs.w	lr, r5, r6
 800491c:	d018      	beq.n	8004950 <__aeabi_ddiv+0x114>
 800491e:	ea4f 1505 	mov.w	r5, r5, lsl #4
 8004922:	ea45 7516 	orr.w	r5, r5, r6, lsr #28
 8004926:	ea4f 1606 	mov.w	r6, r6, lsl #4
 800492a:	ea4f 03c3 	mov.w	r3, r3, lsl #3
 800492e:	ea43 7352 	orr.w	r3, r3, r2, lsr #29
 8004932:	ea4f 02c2 	mov.w	r2, r2, lsl #3
 8004936:	ea5f 1c1c 	movs.w	ip, ip, lsr #4
 800493a:	d1c0      	bne.n	80048be <__aeabi_ddiv+0x82>
 800493c:	f411 1f80 	tst.w	r1, #1048576	; 0x100000
 8004940:	d10b      	bne.n	800495a <__aeabi_ddiv+0x11e>
 8004942:	ea41 0100 	orr.w	r1, r1, r0
 8004946:	f04f 0000 	mov.w	r0, #0
 800494a:	f04f 4c00 	mov.w	ip, #2147483648	; 0x80000000
 800494e:	e7b6      	b.n	80048be <__aeabi_ddiv+0x82>
 8004950:	f411 1f80 	tst.w	r1, #1048576	; 0x100000
 8004954:	bf04      	itt	eq
 8004956:	4301      	orreq	r1, r0
 8004958:	2000      	moveq	r0, #0
 800495a:	f1b4 0cfd 	subs.w	ip, r4, #253	; 0xfd
 800495e:	bf88      	it	hi
 8004960:	f5bc 6fe0 	cmphi.w	ip, #1792	; 0x700
 8004964:	f63f aeaf 	bhi.w	80046c6 <__aeabi_dmul+0xde>
 8004968:	ebb5 0c03 	subs.w	ip, r5, r3
 800496c:	bf04      	itt	eq
 800496e:	ebb6 0c02 	subseq.w	ip, r6, r2
 8004972:	ea5f 0c50 	movseq.w	ip, r0, lsr #1
 8004976:	f150 0000 	adcs.w	r0, r0, #0
 800497a:	eb41 5104 	adc.w	r1, r1, r4, lsl #20
 800497e:	bd70      	pop	{r4, r5, r6, pc}
 8004980:	f00e 4e00 	and.w	lr, lr, #2147483648	; 0x80000000
 8004984:	ea4e 3111 	orr.w	r1, lr, r1, lsr #12
 8004988:	eb14 045c 	adds.w	r4, r4, ip, lsr #1
 800498c:	bfc2      	ittt	gt
 800498e:	ebd4 050c 	rsbsgt	r5, r4, ip
 8004992:	ea41 5104 	orrgt.w	r1, r1, r4, lsl #20
 8004996:	bd70      	popgt	{r4, r5, r6, pc}
 8004998:	f441 1180 	orr.w	r1, r1, #1048576	; 0x100000
 800499c:	f04f 0e00 	mov.w	lr, #0
 80049a0:	3c01      	subs	r4, #1
 80049a2:	e690      	b.n	80046c6 <__aeabi_dmul+0xde>
 80049a4:	ea45 0e06 	orr.w	lr, r5, r6
 80049a8:	e68d      	b.n	80046c6 <__aeabi_dmul+0xde>
 80049aa:	ea0c 5513 	and.w	r5, ip, r3, lsr #20
 80049ae:	ea94 0f0c 	teq	r4, ip
 80049b2:	bf08      	it	eq
 80049b4:	ea95 0f0c 	teqeq	r5, ip
 80049b8:	f43f af3b 	beq.w	8004832 <__aeabi_dmul+0x24a>
 80049bc:	ea94 0f0c 	teq	r4, ip
 80049c0:	d10a      	bne.n	80049d8 <__aeabi_ddiv+0x19c>
 80049c2:	ea50 3401 	orrs.w	r4, r0, r1, lsl #12
 80049c6:	f47f af34 	bne.w	8004832 <__aeabi_dmul+0x24a>
 80049ca:	ea95 0f0c 	teq	r5, ip
 80049ce:	f47f af25 	bne.w	800481c <__aeabi_dmul+0x234>
 80049d2:	4610      	mov	r0, r2
 80049d4:	4619      	mov	r1, r3
 80049d6:	e72c      	b.n	8004832 <__aeabi_dmul+0x24a>
 80049d8:	ea95 0f0c 	teq	r5, ip
 80049dc:	d106      	bne.n	80049ec <__aeabi_ddiv+0x1b0>
 80049de:	ea52 3503 	orrs.w	r5, r2, r3, lsl #12
 80049e2:	f43f aefd 	beq.w	80047e0 <__aeabi_dmul+0x1f8>
 80049e6:	4610      	mov	r0, r2
 80049e8:	4619      	mov	r1, r3
 80049ea:	e722      	b.n	8004832 <__aeabi_dmul+0x24a>
 80049ec:	ea50 0641 	orrs.w	r6, r0, r1, lsl #1
 80049f0:	bf18      	it	ne
 80049f2:	ea52 0643 	orrsne.w	r6, r2, r3, lsl #1
 80049f6:	f47f aec5 	bne.w	8004784 <__aeabi_dmul+0x19c>
 80049fa:	ea50 0441 	orrs.w	r4, r0, r1, lsl #1
 80049fe:	f47f af0d 	bne.w	800481c <__aeabi_dmul+0x234>
 8004a02:	ea52 0543 	orrs.w	r5, r2, r3, lsl #1
 8004a06:	f47f aeeb 	bne.w	80047e0 <__aeabi_dmul+0x1f8>
 8004a0a:	e712      	b.n	8004832 <__aeabi_dmul+0x24a>

08004a0c <__gedf2>:
 8004a0c:	f04f 3cff 	mov.w	ip, #4294967295
 8004a10:	e006      	b.n	8004a20 <__cmpdf2+0x4>
 8004a12:	bf00      	nop

08004a14 <__ledf2>:
 8004a14:	f04f 0c01 	mov.w	ip, #1
 8004a18:	e002      	b.n	8004a20 <__cmpdf2+0x4>
 8004a1a:	bf00      	nop

08004a1c <__cmpdf2>:
 8004a1c:	f04f 0c01 	mov.w	ip, #1
 8004a20:	f84d cd04 	str.w	ip, [sp, #-4]!
 8004a24:	ea4f 0c41 	mov.w	ip, r1, lsl #1
 8004a28:	ea7f 5c6c 	mvns.w	ip, ip, asr #21
 8004a2c:	ea4f 0c43 	mov.w	ip, r3, lsl #1
 8004a30:	bf18      	it	ne
 8004a32:	ea7f 5c6c 	mvnsne.w	ip, ip, asr #21
 8004a36:	d01b      	beq.n	8004a70 <__cmpdf2+0x54>
 8004a38:	b001      	add	sp, #4
 8004a3a:	ea50 0c41 	orrs.w	ip, r0, r1, lsl #1
 8004a3e:	bf0c      	ite	eq
 8004a40:	ea52 0c43 	orrseq.w	ip, r2, r3, lsl #1
 8004a44:	ea91 0f03 	teqne	r1, r3
 8004a48:	bf02      	ittt	eq
 8004a4a:	ea90 0f02 	teqeq	r0, r2
 8004a4e:	2000      	moveq	r0, #0
 8004a50:	4770      	bxeq	lr
 8004a52:	f110 0f00 	cmn.w	r0, #0
 8004a56:	ea91 0f03 	teq	r1, r3
 8004a5a:	bf58      	it	pl
 8004a5c:	4299      	cmppl	r1, r3
 8004a5e:	bf08      	it	eq
 8004a60:	4290      	cmpeq	r0, r2
 8004a62:	bf2c      	ite	cs
 8004a64:	17d8      	asrcs	r0, r3, #31
 8004a66:	ea6f 70e3 	mvncc.w	r0, r3, asr #31
 8004a6a:	f040 0001 	orr.w	r0, r0, #1
 8004a6e:	4770      	bx	lr
 8004a70:	ea4f 0c41 	mov.w	ip, r1, lsl #1
 8004a74:	ea7f 5c6c 	mvns.w	ip, ip, asr #21
 8004a78:	d102      	bne.n	8004a80 <__cmpdf2+0x64>
 8004a7a:	ea50 3c01 	orrs.w	ip, r0, r1, lsl #12
 8004a7e:	d107      	bne.n	8004a90 <__cmpdf2+0x74>
 8004a80:	ea4f 0c43 	mov.w	ip, r3, lsl #1
 8004a84:	ea7f 5c6c 	mvns.w	ip, ip, asr #21
 8004a88:	d1d6      	bne.n	8004a38 <__cmpdf2+0x1c>
 8004a8a:	ea52 3c03 	orrs.w	ip, r2, r3, lsl #12
 8004a8e:	d0d3      	beq.n	8004a38 <__cmpdf2+0x1c>
 8004a90:	f85d 0b04 	ldr.w	r0, [sp], #4
 8004a94:	4770      	bx	lr
 8004a96:	bf00      	nop

08004a98 <__aeabi_cdrcmple>:
 8004a98:	4684      	mov	ip, r0
 8004a9a:	4610      	mov	r0, r2
 8004a9c:	4662      	mov	r2, ip
 8004a9e:	468c      	mov	ip, r1
 8004aa0:	4619      	mov	r1, r3
 8004aa2:	4663      	mov	r3, ip
 8004aa4:	e000      	b.n	8004aa8 <__aeabi_cdcmpeq>
 8004aa6:	bf00      	nop

08004aa8 <__aeabi_cdcmpeq>:
 8004aa8:	b501      	push	{r0, lr}
 8004aaa:	f7ff ffb7 	bl	8004a1c <__cmpdf2>
 8004aae:	2800      	cmp	r0, #0
 8004ab0:	bf48      	it	mi
 8004ab2:	f110 0f00 	cmnmi.w	r0, #0
 8004ab6:	bd01      	pop	{r0, pc}

08004ab8 <__aeabi_dcmpeq>:
 8004ab8:	f84d ed08 	str.w	lr, [sp, #-8]!
 8004abc:	f7ff fff4 	bl	8004aa8 <__aeabi_cdcmpeq>
 8004ac0:	bf0c      	ite	eq
 8004ac2:	2001      	moveq	r0, #1
 8004ac4:	2000      	movne	r0, #0
 8004ac6:	f85d fb08 	ldr.w	pc, [sp], #8
 8004aca:	bf00      	nop

08004acc <__aeabi_dcmplt>:
 8004acc:	f84d ed08 	str.w	lr, [sp, #-8]!
 8004ad0:	f7ff ffea 	bl	8004aa8 <__aeabi_cdcmpeq>
 8004ad4:	bf34      	ite	cc
 8004ad6:	2001      	movcc	r0, #1
 8004ad8:	2000      	movcs	r0, #0
 8004ada:	f85d fb08 	ldr.w	pc, [sp], #8
 8004ade:	bf00      	nop

08004ae0 <__aeabi_dcmple>:
 8004ae0:	f84d ed08 	str.w	lr, [sp, #-8]!
 8004ae4:	f7ff ffe0 	bl	8004aa8 <__aeabi_cdcmpeq>
 8004ae8:	bf94      	ite	ls
 8004aea:	2001      	movls	r0, #1
 8004aec:	2000      	movhi	r0, #0
 8004aee:	f85d fb08 	ldr.w	pc, [sp], #8
 8004af2:	bf00      	nop

08004af4 <__aeabi_dcmpge>:
 8004af4:	f84d ed08 	str.w	lr, [sp, #-8]!
 8004af8:	f7ff ffce 	bl	8004a98 <__aeabi_cdrcmple>
 8004afc:	bf94      	ite	ls
 8004afe:	2001      	movls	r0, #1
 8004b00:	2000      	movhi	r0, #0
 8004b02:	f85d fb08 	ldr.w	pc, [sp], #8
 8004b06:	bf00      	nop

08004b08 <__aeabi_dcmpgt>:
 8004b08:	f84d ed08 	str.w	lr, [sp, #-8]!
 8004b0c:	f7ff ffc4 	bl	8004a98 <__aeabi_cdrcmple>
 8004b10:	bf34      	ite	cc
 8004b12:	2001      	movcc	r0, #1
 8004b14:	2000      	movcs	r0, #0
 8004b16:	f85d fb08 	ldr.w	pc, [sp], #8
 8004b1a:	bf00      	nop

08004b1c <__aeabi_d2iz>:
 8004b1c:	ea4f 0241 	mov.w	r2, r1, lsl #1
 8004b20:	f512 1200 	adds.w	r2, r2, #2097152	; 0x200000
 8004b24:	d215      	bcs.n	8004b52 <__aeabi_d2iz+0x36>
 8004b26:	d511      	bpl.n	8004b4c <__aeabi_d2iz+0x30>
 8004b28:	f46f 7378 	mvn.w	r3, #992	; 0x3e0
 8004b2c:	ebb3 5262 	subs.w	r2, r3, r2, asr #21
 8004b30:	d912      	bls.n	8004b58 <__aeabi_d2iz+0x3c>
 8004b32:	ea4f 23c1 	mov.w	r3, r1, lsl #11
 8004b36:	f043 4300 	orr.w	r3, r3, #2147483648	; 0x80000000
 8004b3a:	ea43 5350 	orr.w	r3, r3, r0, lsr #21
 8004b3e:	f011 4f00 	tst.w	r1, #2147483648	; 0x80000000
 8004b42:	fa23 f002 	lsr.w	r0, r3, r2
 8004b46:	bf18      	it	ne
 8004b48:	4240      	negne	r0, r0
 8004b4a:	4770      	bx	lr
 8004b4c:	f04f 0000 	mov.w	r0, #0
 8004b50:	4770      	bx	lr
 8004b52:	ea50 3001 	orrs.w	r0, r0, r1, lsl #12
 8004b56:	d105      	bne.n	8004b64 <__aeabi_d2iz+0x48>
 8004b58:	f011 4000 	ands.w	r0, r1, #2147483648	; 0x80000000
 8004b5c:	bf08      	it	eq
 8004b5e:	f06f 4000 	mvneq.w	r0, #2147483648	; 0x80000000
 8004b62:	4770      	bx	lr
 8004b64:	f04f 0000 	mov.w	r0, #0
 8004b68:	4770      	bx	lr
 8004b6a:	bf00      	nop

08004b6c <Reset_Handler>:

    .section	.text.Reset_Handler
	.weak	Reset_Handler
	.type	Reset_Handler, %function
Reset_Handler:
  ldr   sp, =_estack    /* Atollic update: set stack pointer */
 8004b6c:	f8df d034 	ldr.w	sp, [pc, #52]	; 8004ba4 <LoopForever+0x2>

/* Copy the data segment initializers from flash to SRAM */
  movs	r1, #0
 8004b70:	2100      	movs	r1, #0
  b	LoopCopyDataInit
 8004b72:	e003      	b.n	8004b7c <LoopCopyDataInit>

08004b74 <CopyDataInit>:

CopyDataInit:
	ldr	r3, =_sidata
 8004b74:	4b0c      	ldr	r3, [pc, #48]	; (8004ba8 <LoopForever+0x6>)
	ldr	r3, [r3, r1]
 8004b76:	585b      	ldr	r3, [r3, r1]
	str	r3, [r0, r1]
 8004b78:	5043      	str	r3, [r0, r1]
	adds	r1, r1, #4
 8004b7a:	3104      	adds	r1, #4

08004b7c <LoopCopyDataInit>:

LoopCopyDataInit:
	ldr	r0, =_sdata
 8004b7c:	480b      	ldr	r0, [pc, #44]	; (8004bac <LoopForever+0xa>)
	ldr	r3, =_edata
 8004b7e:	4b0c      	ldr	r3, [pc, #48]	; (8004bb0 <LoopForever+0xe>)
	adds	r2, r0, r1
 8004b80:	1842      	adds	r2, r0, r1
	cmp	r2, r3
 8004b82:	429a      	cmp	r2, r3
	bcc	CopyDataInit
 8004b84:	d3f6      	bcc.n	8004b74 <CopyDataInit>
	ldr	r2, =_sbss
 8004b86:	4a0b      	ldr	r2, [pc, #44]	; (8004bb4 <LoopForever+0x12>)
	b	LoopFillZerobss
 8004b88:	e002      	b.n	8004b90 <LoopFillZerobss>

08004b8a <FillZerobss>:
/* Zero fill the bss segment. */
FillZerobss:
	movs	r3, #0
 8004b8a:	2300      	movs	r3, #0
	str	r3, [r2], #4
 8004b8c:	f842 3b04 	str.w	r3, [r2], #4

08004b90 <LoopFillZerobss>:

LoopFillZerobss:
	ldr	r3, = _ebss
 8004b90:	4b09      	ldr	r3, [pc, #36]	; (8004bb8 <LoopForever+0x16>)
	cmp	r2, r3
 8004b92:	429a      	cmp	r2, r3
	bcc	FillZerobss
 8004b94:	d3f9      	bcc.n	8004b8a <FillZerobss>

/* Call the clock system intitialization function.*/
    bl  SystemInit
 8004b96:	f001 ff5f 	bl	8006a58 <SystemInit>
/* Call static constructors */
    bl __libc_init_array
 8004b9a:	f008 fdf7 	bl	800d78c <__libc_init_array>
/* Call the application's entry point.*/
	bl	main
 8004b9e:	f001 f96f 	bl	8005e80 <main>

08004ba2 <LoopForever>:

LoopForever:
    b LoopForever
 8004ba2:	e7fe      	b.n	8004ba2 <LoopForever>
  ldr   sp, =_estack    /* Atollic update: set stack pointer */
 8004ba4:	20018000 	.word	0x20018000
	ldr	r3, =_sidata
 8004ba8:	0800e498 	.word	0x0800e498
	ldr	r0, =_sdata
 8004bac:	20000000 	.word	0x20000000
	ldr	r3, =_edata
 8004bb0:	200001e8 	.word	0x200001e8
	ldr	r2, =_sbss
 8004bb4:	200001e8 	.word	0x200001e8
	ldr	r3, = _ebss
 8004bb8:	20002a74 	.word	0x20002a74

08004bbc <ADC1_2_IRQHandler>:
 * @retval : None
*/
    .section	.text.Default_Handler,"ax",%progbits
Default_Handler:
Infinite_Loop:
	b	Infinite_Loop
 8004bbc:	e7fe      	b.n	8004bbc <ADC1_2_IRQHandler>
	...

08004bc0 <GAP_ConnectionComplete_CB>:
 * @param  uint16_t handle Connection handle
 * @retval None
 */
static void GAP_ConnectionComplete_CB(uint8_t addr[6], uint16_t handle)
{  
  connected = TRUE;
 8004bc0:	4b03      	ldr	r3, [pc, #12]	; (8004bd0 <GAP_ConnectionComplete_CB+0x10>)
 8004bc2:	2201      	movs	r2, #1
 8004bc4:	601a      	str	r2, [r3, #0]
  connection_handle = handle;
 8004bc6:	8099      	strh	r1, [r3, #4]

#ifdef ALLMEMS1_DEBUG_CONNECTION
  ALLMEMS1_PRINTF("\r\n>>>>>>CONNECTED %x:%x:%x:%x:%x:%x\r\n\r\n",addr[5],addr[4],addr[3],addr[2],addr[1],addr[0]);
#endif /* ALLMEMS1_DEBUG_CONNECTION */

  ConnectionBleStatus=0;
 8004bc8:	4b02      	ldr	r3, [pc, #8]	; (8004bd4 <GAP_ConnectionComplete_CB+0x14>)
 8004bca:	2200      	movs	r2, #0
 8004bcc:	601a      	str	r2, [r3, #0]
  


}
 8004bce:	4770      	bx	lr
 8004bd0:	20000204 	.word	0x20000204
 8004bd4:	20000804 	.word	0x20000804

08004bd8 <AccGyroMag_AttributeModified_CB>:
 * is subscribed or not to the Acc,Gyro and Mag service
 * @param uint8_t *att_data attribute data
 * @retval None
 */
static void AccGyroMag_AttributeModified_CB(uint8_t *att_data)
{
 8004bd8:	b500      	push	{lr}
 8004bda:	b0c1      	sub	sp, #260	; 0x104
  if (att_data[0] == 01) {
 8004bdc:	7803      	ldrb	r3, [r0, #0]
 8004bde:	2b01      	cmp	r3, #1
 8004be0:	d011      	beq.n	8004c06 <AccGyroMag_AttributeModified_CB+0x2e>
    {
      uint32_t uhCapture = __HAL_TIM_GET_COUNTER(&TimCCHandle);
      /* Set the Capture Compare Register value */
      __HAL_TIM_SET_COMPARE(&TimCCHandle, TIM_CHANNEL_4, (uhCapture + uhCCR4_Val));
    }
  } else if (att_data[0] == 0) {
 8004be2:	b32b      	cbz	r3, 8004c30 <AccGyroMag_AttributeModified_CB+0x58>
      /* Stopping Error */
      Error_Handler();
    }      
  }

    XPRINTF("--->Acc/Gyro/Mag=%s", W2ST_CHECK_CONNECTION(W2ST_CONNECT_ACC_GYRO_MAG) ? " ON\r\n" : " OFF\r\n\n");
 8004be4:	4b1a      	ldr	r3, [pc, #104]	; (8004c50 <AccGyroMag_AttributeModified_CB+0x78>)
 8004be6:	681b      	ldr	r3, [r3, #0]
 8004be8:	f013 0f04 	tst.w	r3, #4
 8004bec:	d02e      	beq.n	8004c4c <AccGyroMag_AttributeModified_CB+0x74>
 8004bee:	4a19      	ldr	r2, [pc, #100]	; (8004c54 <AccGyroMag_AttributeModified_CB+0x7c>)
 8004bf0:	4919      	ldr	r1, [pc, #100]	; (8004c58 <AccGyroMag_AttributeModified_CB+0x80>)
 8004bf2:	4668      	mov	r0, sp
 8004bf4:	f008 fd8c 	bl	800d710 <siprintf>
 8004bf8:	4601      	mov	r1, r0
 8004bfa:	4668      	mov	r0, sp
 8004bfc:	f001 fc18 	bl	8006430 <CDC_Fill_Buffer>

}
 8004c00:	b041      	add	sp, #260	; 0x104
 8004c02:	f85d fb04 	ldr.w	pc, [sp], #4
    W2ST_ON_CONNECTION(W2ST_CONNECT_ACC_GYRO_MAG);
 8004c06:	4a12      	ldr	r2, [pc, #72]	; (8004c50 <AccGyroMag_AttributeModified_CB+0x78>)
 8004c08:	6813      	ldr	r3, [r2, #0]
 8004c0a:	f043 0304 	orr.w	r3, r3, #4
 8004c0e:	6013      	str	r3, [r2, #0]
    if(HAL_TIM_OC_Start_IT(&TimCCHandle, TIM_CHANNEL_4) != HAL_OK){
 8004c10:	210c      	movs	r1, #12
 8004c12:	4812      	ldr	r0, [pc, #72]	; (8004c5c <AccGyroMag_AttributeModified_CB+0x84>)
 8004c14:	f004 ff78 	bl	8009b08 <HAL_TIM_OC_Start_IT>
 8004c18:	b938      	cbnz	r0, 8004c2a <AccGyroMag_AttributeModified_CB+0x52>
      uint32_t uhCapture = __HAL_TIM_GET_COUNTER(&TimCCHandle);
 8004c1a:	4b10      	ldr	r3, [pc, #64]	; (8004c5c <AccGyroMag_AttributeModified_CB+0x84>)
 8004c1c:	681a      	ldr	r2, [r3, #0]
 8004c1e:	6a53      	ldr	r3, [r2, #36]	; 0x24
      __HAL_TIM_SET_COMPARE(&TimCCHandle, TIM_CHANNEL_4, (uhCapture + uhCCR4_Val));
 8004c20:	490f      	ldr	r1, [pc, #60]	; (8004c60 <AccGyroMag_AttributeModified_CB+0x88>)
 8004c22:	6809      	ldr	r1, [r1, #0]
 8004c24:	440b      	add	r3, r1
 8004c26:	6413      	str	r3, [r2, #64]	; 0x40
 8004c28:	e7dc      	b.n	8004be4 <AccGyroMag_AttributeModified_CB+0xc>
      Error_Handler();
 8004c2a:	f001 f8bd 	bl	8005da8 <Error_Handler>
 8004c2e:	e7f4      	b.n	8004c1a <AccGyroMag_AttributeModified_CB+0x42>
    W2ST_OFF_CONNECTION(W2ST_CONNECT_ACC_GYRO_MAG);
 8004c30:	4a07      	ldr	r2, [pc, #28]	; (8004c50 <AccGyroMag_AttributeModified_CB+0x78>)
 8004c32:	6813      	ldr	r3, [r2, #0]
 8004c34:	f023 0304 	bic.w	r3, r3, #4
 8004c38:	6013      	str	r3, [r2, #0]
    if(HAL_TIM_OC_Stop_IT(&TimCCHandle, TIM_CHANNEL_4) != HAL_OK){
 8004c3a:	210c      	movs	r1, #12
 8004c3c:	4807      	ldr	r0, [pc, #28]	; (8004c5c <AccGyroMag_AttributeModified_CB+0x84>)
 8004c3e:	f005 f839 	bl	8009cb4 <HAL_TIM_OC_Stop_IT>
 8004c42:	2800      	cmp	r0, #0
 8004c44:	d0ce      	beq.n	8004be4 <AccGyroMag_AttributeModified_CB+0xc>
      Error_Handler();
 8004c46:	f001 f8af 	bl	8005da8 <Error_Handler>
 8004c4a:	e7cb      	b.n	8004be4 <AccGyroMag_AttributeModified_CB+0xc>
    XPRINTF("--->Acc/Gyro/Mag=%s", W2ST_CHECK_CONNECTION(W2ST_CONNECT_ACC_GYRO_MAG) ? " ON\r\n" : " OFF\r\n\n");
 8004c4c:	4a05      	ldr	r2, [pc, #20]	; (8004c64 <AccGyroMag_AttributeModified_CB+0x8c>)
 8004c4e:	e7cf      	b.n	8004bf0 <AccGyroMag_AttributeModified_CB+0x18>
 8004c50:	20000804 	.word	0x20000804
 8004c54:	0800df78 	.word	0x0800df78
 8004c58:	0800df88 	.word	0x0800df88
 8004c5c:	20000340 	.word	0x20000340
 8004c60:	20000004 	.word	0x20000004
 8004c64:	0800df80 	.word	0x0800df80

08004c68 <GAP_DisconnectionComplete_CB>:
{
 8004c68:	b530      	push	{r4, r5, lr}
 8004c6a:	b0c1      	sub	sp, #260	; 0x104
  connected = FALSE;
 8004c6c:	2500      	movs	r5, #0
 8004c6e:	4b10      	ldr	r3, [pc, #64]	; (8004cb0 <GAP_DisconnectionComplete_CB+0x48>)
 8004c70:	601d      	str	r5, [r3, #0]
  XPRINTF("<<<<<<DISCONNECTED\r\n");
 8004c72:	46ec      	mov	ip, sp
 8004c74:	4c0f      	ldr	r4, [pc, #60]	; (8004cb4 <GAP_DisconnectionComplete_CB+0x4c>)
 8004c76:	cc0f      	ldmia	r4!, {r0, r1, r2, r3}
 8004c78:	e8ac 000f 	stmia.w	ip!, {r0, r1, r2, r3}
 8004c7c:	e894 0003 	ldmia.w	r4, {r0, r1}
 8004c80:	f84c 0b04 	str.w	r0, [ip], #4
 8004c84:	f88c 1000 	strb.w	r1, [ip]
 8004c88:	2114      	movs	r1, #20
 8004c8a:	4668      	mov	r0, sp
 8004c8c:	f001 fbd0 	bl	8006430 <CDC_Fill_Buffer>
  set_connectable = TRUE;
 8004c90:	4b09      	ldr	r3, [pc, #36]	; (8004cb8 <GAP_DisconnectionComplete_CB+0x50>)
 8004c92:	2201      	movs	r2, #1
 8004c94:	701a      	strb	r2, [r3, #0]
  ConnectionBleStatus=0;
 8004c96:	4b09      	ldr	r3, [pc, #36]	; (8004cbc <GAP_DisconnectionComplete_CB+0x54>)
 8004c98:	601d      	str	r5, [r3, #0]
  if(HAL_TIM_OC_Stop_IT(&TimCCHandle, TIM_CHANNEL_4) != HAL_OK){
 8004c9a:	210c      	movs	r1, #12
 8004c9c:	4808      	ldr	r0, [pc, #32]	; (8004cc0 <GAP_DisconnectionComplete_CB+0x58>)
 8004c9e:	f005 f809 	bl	8009cb4 <HAL_TIM_OC_Stop_IT>
 8004ca2:	b908      	cbnz	r0, 8004ca8 <GAP_DisconnectionComplete_CB+0x40>
}
 8004ca4:	b041      	add	sp, #260	; 0x104
 8004ca6:	bd30      	pop	{r4, r5, pc}
    Error_Handler();
 8004ca8:	f001 f87e 	bl	8005da8 <Error_Handler>
}
 8004cac:	e7fa      	b.n	8004ca4 <GAP_DisconnectionComplete_CB+0x3c>
 8004cae:	bf00      	nop
 8004cb0:	20000204 	.word	0x20000204
 8004cb4:	0800df9c 	.word	0x0800df9c
 8004cb8:	20000000 	.word	0x20000000
 8004cbc:	20000804 	.word	0x20000804
 8004cc0:	20000340 	.word	0x20000340

08004cc4 <safe_aci_gatt_update_char_value>:
{
 8004cc4:	b510      	push	{r4, lr}
 8004cc6:	b082      	sub	sp, #8
  if (breath > 0) {
 8004cc8:	4c09      	ldr	r4, [pc, #36]	; (8004cf0 <safe_aci_gatt_update_char_value+0x2c>)
 8004cca:	68a4      	ldr	r4, [r4, #8]
 8004ccc:	2c00      	cmp	r4, #0
 8004cce:	dd05      	ble.n	8004cdc <safe_aci_gatt_update_char_value+0x18>
    breath--;
 8004cd0:	3c01      	subs	r4, #1
 8004cd2:	4b07      	ldr	r3, [pc, #28]	; (8004cf0 <safe_aci_gatt_update_char_value+0x2c>)
 8004cd4:	609c      	str	r4, [r3, #8]
  tBleStatus ret = BLE_STATUS_INSUFFICIENT_RESOURCES;
 8004cd6:	2064      	movs	r0, #100	; 0x64
}
 8004cd8:	b002      	add	sp, #8
 8004cda:	bd10      	pop	{r4, pc}
    ret = aci_gatt_update_char_value(servHandle,charHandle,charValOffset,charValueLen,charValue);
 8004cdc:	9c04      	ldr	r4, [sp, #16]
 8004cde:	9400      	str	r4, [sp, #0]
 8004ce0:	f005 ff25 	bl	800ab2e <aci_gatt_update_char_value>
    if (ret != BLE_STATUS_SUCCESS){
 8004ce4:	2800      	cmp	r0, #0
 8004ce6:	d0f7      	beq.n	8004cd8 <safe_aci_gatt_update_char_value+0x14>
      breath = ACC_BLUENRG_CONGESTION_SKIP;
 8004ce8:	4b01      	ldr	r3, [pc, #4]	; (8004cf0 <safe_aci_gatt_update_char_value+0x2c>)
 8004cea:	221e      	movs	r2, #30
 8004cec:	609a      	str	r2, [r3, #8]
 8004cee:	e7f3      	b.n	8004cd8 <safe_aci_gatt_update_char_value+0x14>
 8004cf0:	20000204 	.word	0x20000204

08004cf4 <Add_HW_SW_ServW2ST_Service>:
{
 8004cf4:	b530      	push	{r4, r5, lr}
 8004cf6:	b0cb      	sub	sp, #300	; 0x12c
  COPY_HW_SENS_W2ST_SERVICE_UUID(uuid);
 8004cf8:	231b      	movs	r3, #27
 8004cfa:	f88d 3118 	strb.w	r3, [sp, #280]	; 0x118
 8004cfe:	23c5      	movs	r3, #197	; 0xc5
 8004d00:	f88d 3119 	strb.w	r3, [sp, #281]	; 0x119
 8004d04:	23d5      	movs	r3, #213	; 0xd5
 8004d06:	f88d 311a 	strb.w	r3, [sp, #282]	; 0x11a
 8004d0a:	23a5      	movs	r3, #165	; 0xa5
 8004d0c:	f88d 311b 	strb.w	r3, [sp, #283]	; 0x11b
 8004d10:	2002      	movs	r0, #2
 8004d12:	f88d 011c 	strb.w	r0, [sp, #284]	; 0x11c
 8004d16:	2300      	movs	r3, #0
 8004d18:	f88d 311d 	strb.w	r3, [sp, #285]	; 0x11d
 8004d1c:	22b4      	movs	r2, #180	; 0xb4
 8004d1e:	f88d 211e 	strb.w	r2, [sp, #286]	; 0x11e
 8004d22:	229a      	movs	r2, #154	; 0x9a
 8004d24:	f88d 211f 	strb.w	r2, [sp, #287]	; 0x11f
 8004d28:	22e1      	movs	r2, #225	; 0xe1
 8004d2a:	f88d 2120 	strb.w	r2, [sp, #288]	; 0x120
 8004d2e:	2211      	movs	r2, #17
 8004d30:	f88d 2121 	strb.w	r2, [sp, #289]	; 0x121
 8004d34:	2201      	movs	r2, #1
 8004d36:	f88d 2122 	strb.w	r2, [sp, #290]	; 0x122
 8004d3a:	f88d 3123 	strb.w	r3, [sp, #291]	; 0x123
 8004d3e:	f88d 3124 	strb.w	r3, [sp, #292]	; 0x124
 8004d42:	f88d 3125 	strb.w	r3, [sp, #293]	; 0x125
 8004d46:	f88d 3126 	strb.w	r3, [sp, #294]	; 0x126
 8004d4a:	f88d 3127 	strb.w	r3, [sp, #295]	; 0x127
  ret = aci_gatt_add_serv(UUID_TYPE_128,  uuid, PRIMARY_SERVICE,
 8004d4e:	4b35      	ldr	r3, [pc, #212]	; (8004e24 <Add_HW_SW_ServW2ST_Service+0x130>)
 8004d50:	9300      	str	r3, [sp, #0]
 8004d52:	230d      	movs	r3, #13
 8004d54:	a946      	add	r1, sp, #280	; 0x118
 8004d56:	f005 fe3f 	bl	800a9d8 <aci_gatt_add_serv>
  if (ret != BLE_STATUS_SUCCESS) {
 8004d5a:	2800      	cmp	r0, #0
 8004d5c:	d13e      	bne.n	8004ddc <Add_HW_SW_ServW2ST_Service+0xe8>
  COPY_ACC_GYRO_MAG_W2ST_CHAR_UUID(uuid);
 8004d5e:	231b      	movs	r3, #27
 8004d60:	f88d 3118 	strb.w	r3, [sp, #280]	; 0x118
 8004d64:	23c5      	movs	r3, #197	; 0xc5
 8004d66:	f88d 3119 	strb.w	r3, [sp, #281]	; 0x119
 8004d6a:	23d5      	movs	r3, #213	; 0xd5
 8004d6c:	f88d 311a 	strb.w	r3, [sp, #282]	; 0x11a
 8004d70:	23a5      	movs	r3, #165	; 0xa5
 8004d72:	f88d 311b 	strb.w	r3, [sp, #283]	; 0x11b
 8004d76:	2102      	movs	r1, #2
 8004d78:	f88d 111c 	strb.w	r1, [sp, #284]	; 0x11c
 8004d7c:	2300      	movs	r3, #0
 8004d7e:	f88d 311d 	strb.w	r3, [sp, #285]	; 0x11d
 8004d82:	2236      	movs	r2, #54	; 0x36
 8004d84:	f88d 211e 	strb.w	r2, [sp, #286]	; 0x11e
 8004d88:	22ac      	movs	r2, #172	; 0xac
 8004d8a:	f88d 211f 	strb.w	r2, [sp, #287]	; 0x11f
 8004d8e:	22e1      	movs	r2, #225	; 0xe1
 8004d90:	f88d 2120 	strb.w	r2, [sp, #288]	; 0x120
 8004d94:	2211      	movs	r2, #17
 8004d96:	f88d 2121 	strb.w	r2, [sp, #289]	; 0x121
 8004d9a:	2201      	movs	r2, #1
 8004d9c:	f88d 2122 	strb.w	r2, [sp, #290]	; 0x122
 8004da0:	f88d 3123 	strb.w	r3, [sp, #291]	; 0x123
 8004da4:	f88d 3124 	strb.w	r3, [sp, #292]	; 0x124
 8004da8:	f88d 3125 	strb.w	r3, [sp, #293]	; 0x125
 8004dac:	22e0      	movs	r2, #224	; 0xe0
 8004dae:	f88d 2126 	strb.w	r2, [sp, #294]	; 0x126
 8004db2:	f88d 3127 	strb.w	r3, [sp, #295]	; 0x127
  ret =  aci_gatt_add_char(HWServW2STHandle, UUID_TYPE_128, uuid, 2+3*3*2,
 8004db6:	481c      	ldr	r0, [pc, #112]	; (8004e28 <Add_HW_SW_ServW2ST_Service+0x134>)
 8004db8:	f100 020e 	add.w	r2, r0, #14
 8004dbc:	9205      	str	r2, [sp, #20]
 8004dbe:	9304      	str	r3, [sp, #16]
 8004dc0:	2210      	movs	r2, #16
 8004dc2:	9203      	str	r2, [sp, #12]
 8004dc4:	2404      	movs	r4, #4
 8004dc6:	9402      	str	r4, [sp, #8]
 8004dc8:	9301      	str	r3, [sp, #4]
 8004dca:	9200      	str	r2, [sp, #0]
 8004dcc:	2314      	movs	r3, #20
 8004dce:	aa46      	add	r2, sp, #280	; 0x118
 8004dd0:	8980      	ldrh	r0, [r0, #12]
 8004dd2:	f005 fe46 	bl	800aa62 <aci_gatt_add_char>
  if (ret != BLE_STATUS_SUCCESS) {
 8004dd6:	b9a0      	cbnz	r0, 8004e02 <Add_HW_SW_ServW2ST_Service+0x10e>
}
 8004dd8:	b04b      	add	sp, #300	; 0x12c
 8004dda:	bd30      	pop	{r4, r5, pc}
	  XPRINTF("Error Creating Service\r\n");
 8004ddc:	f10d 0c18 	add.w	ip, sp, #24
 8004de0:	4c12      	ldr	r4, [pc, #72]	; (8004e2c <Add_HW_SW_ServW2ST_Service+0x138>)
 8004de2:	cc0f      	ldmia	r4!, {r0, r1, r2, r3}
 8004de4:	e8ac 000f 	stmia.w	ip!, {r0, r1, r2, r3}
 8004de8:	e894 0007 	ldmia.w	r4, {r0, r1, r2}
 8004dec:	e8ac 0003 	stmia.w	ip!, {r0, r1}
 8004df0:	f88c 2000 	strb.w	r2, [ip]
 8004df4:	2118      	movs	r1, #24
 8004df6:	eb0d 0001 	add.w	r0, sp, r1
 8004dfa:	f001 fb19 	bl	8006430 <CDC_Fill_Buffer>
  return BLE_STATUS_ERROR;
 8004dfe:	2047      	movs	r0, #71	; 0x47
    goto fail;
 8004e00:	e7ea      	b.n	8004dd8 <Add_HW_SW_ServW2ST_Service+0xe4>
	  XPRINTF("Error Creating Characterstic\r\n");
 8004e02:	ac06      	add	r4, sp, #24
 8004e04:	4d0a      	ldr	r5, [pc, #40]	; (8004e30 <Add_HW_SW_ServW2ST_Service+0x13c>)
 8004e06:	cd0f      	ldmia	r5!, {r0, r1, r2, r3}
 8004e08:	c40f      	stmia	r4!, {r0, r1, r2, r3}
 8004e0a:	e895 000f 	ldmia.w	r5, {r0, r1, r2, r3}
 8004e0e:	c407      	stmia	r4!, {r0, r1, r2}
 8004e10:	f824 3b02 	strh.w	r3, [r4], #2
 8004e14:	0c1b      	lsrs	r3, r3, #16
 8004e16:	7023      	strb	r3, [r4, #0]
 8004e18:	211e      	movs	r1, #30
 8004e1a:	a806      	add	r0, sp, #24
 8004e1c:	f001 fb08 	bl	8006430 <CDC_Fill_Buffer>
  return BLE_STATUS_ERROR;
 8004e20:	2047      	movs	r0, #71	; 0x47
    goto fail;
 8004e22:	e7d9      	b.n	8004dd8 <Add_HW_SW_ServW2ST_Service+0xe4>
 8004e24:	20000210 	.word	0x20000210
 8004e28:	20000204 	.word	0x20000204
 8004e2c:	0800dfb4 	.word	0x0800dfb4
 8004e30:	0800dfd0 	.word	0x0800dfd0

08004e34 <AccGyroMag_Update>:
{  
 8004e34:	b570      	push	{r4, r5, r6, lr}
 8004e36:	b0c8      	sub	sp, #288	; 0x120
 8004e38:	4606      	mov	r6, r0
 8004e3a:	460d      	mov	r5, r1
 8004e3c:	4614      	mov	r4, r2
  STORE_LE_16(buff   ,(HAL_GetTick()>>3));
 8004e3e:	f001 fe75 	bl	8006b2c <HAL_GetTick>
 8004e42:	f3c0 00c7 	ubfx	r0, r0, #3, #8
 8004e46:	f88d 010c 	strb.w	r0, [sp, #268]	; 0x10c
 8004e4a:	f001 fe6f 	bl	8006b2c <HAL_GetTick>
 8004e4e:	f3c0 20c7 	ubfx	r0, r0, #11, #8
 8004e52:	f88d 010d 	strb.w	r0, [sp, #269]	; 0x10d
  STORE_LE_16(buff+2 ,Acc->x);
 8004e56:	8833      	ldrh	r3, [r6, #0]
 8004e58:	f88d 310e 	strb.w	r3, [sp, #270]	; 0x10e
 8004e5c:	0a1b      	lsrs	r3, r3, #8
 8004e5e:	f88d 310f 	strb.w	r3, [sp, #271]	; 0x10f
  STORE_LE_16(buff+4 ,Acc->y);
 8004e62:	8873      	ldrh	r3, [r6, #2]
 8004e64:	f88d 3110 	strb.w	r3, [sp, #272]	; 0x110
 8004e68:	0a1b      	lsrs	r3, r3, #8
 8004e6a:	f88d 3111 	strb.w	r3, [sp, #273]	; 0x111
  STORE_LE_16(buff+6 ,Acc->z);
 8004e6e:	88b3      	ldrh	r3, [r6, #4]
 8004e70:	f88d 3112 	strb.w	r3, [sp, #274]	; 0x112
 8004e74:	0a1b      	lsrs	r3, r3, #8
 8004e76:	f88d 3113 	strb.w	r3, [sp, #275]	; 0x113
  STORE_LE_16(buff+8 ,Gyro->x*10);
 8004e7a:	882b      	ldrh	r3, [r5, #0]
 8004e7c:	eb03 0283 	add.w	r2, r3, r3, lsl #2
 8004e80:	0052      	lsls	r2, r2, #1
 8004e82:	f88d 2114 	strb.w	r2, [sp, #276]	; 0x114
 8004e86:	eb03 0383 	add.w	r3, r3, r3, lsl #2
 8004e8a:	f3c3 13c7 	ubfx	r3, r3, #7, #8
 8004e8e:	f88d 3115 	strb.w	r3, [sp, #277]	; 0x115
  STORE_LE_16(buff+10,Gyro->y*10);
 8004e92:	886b      	ldrh	r3, [r5, #2]
 8004e94:	eb03 0283 	add.w	r2, r3, r3, lsl #2
 8004e98:	0052      	lsls	r2, r2, #1
 8004e9a:	f88d 2116 	strb.w	r2, [sp, #278]	; 0x116
 8004e9e:	eb03 0383 	add.w	r3, r3, r3, lsl #2
 8004ea2:	f3c3 13c7 	ubfx	r3, r3, #7, #8
 8004ea6:	f88d 3117 	strb.w	r3, [sp, #279]	; 0x117
  STORE_LE_16(buff+12,Gyro->z*10);
 8004eaa:	88ab      	ldrh	r3, [r5, #4]
 8004eac:	eb03 0283 	add.w	r2, r3, r3, lsl #2
 8004eb0:	0052      	lsls	r2, r2, #1
 8004eb2:	f88d 2118 	strb.w	r2, [sp, #280]	; 0x118
 8004eb6:	eb03 0383 	add.w	r3, r3, r3, lsl #2
 8004eba:	f3c3 13c7 	ubfx	r3, r3, #7, #8
 8004ebe:	f88d 3119 	strb.w	r3, [sp, #281]	; 0x119
  STORE_LE_16(buff+14,Mag->x);
 8004ec2:	8823      	ldrh	r3, [r4, #0]
 8004ec4:	f88d 311a 	strb.w	r3, [sp, #282]	; 0x11a
 8004ec8:	0a1b      	lsrs	r3, r3, #8
 8004eca:	f88d 311b 	strb.w	r3, [sp, #283]	; 0x11b
  STORE_LE_16(buff+16,Mag->y);
 8004ece:	8863      	ldrh	r3, [r4, #2]
 8004ed0:	f88d 311c 	strb.w	r3, [sp, #284]	; 0x11c
 8004ed4:	0a1b      	lsrs	r3, r3, #8
 8004ed6:	f88d 311d 	strb.w	r3, [sp, #285]	; 0x11d
  STORE_LE_16(buff+18,Mag->z);
 8004eda:	88a3      	ldrh	r3, [r4, #4]
 8004edc:	f88d 311e 	strb.w	r3, [sp, #286]	; 0x11e
 8004ee0:	0a1b      	lsrs	r3, r3, #8
 8004ee2:	f88d 311f 	strb.w	r3, [sp, #287]	; 0x11f
  ret = ACI_GATT_UPDATE_CHAR_VALUE(HWServW2STHandle, AccGyroMagCharHandle, 0, 2+3*3*2, buff);
 8004ee6:	480e      	ldr	r0, [pc, #56]	; (8004f20 <AccGyroMag_Update+0xec>)
 8004ee8:	ab43      	add	r3, sp, #268	; 0x10c
 8004eea:	9300      	str	r3, [sp, #0]
 8004eec:	2314      	movs	r3, #20
 8004eee:	2200      	movs	r2, #0
 8004ef0:	89c1      	ldrh	r1, [r0, #14]
 8004ef2:	8980      	ldrh	r0, [r0, #12]
 8004ef4:	f7ff fee6 	bl	8004cc4 <safe_aci_gatt_update_char_value>
  if (ret != BLE_STATUS_SUCCESS){
 8004ef8:	b908      	cbnz	r0, 8004efe <AccGyroMag_Update+0xca>
}
 8004efa:	b048      	add	sp, #288	; 0x120
 8004efc:	bd70      	pop	{r4, r5, r6, pc}
      XPRINTF("Error Updating Acc/Gyro/Mag Char\r\n");
 8004efe:	ac03      	add	r4, sp, #12
 8004f00:	4d08      	ldr	r5, [pc, #32]	; (8004f24 <AccGyroMag_Update+0xf0>)
 8004f02:	cd0f      	ldmia	r5!, {r0, r1, r2, r3}
 8004f04:	c40f      	stmia	r4!, {r0, r1, r2, r3}
 8004f06:	cd0f      	ldmia	r5!, {r0, r1, r2, r3}
 8004f08:	c40f      	stmia	r4!, {r0, r1, r2, r3}
 8004f0a:	682b      	ldr	r3, [r5, #0]
 8004f0c:	f824 3b02 	strh.w	r3, [r4], #2
 8004f10:	0c1b      	lsrs	r3, r3, #16
 8004f12:	7023      	strb	r3, [r4, #0]
 8004f14:	2122      	movs	r1, #34	; 0x22
 8004f16:	a803      	add	r0, sp, #12
 8004f18:	f001 fa8a 	bl	8006430 <CDC_Fill_Buffer>
    return BLE_STATUS_ERROR;
 8004f1c:	2047      	movs	r0, #71	; 0x47
 8004f1e:	e7ec      	b.n	8004efa <AccGyroMag_Update+0xc6>
 8004f20:	20000204 	.word	0x20000204
 8004f24:	0800dff0 	.word	0x0800dff0

08004f28 <setConnectable>:
{  
 8004f28:	b570      	push	{r4, r5, r6, lr}
 8004f2a:	b092      	sub	sp, #72	; 0x48
  char local_name[8] = {AD_TYPE_COMPLETE_LOCAL_NAME,NodeName[1],NodeName[2],NodeName[3],NodeName[4],NodeName[5],NodeName[6],NodeName[7]};
 8004f2c:	2609      	movs	r6, #9
 8004f2e:	f88d 6040 	strb.w	r6, [sp, #64]	; 0x40
 8004f32:	4b37      	ldr	r3, [pc, #220]	; (8005010 <setConnectable+0xe8>)
 8004f34:	f893 e001 	ldrb.w	lr, [r3, #1]
 8004f38:	f88d e041 	strb.w	lr, [sp, #65]	; 0x41
 8004f3c:	f893 c002 	ldrb.w	ip, [r3, #2]
 8004f40:	f88d c042 	strb.w	ip, [sp, #66]	; 0x42
 8004f44:	78dc      	ldrb	r4, [r3, #3]
 8004f46:	f88d 4043 	strb.w	r4, [sp, #67]	; 0x43
 8004f4a:	7918      	ldrb	r0, [r3, #4]
 8004f4c:	f88d 0044 	strb.w	r0, [sp, #68]	; 0x44
 8004f50:	7959      	ldrb	r1, [r3, #5]
 8004f52:	f88d 1045 	strb.w	r1, [sp, #69]	; 0x45
 8004f56:	799a      	ldrb	r2, [r3, #6]
 8004f58:	f88d 2046 	strb.w	r2, [sp, #70]	; 0x46
 8004f5c:	79db      	ldrb	r3, [r3, #7]
 8004f5e:	f88d 3047 	strb.w	r3, [sp, #71]	; 0x47
  manuf_data[0 ] = 8U;
 8004f62:	2508      	movs	r5, #8
 8004f64:	f88d 5024 	strb.w	r5, [sp, #36]	; 0x24
  manuf_data[1 ] = 0x09U;
 8004f68:	f88d 6025 	strb.w	r6, [sp, #37]	; 0x25
  manuf_data[2 ] = NodeName[1];/* Complete Name */
 8004f6c:	f88d e026 	strb.w	lr, [sp, #38]	; 0x26
  manuf_data[3 ] = NodeName[2];
 8004f70:	f88d c027 	strb.w	ip, [sp, #39]	; 0x27
  manuf_data[4 ] = NodeName[3];
 8004f74:	f88d 4028 	strb.w	r4, [sp, #40]	; 0x28
  manuf_data[5 ] = NodeName[4];
 8004f78:	f88d 0029 	strb.w	r0, [sp, #41]	; 0x29
  manuf_data[6 ] = NodeName[5];
 8004f7c:	f88d 102a 	strb.w	r1, [sp, #42]	; 0x2a
  manuf_data[7 ] = NodeName[6];
 8004f80:	f88d 202b 	strb.w	r2, [sp, #43]	; 0x2b
  manuf_data[8 ] = NodeName[7];           
 8004f84:	f88d 302c 	strb.w	r3, [sp, #44]	; 0x2c
  manuf_data[9 ] = 15U;
 8004f88:	230f      	movs	r3, #15
 8004f8a:	f88d 302d 	strb.w	r3, [sp, #45]	; 0x2d
  manuf_data[10] = 0xFFU;
 8004f8e:	23ff      	movs	r3, #255	; 0xff
 8004f90:	f88d 302e 	strb.w	r3, [sp, #46]	; 0x2e
  manuf_data[11] = 0x30U;/* STM Manufacter AD */
 8004f94:	2330      	movs	r3, #48	; 0x30
 8004f96:	f88d 302f 	strb.w	r3, [sp, #47]	; 0x2f
  manuf_data[12] = 0x00U;
 8004f9a:	2400      	movs	r4, #0
 8004f9c:	f88d 4030 	strb.w	r4, [sp, #48]	; 0x30
  manuf_data[13] = 0x02U;
 8004fa0:	2302      	movs	r3, #2
 8004fa2:	f88d 3031 	strb.w	r3, [sp, #49]	; 0x31
  manuf_data[14] = 0x02U; /* Board Type */
 8004fa6:	f88d 3032 	strb.w	r3, [sp, #50]	; 0x32
  manuf_data[15] = 0x08U; /* Firmware ID */
 8004faa:	f88d 5033 	strb.w	r5, [sp, #51]	; 0x33
  manuf_data[16] = 0x00U;
 8004fae:	f88d 4034 	strb.w	r4, [sp, #52]	; 0x34
  manuf_data[17] = 0x00U;
 8004fb2:	f88d 4035 	strb.w	r4, [sp, #53]	; 0x35
  manuf_data[18] = 0x00U;
 8004fb6:	f88d 4036 	strb.w	r4, [sp, #54]	; 0x36
  manuf_data[19] = bdaddr[5];
 8004fba:	4b16      	ldr	r3, [pc, #88]	; (8005014 <setConnectable+0xec>)
 8004fbc:	795a      	ldrb	r2, [r3, #5]
 8004fbe:	f88d 2037 	strb.w	r2, [sp, #55]	; 0x37
  manuf_data[20] = bdaddr[4];
 8004fc2:	791a      	ldrb	r2, [r3, #4]
 8004fc4:	f88d 2038 	strb.w	r2, [sp, #56]	; 0x38
  manuf_data[21] = bdaddr[3];
 8004fc8:	78da      	ldrb	r2, [r3, #3]
 8004fca:	f88d 2039 	strb.w	r2, [sp, #57]	; 0x39
  manuf_data[22] = bdaddr[2];
 8004fce:	789a      	ldrb	r2, [r3, #2]
 8004fd0:	f88d 203a 	strb.w	r2, [sp, #58]	; 0x3a
  manuf_data[23] = bdaddr[1];
 8004fd4:	785a      	ldrb	r2, [r3, #1]
 8004fd6:	f88d 203b 	strb.w	r2, [sp, #59]	; 0x3b
  manuf_data[24] = bdaddr[0];
 8004fda:	781b      	ldrb	r3, [r3, #0]
 8004fdc:	f88d 303c 	strb.w	r3, [sp, #60]	; 0x3c
  hci_le_set_scan_resp_data(0,NULL);
 8004fe0:	4621      	mov	r1, r4
 8004fe2:	4620      	mov	r0, r4
 8004fe4:	f005 ff1b 	bl	800ae1e <hci_le_set_scan_resp_data>
  aci_gap_set_discoverable(ADV_IND, 0, 0,
 8004fe8:	9406      	str	r4, [sp, #24]
 8004fea:	9405      	str	r4, [sp, #20]
 8004fec:	9404      	str	r4, [sp, #16]
 8004fee:	9403      	str	r4, [sp, #12]
 8004ff0:	ab10      	add	r3, sp, #64	; 0x40
 8004ff2:	9302      	str	r3, [sp, #8]
 8004ff4:	9501      	str	r5, [sp, #4]
 8004ff6:	9400      	str	r4, [sp, #0]
 8004ff8:	2301      	movs	r3, #1
 8004ffa:	4622      	mov	r2, r4
 8004ffc:	4621      	mov	r1, r4
 8004ffe:	4620      	mov	r0, r4
 8005000:	f005 fbf2 	bl	800a7e8 <aci_gap_set_discoverable>
  aci_gap_update_adv_data(25, manuf_data);
 8005004:	a909      	add	r1, sp, #36	; 0x24
 8005006:	2019      	movs	r0, #25
 8005008:	f005 fc95 	bl	800a936 <aci_gap_update_adv_data>
}
 800500c:	b012      	add	sp, #72	; 0x48
 800500e:	bd70      	pop	{r4, r5, r6, pc}
 8005010:	200006b8 	.word	0x200006b8
 8005014:	20000318 	.word	0x20000318

08005018 <Read_Request_CB>:
{
 8005018:	b508      	push	{r3, lr}
  if(connection_handle != 0)
 800501a:	4b03      	ldr	r3, [pc, #12]	; (8005028 <Read_Request_CB+0x10>)
 800501c:	8898      	ldrh	r0, [r3, #4]
 800501e:	b900      	cbnz	r0, 8005022 <Read_Request_CB+0xa>
}
 8005020:	bd08      	pop	{r3, pc}
    aci_gatt_allow_read(connection_handle);
 8005022:	f005 fdbc 	bl	800ab9e <aci_gatt_allow_read>
}
 8005026:	e7fb      	b.n	8005020 <Read_Request_CB+0x8>
 8005028:	20000204 	.word	0x20000204

0800502c <Attribute_Modified_CB>:
{
 800502c:	b508      	push	{r3, lr}
    	if(attr_handle == AccGyroMagCharHandle + 2) {
 800502e:	4b05      	ldr	r3, [pc, #20]	; (8005044 <Attribute_Modified_CB+0x18>)
 8005030:	89db      	ldrh	r3, [r3, #14]
 8005032:	3302      	adds	r3, #2
 8005034:	4298      	cmp	r0, r3
 8005036:	d000      	beq.n	800503a <Attribute_Modified_CB+0xe>
}
 8005038:	bd08      	pop	{r3, pc}
      AccGyroMag_AttributeModified_CB(att_data);
 800503a:	4608      	mov	r0, r1
 800503c:	f7ff fdcc 	bl	8004bd8 <AccGyroMag_AttributeModified_CB>
}
 8005040:	e7fa      	b.n	8005038 <Attribute_Modified_CB+0xc>
 8005042:	bf00      	nop
 8005044:	20000204 	.word	0x20000204

08005048 <HCI_Event_CB>:
 *         parsed.
 * @param  void *pckt Pointer to the ACI packet
 * @retval None
 */
void HCI_Event_CB(void *pckt)
{
 8005048:	b530      	push	{r4, r5, lr}
 800504a:	b0c1      	sub	sp, #260	; 0x104
 800504c:	4605      	mov	r5, r0
  hci_uart_pckt *hci_pckt = pckt;
  hci_event_pckt *event_pckt = (hci_event_pckt*)hci_pckt->data;
  
  XPRINTF("HCI_Event_CB\r\n\r\n");
 800504e:	46ec      	mov	ip, sp
 8005050:	4c1d      	ldr	r4, [pc, #116]	; (80050c8 <HCI_Event_CB+0x80>)
 8005052:	cc0f      	ldmia	r4!, {r0, r1, r2, r3}
 8005054:	e8ac 000f 	stmia.w	ip!, {r0, r1, r2, r3}
 8005058:	6823      	ldr	r3, [r4, #0]
 800505a:	f88c 3000 	strb.w	r3, [ip]
 800505e:	2110      	movs	r1, #16
 8005060:	4668      	mov	r0, sp
 8005062:	f001 f9e5 	bl	8006430 <CDC_Fill_Buffer>

  if(hci_pckt->type != HCI_EVENT_PKT) {
 8005066:	782b      	ldrb	r3, [r5, #0]
 8005068:	2b04      	cmp	r3, #4
 800506a:	d106      	bne.n	800507a <HCI_Event_CB+0x32>
    return;
  }
  
  switch(event_pckt->evt){
 800506c:	786b      	ldrb	r3, [r5, #1]
 800506e:	2b3e      	cmp	r3, #62	; 0x3e
 8005070:	d008      	beq.n	8005084 <HCI_Event_CB+0x3c>
 8005072:	2bff      	cmp	r3, #255	; 0xff
 8005074:	d010      	beq.n	8005098 <HCI_Event_CB+0x50>
 8005076:	2b05      	cmp	r3, #5
 8005078:	d001      	beq.n	800507e <HCI_Event_CB+0x36>
        break;
      }
    }
    break;
  }
}
 800507a:	b041      	add	sp, #260	; 0x104
 800507c:	bd30      	pop	{r4, r5, pc}
      GAP_DisconnectionComplete_CB();
 800507e:	f7ff fdf3 	bl	8004c68 <GAP_DisconnectionComplete_CB>
    break;
 8005082:	e7fa      	b.n	800507a <HCI_Event_CB+0x32>
      switch(evt->subevent){
 8005084:	78eb      	ldrb	r3, [r5, #3]
 8005086:	2b01      	cmp	r3, #1
 8005088:	d1f7      	bne.n	800507a <HCI_Event_CB+0x32>
          GAP_ConnectionComplete_CB(cc->peer_bdaddr, cc->handle);
 800508a:	f8b5 1005 	ldrh.w	r1, [r5, #5]
 800508e:	f105 0009 	add.w	r0, r5, #9
 8005092:	f7ff fd95 	bl	8004bc0 <GAP_ConnectionComplete_CB>
        break;
 8005096:	e7f0      	b.n	800507a <HCI_Event_CB+0x32>
      switch(blue_evt->ecode){
 8005098:	f8b5 3003 	ldrh.w	r3, [r5, #3]
 800509c:	f640 4201 	movw	r2, #3073	; 0xc01
 80050a0:	4293      	cmp	r3, r2
 80050a2:	d008      	beq.n	80050b6 <HCI_Event_CB+0x6e>
 80050a4:	f640 4214 	movw	r2, #3092	; 0xc14
 80050a8:	4293      	cmp	r3, r2
 80050aa:	d1e6      	bne.n	800507a <HCI_Event_CB+0x32>
          Read_Request_CB(pr->attr_handle);                    
 80050ac:	f8b5 0007 	ldrh.w	r0, [r5, #7]
 80050b0:	f7ff ffb2 	bl	8005018 <Read_Request_CB>
        break;
 80050b4:	e7e1      	b.n	800507a <HCI_Event_CB+0x32>
          Attribute_Modified_CB(evt->attr_handle, evt->att_data,evt->data_length);
 80050b6:	7a6a      	ldrb	r2, [r5, #9]
 80050b8:	f105 010c 	add.w	r1, r5, #12
 80050bc:	f8b5 0007 	ldrh.w	r0, [r5, #7]
 80050c0:	f7ff ffb4 	bl	800502c <Attribute_Modified_CB>
        break;
 80050c4:	e7d9      	b.n	800507a <HCI_Event_CB+0x32>
 80050c6:	bf00      	nop
 80050c8:	0800e014 	.word	0x0800e014

080050cc <HCI_TL_SPI_Init>:
 *
 * @param  void* Pointer to configuration struct 
 * @retval int32_t Status
 */
int32_t HCI_TL_SPI_Init(void* pConf)
{
 80050cc:	b5f0      	push	{r4, r5, r6, r7, lr}
 80050ce:	b0c9      	sub	sp, #292	; 0x124
  GPIO_InitTypeDef GPIO_InitStruct;
  
  HAL_PWREx_EnableVddIO2();
 80050d0:	f002 fc9a 	bl	8007a08 <HAL_PWREx_EnableVddIO2>
  __HAL_RCC_GPIOH_CLK_ENABLE();
 80050d4:	4b2a      	ldr	r3, [pc, #168]	; (8005180 <HCI_TL_SPI_Init+0xb4>)
 80050d6:	6cda      	ldr	r2, [r3, #76]	; 0x4c
 80050d8:	f042 0280 	orr.w	r2, r2, #128	; 0x80
 80050dc:	64da      	str	r2, [r3, #76]	; 0x4c
 80050de:	6cda      	ldr	r2, [r3, #76]	; 0x4c
 80050e0:	f002 0280 	and.w	r2, r2, #128	; 0x80
 80050e4:	9200      	str	r2, [sp, #0]
 80050e6:	9a00      	ldr	r2, [sp, #0]
  __HAL_RCC_GPIOC_CLK_ENABLE();
 80050e8:	6cda      	ldr	r2, [r3, #76]	; 0x4c
 80050ea:	f042 0204 	orr.w	r2, r2, #4
 80050ee:	64da      	str	r2, [r3, #76]	; 0x4c
 80050f0:	6cda      	ldr	r2, [r3, #76]	; 0x4c
 80050f2:	f002 0204 	and.w	r2, r2, #4
 80050f6:	9201      	str	r2, [sp, #4]
 80050f8:	9a01      	ldr	r2, [sp, #4]
  __HAL_RCC_GPIOB_CLK_ENABLE();
 80050fa:	6cda      	ldr	r2, [r3, #76]	; 0x4c
 80050fc:	f042 0202 	orr.w	r2, r2, #2
 8005100:	64da      	str	r2, [r3, #76]	; 0x4c
 8005102:	6cdb      	ldr	r3, [r3, #76]	; 0x4c
 8005104:	f003 0302 	and.w	r3, r3, #2
 8005108:	9302      	str	r3, [sp, #8]
 800510a:	9b02      	ldr	r3, [sp, #8]
  
  /*Configure GPIO pin Output Level */
  HAL_GPIO_WritePin(HCI_TL_SPI_CS_PORT, HCI_TL_SPI_CS_PIN, GPIO_PIN_SET);
 800510c:	4e1d      	ldr	r6, [pc, #116]	; (8005184 <HCI_TL_SPI_Init+0xb8>)
 800510e:	2201      	movs	r2, #1
 8005110:	2104      	movs	r1, #4
 8005112:	4630      	mov	r0, r6
 8005114:	f001 ff07 	bl	8006f26 <HAL_GPIO_WritePin>
  
  /*Configure EXTI Line */
  GPIO_InitStruct.Pin = HCI_TL_SPI_EXTI_PIN;
 8005118:	2320      	movs	r3, #32
 800511a:	9343      	str	r3, [sp, #268]	; 0x10c
  GPIO_InitStruct.Mode = GPIO_MODE_IT_RISING;
 800511c:	4b1a      	ldr	r3, [pc, #104]	; (8005188 <HCI_TL_SPI_Init+0xbc>)
 800511e:	9344      	str	r3, [sp, #272]	; 0x110
  GPIO_InitStruct.Pull = GPIO_NOPULL;
 8005120:	2400      	movs	r4, #0
 8005122:	9445      	str	r4, [sp, #276]	; 0x114
  HAL_GPIO_Init(HCI_TL_SPI_EXTI_PORT, &GPIO_InitStruct);
 8005124:	a943      	add	r1, sp, #268	; 0x10c
 8005126:	4819      	ldr	r0, [pc, #100]	; (800518c <HCI_TL_SPI_Init+0xc0>)
 8005128:	f001 fd72 	bl	8006c10 <HAL_GPIO_Init>
   
  /*Configure CS & RESET Line */
  GPIO_InitStruct.Pin =  HCI_TL_RST_PIN ;
 800512c:	2501      	movs	r5, #1
 800512e:	9543      	str	r5, [sp, #268]	; 0x10c
  GPIO_InitStruct.Mode = GPIO_MODE_OUTPUT_PP;
 8005130:	9544      	str	r5, [sp, #272]	; 0x110
  GPIO_InitStruct.Pull = GPIO_NOPULL;
 8005132:	9445      	str	r4, [sp, #276]	; 0x114
  GPIO_InitStruct.Speed = GPIO_SPEED_FREQ_LOW;
 8005134:	9446      	str	r4, [sp, #280]	; 0x118
  HAL_GPIO_Init(HCI_TL_RST_PORT, &GPIO_InitStruct);
 8005136:	a943      	add	r1, sp, #268	; 0x10c
 8005138:	4815      	ldr	r0, [pc, #84]	; (8005190 <HCI_TL_SPI_Init+0xc4>)
 800513a:	f001 fd69 	bl	8006c10 <HAL_GPIO_Init>
  
  GPIO_InitStruct.Pin = HCI_TL_SPI_CS_PIN ;
 800513e:	2704      	movs	r7, #4
 8005140:	9743      	str	r7, [sp, #268]	; 0x10c
  GPIO_InitStruct.Mode = GPIO_MODE_OUTPUT_PP;
 8005142:	9544      	str	r5, [sp, #272]	; 0x110
  GPIO_InitStruct.Pull = GPIO_NOPULL;
 8005144:	9445      	str	r4, [sp, #276]	; 0x114
  GPIO_InitStruct.Speed = GPIO_SPEED_FREQ_LOW;
 8005146:	9446      	str	r4, [sp, #280]	; 0x118
  HAL_GPIO_Init(HCI_TL_SPI_CS_PORT, &GPIO_InitStruct); 
 8005148:	a943      	add	r1, sp, #268	; 0x10c
 800514a:	4630      	mov	r0, r6
 800514c:	f001 fd60 	bl	8006c10 <HAL_GPIO_Init>
  
  HAL_GPIO_WritePin(HCI_TL_SPI_CS_PORT, HCI_TL_SPI_CS_PIN, GPIO_PIN_SET);
 8005150:	462a      	mov	r2, r5
 8005152:	4639      	mov	r1, r7
 8005154:	4630      	mov	r0, r6
 8005156:	f001 fee6 	bl	8006f26 <HAL_GPIO_WritePin>

  XPRINTF("\r\nIntialised HCI SPI.\r\n");
 800515a:	f10d 0c0c 	add.w	ip, sp, #12
 800515e:	4c0d      	ldr	r4, [pc, #52]	; (8005194 <HCI_TL_SPI_Init+0xc8>)
 8005160:	cc0f      	ldmia	r4!, {r0, r1, r2, r3}
 8005162:	e8ac 000f 	stmia.w	ip!, {r0, r1, r2, r3}
 8005166:	e894 0003 	ldmia.w	r4, {r0, r1}
 800516a:	e88c 0003 	stmia.w	ip, {r0, r1}
 800516e:	2117      	movs	r1, #23
 8005170:	a803      	add	r0, sp, #12
 8005172:	f001 f95d 	bl	8006430 <CDC_Fill_Buffer>
    
  return BSP_SPI1_Init();
 8005176:	f001 fc01 	bl	800697c <BSP_SPI1_Init>
}
 800517a:	b049      	add	sp, #292	; 0x124
 800517c:	bdf0      	pop	{r4, r5, r6, r7, pc}
 800517e:	bf00      	nop
 8005180:	40021000 	.word	0x40021000
 8005184:	48000400 	.word	0x48000400
 8005188:	10110000 	.word	0x10110000
 800518c:	48000800 	.word	0x48000800
 8005190:	48001c00 	.word	0x48001c00
 8005194:	0800e028 	.word	0x0800e028

08005198 <HCI_TL_SPI_DeInit>:
 *
 * @param  None
 * @retval int32_t 0
 */
int32_t HCI_TL_SPI_DeInit(void)
{
 8005198:	b508      	push	{r3, lr}
  HAL_GPIO_DeInit(HCI_TL_SPI_EXTI_PORT, HCI_TL_SPI_EXTI_PIN); 
 800519a:	2120      	movs	r1, #32
 800519c:	4806      	ldr	r0, [pc, #24]	; (80051b8 <HCI_TL_SPI_DeInit+0x20>)
 800519e:	f001 fe23 	bl	8006de8 <HAL_GPIO_DeInit>
  HAL_GPIO_DeInit(HCI_TL_SPI_CS_PORT, HCI_TL_SPI_CS_PIN); 
 80051a2:	2104      	movs	r1, #4
 80051a4:	4805      	ldr	r0, [pc, #20]	; (80051bc <HCI_TL_SPI_DeInit+0x24>)
 80051a6:	f001 fe1f 	bl	8006de8 <HAL_GPIO_DeInit>
  HAL_GPIO_DeInit(HCI_TL_RST_PORT, HCI_TL_RST_PIN);   
 80051aa:	2101      	movs	r1, #1
 80051ac:	4804      	ldr	r0, [pc, #16]	; (80051c0 <HCI_TL_SPI_DeInit+0x28>)
 80051ae:	f001 fe1b 	bl	8006de8 <HAL_GPIO_DeInit>
  return 0;
}
 80051b2:	2000      	movs	r0, #0
 80051b4:	bd08      	pop	{r3, pc}
 80051b6:	bf00      	nop
 80051b8:	48000800 	.word	0x48000800
 80051bc:	48000400 	.word	0x48000400
 80051c0:	48001c00 	.word	0x48001c00

080051c4 <HCI_TL_SPI_Reset>:
 *
 * @param  None
 * @retval int32_t 0
 */
int32_t HCI_TL_SPI_Reset(void)
{
 80051c4:	b510      	push	{r4, lr}
  HAL_GPIO_WritePin(HCI_TL_RST_PORT, HCI_TL_RST_PIN, GPIO_PIN_RESET);
 80051c6:	4c09      	ldr	r4, [pc, #36]	; (80051ec <HCI_TL_SPI_Reset+0x28>)
 80051c8:	2200      	movs	r2, #0
 80051ca:	2101      	movs	r1, #1
 80051cc:	4620      	mov	r0, r4
 80051ce:	f001 feaa 	bl	8006f26 <HAL_GPIO_WritePin>
  HAL_Delay(5);
 80051d2:	2005      	movs	r0, #5
 80051d4:	f000 fdb2 	bl	8005d3c <HAL_Delay>
  HAL_GPIO_WritePin(HCI_TL_RST_PORT, HCI_TL_RST_PIN, GPIO_PIN_SET);
 80051d8:	2201      	movs	r2, #1
 80051da:	4611      	mov	r1, r2
 80051dc:	4620      	mov	r0, r4
 80051de:	f001 fea2 	bl	8006f26 <HAL_GPIO_WritePin>
  HAL_Delay(5);    
 80051e2:	2005      	movs	r0, #5
 80051e4:	f000 fdaa 	bl	8005d3c <HAL_Delay>
  return 0;
}  
 80051e8:	2000      	movs	r0, #0
 80051ea:	bd10      	pop	{r4, pc}
 80051ec:	48001c00 	.word	0x48001c00

080051f0 <HCI_TL_SPI_Receive>:
 * @param  buffer : Buffer where data from SPI are stored
 * @param  size   : Buffer size
 * @retval int32_t: Number of read bytes
 */
int32_t HCI_TL_SPI_Receive(uint8_t* buffer, uint16_t size)
{
 80051f0:	b570      	push	{r4, r5, r6, lr}
 80051f2:	b084      	sub	sp, #16
 80051f4:	4606      	mov	r6, r0
 80051f6:	460d      	mov	r5, r1
  uint16_t byte_count;
  uint8_t len = 0;
  uint8_t char_ff = 0xff;
 80051f8:	23ff      	movs	r3, #255	; 0xff
 80051fa:	f88d 300f 	strb.w	r3, [sp, #15]
  volatile uint8_t read_char;

  uint8_t header_master[HEADER_SIZE] = {0x0b, 0x00, 0x00, 0x00, 0x00};
 80051fe:	4b1d      	ldr	r3, [pc, #116]	; (8005274 <HCI_TL_SPI_Receive+0x84>)
 8005200:	e893 0003 	ldmia.w	r3, {r0, r1}
 8005204:	9002      	str	r0, [sp, #8]
 8005206:	f88d 100c 	strb.w	r1, [sp, #12]
  uint8_t header_slave[HEADER_SIZE];

  /* CS reset */
  HAL_GPIO_WritePin(HCI_TL_SPI_CS_PORT, HCI_TL_SPI_CS_PIN, GPIO_PIN_RESET);
 800520a:	2200      	movs	r2, #0
 800520c:	2104      	movs	r1, #4
 800520e:	481a      	ldr	r0, [pc, #104]	; (8005278 <HCI_TL_SPI_Receive+0x88>)
 8005210:	f001 fe89 	bl	8006f26 <HAL_GPIO_WritePin>

  /* Read the header */  
  BSP_SPI1_SendRecv(header_master, header_slave, HEADER_SIZE);
 8005214:	2205      	movs	r2, #5
 8005216:	4669      	mov	r1, sp
 8005218:	a802      	add	r0, sp, #8
 800521a:	f001 fb73 	bl	8006904 <BSP_SPI1_SendRecv>
  	
  if(header_slave[0] == 0x02) 
 800521e:	f89d 3000 	ldrb.w	r3, [sp]
 8005222:	2b02      	cmp	r3, #2
 8005224:	d008      	beq.n	8005238 <HCI_TL_SPI_Receive+0x48>
  uint8_t len = 0;
 8005226:	2400      	movs	r4, #0
        buffer[len] = read_char;
      }      
    }    
  }
  /* Release CS line */
  HAL_GPIO_WritePin(HCI_TL_SPI_CS_PORT, HCI_TL_SPI_CS_PIN, GPIO_PIN_SET);
 8005228:	2201      	movs	r2, #1
 800522a:	2104      	movs	r1, #4
 800522c:	4812      	ldr	r0, [pc, #72]	; (8005278 <HCI_TL_SPI_Receive+0x88>)
 800522e:	f001 fe7a 	bl	8006f26 <HAL_GPIO_WritePin>
    PRINT_CSV("\n");
  }
#endif
  
  return len;  
}
 8005232:	4620      	mov	r0, r4
 8005234:	b004      	add	sp, #16
 8005236:	bd70      	pop	{r4, r5, r6, pc}
    byte_count = (header_slave[4] << 8)| header_slave[3];
 8005238:	f89d 2004 	ldrb.w	r2, [sp, #4]
 800523c:	f89d 3003 	ldrb.w	r3, [sp, #3]
    if(byte_count > 0) {
 8005240:	ea53 2302 	orrs.w	r3, r3, r2, lsl #8
 8005244:	d014      	beq.n	8005270 <HCI_TL_SPI_Receive+0x80>
      if (byte_count > size){
 8005246:	42ab      	cmp	r3, r5
 8005248:	d800      	bhi.n	800524c <HCI_TL_SPI_Receive+0x5c>
    byte_count = (header_slave[4] << 8)| header_slave[3];
 800524a:	461d      	mov	r5, r3
      for(len = 0; len < byte_count; len++)
 800524c:	2400      	movs	r4, #0
 800524e:	e00b      	b.n	8005268 <HCI_TL_SPI_Receive+0x78>
        BSP_SPI1_SendRecv(&char_ff, (uint8_t*)&read_char, 1);  
 8005250:	2201      	movs	r2, #1
 8005252:	f10d 010e 	add.w	r1, sp, #14
 8005256:	f10d 000f 	add.w	r0, sp, #15
 800525a:	f001 fb53 	bl	8006904 <BSP_SPI1_SendRecv>
        buffer[len] = read_char;
 800525e:	f89d 300e 	ldrb.w	r3, [sp, #14]
 8005262:	5533      	strb	r3, [r6, r4]
      for(len = 0; len < byte_count; len++)
 8005264:	3401      	adds	r4, #1
 8005266:	b2e4      	uxtb	r4, r4
 8005268:	b2a3      	uxth	r3, r4
 800526a:	42ab      	cmp	r3, r5
 800526c:	d3f0      	bcc.n	8005250 <HCI_TL_SPI_Receive+0x60>
 800526e:	e7db      	b.n	8005228 <HCI_TL_SPI_Receive+0x38>
  uint8_t len = 0;
 8005270:	2400      	movs	r4, #0
 8005272:	e7d9      	b.n	8005228 <HCI_TL_SPI_Receive+0x38>
 8005274:	0800df18 	.word	0x0800df18
 8005278:	48000400 	.word	0x48000400

0800527c <HCI_TL_SPI_Send>:
 * @param  buffer : data buffer to be written
 * @param  size   : size of first data buffer to be written
 * @retval int32_t: Number of read bytes
 */
int32_t HCI_TL_SPI_Send(uint8_t* buffer, uint16_t size)
{  
 800527c:	b5f0      	push	{r4, r5, r6, r7, lr}
 800527e:	b085      	sub	sp, #20
 8005280:	4607      	mov	r7, r0
 8005282:	460e      	mov	r6, r1
  int32_t result;  
  
  uint8_t header_master[HEADER_SIZE] = {0x0a, 0x00, 0x00, 0x00, 0x00};
 8005284:	4b1c      	ldr	r3, [pc, #112]	; (80052f8 <HCI_TL_SPI_Send+0x7c>)
 8005286:	e893 0003 	ldmia.w	r3, {r0, r1}
 800528a:	9002      	str	r0, [sp, #8]
 800528c:	f88d 100c 	strb.w	r1, [sp, #12]
  uint8_t header_slave[HEADER_SIZE];
  
  static uint8_t read_char_buf[MAX_BUFFER_SIZE];
  uint32_t tickstart = HAL_GetTick();
 8005290:	f001 fc4c 	bl	8006b2c <HAL_GetTick>
 8005294:	4605      	mov	r5, r0
 8005296:	e011      	b.n	80052bc <HCI_TL_SPI_Send+0x40>
    BSP_SPI1_SendRecv(header_master, header_slave, HEADER_SIZE);
    
    if(header_slave[0] == 0x02) 
    {
      /* SPI is ready */
      if(header_slave[1] >= size) 
 8005298:	f89d 3001 	ldrb.w	r3, [sp, #1]
 800529c:	42b3      	cmp	r3, r6
 800529e:	d21e      	bcs.n	80052de <HCI_TL_SPI_Send+0x62>
        BSP_SPI1_SendRecv(buffer, read_char_buf, size);
      } 
      else 
      {
        /* Buffer is too small */
        result = -2;
 80052a0:	f06f 0401 	mvn.w	r4, #1
      /* SPI is not ready */
      result = -1;
    }
    
    /* Release CS line */
    HAL_GPIO_WritePin(HCI_TL_SPI_CS_PORT, HCI_TL_SPI_CS_PIN, GPIO_PIN_SET);
 80052a4:	2201      	movs	r2, #1
 80052a6:	2104      	movs	r1, #4
 80052a8:	4814      	ldr	r0, [pc, #80]	; (80052fc <HCI_TL_SPI_Send+0x80>)
 80052aa:	f001 fe3c 	bl	8006f26 <HAL_GPIO_WritePin>
    
    if((HAL_GetTick() - tickstart) > TIMEOUT_DURATION)
 80052ae:	f001 fc3d 	bl	8006b2c <HAL_GetTick>
 80052b2:	1b40      	subs	r0, r0, r5
 80052b4:	280f      	cmp	r0, #15
 80052b6:	d819      	bhi.n	80052ec <HCI_TL_SPI_Send+0x70>
    {
      result = -3;
      break;
    }
  } while(result < 0);
 80052b8:	2c00      	cmp	r4, #0
 80052ba:	da19      	bge.n	80052f0 <HCI_TL_SPI_Send+0x74>
    HAL_GPIO_WritePin(HCI_TL_SPI_CS_PORT, HCI_TL_SPI_CS_PIN, GPIO_PIN_RESET);
 80052bc:	2200      	movs	r2, #0
 80052be:	2104      	movs	r1, #4
 80052c0:	480e      	ldr	r0, [pc, #56]	; (80052fc <HCI_TL_SPI_Send+0x80>)
 80052c2:	f001 fe30 	bl	8006f26 <HAL_GPIO_WritePin>
    BSP_SPI1_SendRecv(header_master, header_slave, HEADER_SIZE);
 80052c6:	2205      	movs	r2, #5
 80052c8:	4669      	mov	r1, sp
 80052ca:	a802      	add	r0, sp, #8
 80052cc:	f001 fb1a 	bl	8006904 <BSP_SPI1_SendRecv>
    if(header_slave[0] == 0x02) 
 80052d0:	f89d 3000 	ldrb.w	r3, [sp]
 80052d4:	2b02      	cmp	r3, #2
 80052d6:	d0df      	beq.n	8005298 <HCI_TL_SPI_Send+0x1c>
      result = -1;
 80052d8:	f04f 34ff 	mov.w	r4, #4294967295
 80052dc:	e7e2      	b.n	80052a4 <HCI_TL_SPI_Send+0x28>
        BSP_SPI1_SendRecv(buffer, read_char_buf, size);
 80052de:	4632      	mov	r2, r6
 80052e0:	4907      	ldr	r1, [pc, #28]	; (8005300 <HCI_TL_SPI_Send+0x84>)
 80052e2:	4638      	mov	r0, r7
 80052e4:	f001 fb0e 	bl	8006904 <BSP_SPI1_SendRecv>
    result = 0;
 80052e8:	2400      	movs	r4, #0
 80052ea:	e7db      	b.n	80052a4 <HCI_TL_SPI_Send+0x28>
      result = -3;
 80052ec:	f06f 0402 	mvn.w	r4, #2
  
  return result;
}
 80052f0:	4620      	mov	r0, r4
 80052f2:	b005      	add	sp, #20
 80052f4:	bdf0      	pop	{r4, r5, r6, r7, pc}
 80052f6:	bf00      	nop
 80052f8:	0800df20 	.word	0x0800df20
 80052fc:	48000400 	.word	0x48000400
 8005300:	20000218 	.word	0x20000218

08005304 <IsDataAvailable>:
 *
 * @param  None
 * @retval int32_t: 1 if data are present, 0 otherwise
 */
static int32_t IsDataAvailable(void)
{
 8005304:	b508      	push	{r3, lr}
  return (HAL_GPIO_ReadPin(HCI_TL_SPI_EXTI_PORT, HCI_TL_SPI_EXTI_PIN) == GPIO_PIN_SET);
 8005306:	2120      	movs	r1, #32
 8005308:	4803      	ldr	r0, [pc, #12]	; (8005318 <IsDataAvailable+0x14>)
 800530a:	f001 fe05 	bl	8006f18 <HAL_GPIO_ReadPin>
} 
 800530e:	2801      	cmp	r0, #1
 8005310:	bf14      	ite	ne
 8005312:	2000      	movne	r0, #0
 8005314:	2001      	moveq	r0, #1
 8005316:	bd08      	pop	{r3, pc}
 8005318:	48000800 	.word	0x48000800

0800531c <hci_tl_lowlevel_init>:
 *
 * @param  None
 * @retval None
 */ 
void hci_tl_lowlevel_init(void)
{
 800531c:	b500      	push	{lr}
 800531e:	b089      	sub	sp, #36	; 0x24
  /* USER CODE END hci_tl_lowlevel_init 1 */
#ifdef HCI_TL
  tHciIO fops;  
  
  /* Register IO bus services */
  fops.Init    = HCI_TL_SPI_Init;
 8005320:	4b0c      	ldr	r3, [pc, #48]	; (8005354 <hci_tl_lowlevel_init+0x38>)
 8005322:	9301      	str	r3, [sp, #4]
  fops.DeInit  = HCI_TL_SPI_DeInit;
 8005324:	4b0c      	ldr	r3, [pc, #48]	; (8005358 <hci_tl_lowlevel_init+0x3c>)
 8005326:	9302      	str	r3, [sp, #8]
  fops.Send    = HCI_TL_SPI_Send;
 8005328:	4b0c      	ldr	r3, [pc, #48]	; (800535c <hci_tl_lowlevel_init+0x40>)
 800532a:	9305      	str	r3, [sp, #20]
  fops.Receive = HCI_TL_SPI_Receive;
 800532c:	4b0c      	ldr	r3, [pc, #48]	; (8005360 <hci_tl_lowlevel_init+0x44>)
 800532e:	9304      	str	r3, [sp, #16]
  fops.Reset   = HCI_TL_SPI_Reset;
 8005330:	4b0c      	ldr	r3, [pc, #48]	; (8005364 <hci_tl_lowlevel_init+0x48>)
 8005332:	9303      	str	r3, [sp, #12]
  fops.GetTick = BSP_GetTick;
 8005334:	4b0c      	ldr	r3, [pc, #48]	; (8005368 <hci_tl_lowlevel_init+0x4c>)
 8005336:	9307      	str	r3, [sp, #28]
  
  hci_register_io_bus (&fops);
 8005338:	a801      	add	r0, sp, #4
 800533a:	f005 fe31 	bl	800afa0 <hci_register_io_bus>
  /* USER CODE END hci_tl_lowlevel_init 2 */
  
  /* Register event irq handler */
  //HAL_EXTI_GetHandle(&hexti5, EXTI_LINE_5);
  //HAL_EXTI_RegisterCallback(&hexti5, HAL_EXTI_COMMON_CB_ID, hci_tl_lowlevel_isr);
  HAL_NVIC_SetPriority(EXTI9_5_IRQn, 0x03, 0x00);
 800533e:	2200      	movs	r2, #0
 8005340:	2103      	movs	r1, #3
 8005342:	2017      	movs	r0, #23
 8005344:	f001 fc0a 	bl	8006b5c <HAL_NVIC_SetPriority>
  HAL_NVIC_EnableIRQ(EXTI9_5_IRQn);
 8005348:	2017      	movs	r0, #23
 800534a:	f001 fc3f 	bl	8006bcc <HAL_NVIC_EnableIRQ>

  /* USER CODE BEGIN hci_tl_lowlevel_init 3 */
  
  /* USER CODE END hci_tl_lowlevel_init 3 */

}
 800534e:	b009      	add	sp, #36	; 0x24
 8005350:	f85d fb04 	ldr.w	pc, [sp], #4
 8005354:	080050cd 	.word	0x080050cd
 8005358:	08005199 	.word	0x08005199
 800535c:	0800527d 	.word	0x0800527d
 8005360:	080051f1 	.word	0x080051f1
 8005364:	080051c5 	.word	0x080051c5
 8005368:	08006931 	.word	0x08006931

0800536c <hci_tl_lowlevel_isr>:
  *
  * @param  None
  * @retval None
  */
void hci_tl_lowlevel_isr(void)
{
 800536c:	b508      	push	{r3, lr}
  /* Call hci_notify_asynch_evt() */
#ifdef HCI_TL
  while(IsDataAvailable())
 800536e:	f7ff ffc9 	bl	8005304 <IsDataAvailable>
 8005372:	b120      	cbz	r0, 800537e <hci_tl_lowlevel_isr+0x12>
  {        
    if(hci_notify_asynch_evt(NULL)) {
 8005374:	2000      	movs	r0, #0
 8005376:	f005 feed 	bl	800b154 <hci_notify_asynch_evt>
 800537a:	2800      	cmp	r0, #0
 800537c:	d0f7      	beq.n	800536e <hci_tl_lowlevel_isr+0x2>
#endif /* HCI_TL */

  /* USER CODE BEGIN hci_tl_lowlevel_isr */

  /* USER CODE END hci_tl_lowlevel_isr */ 
}
 800537e:	bd08      	pop	{r3, pc}

08005380 <SystemClock_Config>:
  *            PLL_Q                          = 4
  *            Flash Latency(WS)              = 4
  * @param  None
  * @retval None
  */
static void SystemClock_Config(void) {
 8005380:	b510      	push	{r4, lr}
 8005382:	b0ba      	sub	sp, #232	; 0xe8
  RCC_ClkInitTypeDef RCC_ClkInitStruct = { 0 };
 8005384:	2400      	movs	r4, #0
 8005386:	9435      	str	r4, [sp, #212]	; 0xd4
 8005388:	9436      	str	r4, [sp, #216]	; 0xd8
 800538a:	9437      	str	r4, [sp, #220]	; 0xdc
 800538c:	9438      	str	r4, [sp, #224]	; 0xe0
 800538e:	9439      	str	r4, [sp, #228]	; 0xe4
  RCC_OscInitTypeDef RCC_OscInitStruct = { 0 };
 8005390:	2244      	movs	r2, #68	; 0x44
 8005392:	4621      	mov	r1, r4
 8005394:	a824      	add	r0, sp, #144	; 0x90
 8005396:	f008 f9db 	bl	800d750 <memset>
  RCC_PeriphCLKInitTypeDef PeriphClkInitStruct = { 0 };
 800539a:	2288      	movs	r2, #136	; 0x88
 800539c:	4621      	mov	r1, r4
 800539e:	a802      	add	r0, sp, #8
 80053a0:	f008 f9d6 	bl	800d750 <memset>

  __HAL_RCC_PWR_CLK_ENABLE();
 80053a4:	4b2a      	ldr	r3, [pc, #168]	; (8005450 <SystemClock_Config+0xd0>)
 80053a6:	6d9a      	ldr	r2, [r3, #88]	; 0x58
 80053a8:	f042 5280 	orr.w	r2, r2, #268435456	; 0x10000000
 80053ac:	659a      	str	r2, [r3, #88]	; 0x58
 80053ae:	6d9b      	ldr	r3, [r3, #88]	; 0x58
 80053b0:	f003 5380 	and.w	r3, r3, #268435456	; 0x10000000
 80053b4:	9301      	str	r3, [sp, #4]
 80053b6:	9b01      	ldr	r3, [sp, #4]
  HAL_PWR_EnableBkUpAccess();
 80053b8:	f002 fb0e 	bl	80079d8 <HAL_PWR_EnableBkUpAccess>

  /* Enable the LSE Oscilator */
  RCC_OscInitStruct.OscillatorType = RCC_OSCILLATORTYPE_LSE;
 80053bc:	2304      	movs	r3, #4
 80053be:	9324      	str	r3, [sp, #144]	; 0x90
  RCC_OscInitStruct.LSEState = RCC_LSE_ON;
 80053c0:	2301      	movs	r3, #1
 80053c2:	9326      	str	r3, [sp, #152]	; 0x98
  if (HAL_RCC_OscConfig(&RCC_OscInitStruct) != HAL_OK) {
 80053c4:	a824      	add	r0, sp, #144	; 0x90
 80053c6:	f002 fbc9 	bl	8007b5c <HAL_RCC_OscConfig>
 80053ca:	b100      	cbz	r0, 80053ce <SystemClock_Config+0x4e>
    while (1);
 80053cc:	e7fe      	b.n	80053cc <SystemClock_Config+0x4c>
  }

  /* Enable the CSS interrupt in case LSE signal is corrupted or not present */
  HAL_RCCEx_DisableLSECSS();
 80053ce:	f003 fb17 	bl	8008a00 <HAL_RCCEx_DisableLSECSS>

  /* Enable MSI Oscillator and activate PLL with MSI as source */
  RCC_OscInitStruct.OscillatorType = RCC_OSCILLATORTYPE_MSI;
 80053d2:	2310      	movs	r3, #16
 80053d4:	9324      	str	r3, [sp, #144]	; 0x90
  RCC_OscInitStruct.MSIState = RCC_MSI_ON;
 80053d6:	2301      	movs	r3, #1
 80053d8:	932a      	str	r3, [sp, #168]	; 0xa8
  RCC_OscInitStruct.HSICalibrationValue = RCC_MSICALIBRATION_DEFAULT;
 80053da:	2200      	movs	r2, #0
 80053dc:	9228      	str	r2, [sp, #160]	; 0xa0
  RCC_OscInitStruct.MSIClockRange = RCC_MSIRANGE_11;
 80053de:	22b0      	movs	r2, #176	; 0xb0
 80053e0:	922c      	str	r2, [sp, #176]	; 0xb0
  RCC_OscInitStruct.PLL.PLLState = RCC_PLL_ON;
 80053e2:	2202      	movs	r2, #2
 80053e4:	922e      	str	r2, [sp, #184]	; 0xb8
  RCC_OscInitStruct.PLL.PLLSource = RCC_PLLSOURCE_MSI;
 80053e6:	932f      	str	r3, [sp, #188]	; 0xbc
  RCC_OscInitStruct.PLL.PLLM = 6;
 80053e8:	2306      	movs	r3, #6
 80053ea:	9330      	str	r3, [sp, #192]	; 0xc0
  RCC_OscInitStruct.PLL.PLLN = 40;
 80053ec:	2328      	movs	r3, #40	; 0x28
 80053ee:	9331      	str	r3, [sp, #196]	; 0xc4
  RCC_OscInitStruct.PLL.PLLP = 7;
 80053f0:	2307      	movs	r3, #7
 80053f2:	9332      	str	r3, [sp, #200]	; 0xc8
  RCC_OscInitStruct.PLL.PLLQ = 4;
 80053f4:	2304      	movs	r3, #4
 80053f6:	9333      	str	r3, [sp, #204]	; 0xcc
  RCC_OscInitStruct.PLL.PLLR = 4;
 80053f8:	9334      	str	r3, [sp, #208]	; 0xd0
  if (HAL_RCC_OscConfig(&RCC_OscInitStruct) != HAL_OK) {
 80053fa:	a824      	add	r0, sp, #144	; 0x90
 80053fc:	f002 fbae 	bl	8007b5c <HAL_RCC_OscConfig>
 8005400:	b100      	cbz	r0, 8005404 <SystemClock_Config+0x84>
    while (1);
 8005402:	e7fe      	b.n	8005402 <SystemClock_Config+0x82>
  }

  PeriphClkInitStruct.PeriphClockSelection = RCC_PERIPHCLK_RTC;
 8005404:	f44f 3300 	mov.w	r3, #131072	; 0x20000
 8005408:	9302      	str	r3, [sp, #8]
  PeriphClkInitStruct.RTCClockSelection = RCC_RTCCLKSOURCE_LSE;
 800540a:	f44f 7380 	mov.w	r3, #256	; 0x100
 800540e:	9323      	str	r3, [sp, #140]	; 0x8c
  if (HAL_RCCEx_PeriphCLKConfig(&PeriphClkInitStruct) != HAL_OK) {
 8005410:	a802      	add	r0, sp, #8
 8005412:	f003 f8cb 	bl	80085ac <HAL_RCCEx_PeriphCLKConfig>
 8005416:	b100      	cbz	r0, 800541a <SystemClock_Config+0x9a>
    while (1);
 8005418:	e7fe      	b.n	8005418 <SystemClock_Config+0x98>
  }

  /* Enable MSI Auto-calibration through LSE */
  HAL_RCCEx_EnableMSIPLLMode();
 800541a:	f003 faff 	bl	8008a1c <HAL_RCCEx_EnableMSIPLLMode>

  /* Select MSI output as USB clock source */
  PeriphClkInitStruct.PeriphClockSelection = RCC_PERIPHCLK_USB;
 800541e:	f44f 5300 	mov.w	r3, #8192	; 0x2000
 8005422:	9302      	str	r3, [sp, #8]
  PeriphClkInitStruct.UsbClockSelection = RCC_USBCLKSOURCE_MSI;
 8005424:	f04f 6340 	mov.w	r3, #201326592	; 0xc000000
 8005428:	931d      	str	r3, [sp, #116]	; 0x74
  HAL_RCCEx_PeriphCLKConfig(&PeriphClkInitStruct);
 800542a:	a802      	add	r0, sp, #8
 800542c:	f003 f8be 	bl	80085ac <HAL_RCCEx_PeriphCLKConfig>

  /* Select PLL as system clock source and configure the HCLK, PCLK1 and PCLK2
  clocks dividers */
  RCC_ClkInitStruct.ClockType = (RCC_CLOCKTYPE_SYSCLK | RCC_CLOCKTYPE_HCLK | RCC_CLOCKTYPE_PCLK1 | RCC_CLOCKTYPE_PCLK2);
 8005430:	230f      	movs	r3, #15
 8005432:	9335      	str	r3, [sp, #212]	; 0xd4
  RCC_ClkInitStruct.SYSCLKSource = RCC_SYSCLKSOURCE_PLLCLK;
 8005434:	2303      	movs	r3, #3
 8005436:	9336      	str	r3, [sp, #216]	; 0xd8
  RCC_ClkInitStruct.AHBCLKDivider = RCC_SYSCLK_DIV1;
 8005438:	2300      	movs	r3, #0
 800543a:	9337      	str	r3, [sp, #220]	; 0xdc
  RCC_ClkInitStruct.APB1CLKDivider = RCC_HCLK_DIV1;
 800543c:	9338      	str	r3, [sp, #224]	; 0xe0
  RCC_ClkInitStruct.APB2CLKDivider = RCC_HCLK_DIV1;
 800543e:	9339      	str	r3, [sp, #228]	; 0xe4
  if (HAL_RCC_ClockConfig(&RCC_ClkInitStruct, FLASH_LATENCY_4) != HAL_OK) {
 8005440:	2104      	movs	r1, #4
 8005442:	a835      	add	r0, sp, #212	; 0xd4
 8005444:	f002 fea0 	bl	8008188 <HAL_RCC_ClockConfig>
 8005448:	b100      	cbz	r0, 800544c <SystemClock_Config+0xcc>
    while (1);
 800544a:	e7fe      	b.n	800544a <SystemClock_Config+0xca>
  }
}
 800544c:	b03a      	add	sp, #232	; 0xe8
 800544e:	bd10      	pop	{r4, pc}
 8005450:	40021000 	.word	0x40021000

08005454 <BSP_LSM303AGR_WriteReg_Acc>:
static int32_t BSP_LSM303AGR_WriteReg_Acc(uint16_t Reg, uint8_t* pdata, uint16_t len) {
 8005454:	b570      	push	{r4, r5, r6, lr}
 8005456:	b082      	sub	sp, #8
 8005458:	460d      	mov	r5, r1
 800545a:	4614      	mov	r4, r2
  uint8_t dataReg = (uint8_t)Reg;
 800545c:	f88d 0007 	strb.w	r0, [sp, #7]
  LSM_ACC_CS_LOW();
 8005460:	2200      	movs	r2, #0
 8005462:	2110      	movs	r1, #16
 8005464:	480f      	ldr	r0, [pc, #60]	; (80054a4 <BSP_LSM303AGR_WriteReg_Acc+0x50>)
 8005466:	f001 fd5e 	bl	8006f26 <HAL_GPIO_WritePin>
  if (BSP_SPI2_Send(&dataReg, 1) != 1) {
 800546a:	2101      	movs	r1, #1
 800546c:	f10d 0007 	add.w	r0, sp, #7
 8005470:	f001 fa36 	bl	80068e0 <BSP_SPI2_Send>
 8005474:	2801      	cmp	r0, #1
 8005476:	d00f      	beq.n	8005498 <BSP_LSM303AGR_WriteReg_Acc+0x44>
    ret = BSP_ERROR_UNKNOWN_FAILURE;
 8005478:	f06f 0605 	mvn.w	r6, #5
  if (BSP_SPI2_Send(pdata, len) != len) {
 800547c:	4621      	mov	r1, r4
 800547e:	4628      	mov	r0, r5
 8005480:	f001 fa2e 	bl	80068e0 <BSP_SPI2_Send>
 8005484:	42a0      	cmp	r0, r4
 8005486:	d109      	bne.n	800549c <BSP_LSM303AGR_WriteReg_Acc+0x48>
  LSM_ACC_CS_HIGH();
 8005488:	2201      	movs	r2, #1
 800548a:	2110      	movs	r1, #16
 800548c:	4805      	ldr	r0, [pc, #20]	; (80054a4 <BSP_LSM303AGR_WriteReg_Acc+0x50>)
 800548e:	f001 fd4a 	bl	8006f26 <HAL_GPIO_WritePin>
}
 8005492:	4630      	mov	r0, r6
 8005494:	b002      	add	sp, #8
 8005496:	bd70      	pop	{r4, r5, r6, pc}
  int32_t ret = BSP_ERROR_NONE;
 8005498:	2600      	movs	r6, #0
 800549a:	e7ef      	b.n	800547c <BSP_LSM303AGR_WriteReg_Acc+0x28>
    ret = BSP_ERROR_UNKNOWN_FAILURE;
 800549c:	f06f 0605 	mvn.w	r6, #5
 80054a0:	e7f2      	b.n	8005488 <BSP_LSM303AGR_WriteReg_Acc+0x34>
 80054a2:	bf00      	nop
 80054a4:	48000800 	.word	0x48000800

080054a8 <startAcc>:
static void startAcc() { //#CS704 - Write SPI commands to initiliase Accelerometer
 80054a8:	b510      	push	{r4, lr}
 80054aa:	b082      	sub	sp, #8
  inData = 0b00000000; // No Filtering
 80054ac:	2400      	movs	r4, #0
 80054ae:	f88d 4007 	strb.w	r4, [sp, #7]
  BSP_LSM303AGR_WriteReg_Acc(0x21, &inData, 1);
 80054b2:	2201      	movs	r2, #1
 80054b4:	f10d 0107 	add.w	r1, sp, #7
 80054b8:	2021      	movs	r0, #33	; 0x21
 80054ba:	f7ff ffcb 	bl	8005454 <BSP_LSM303AGR_WriteReg_Acc>
  inData = 0b00000000; // No inturrepts, or fifo watermark
 80054be:	f88d 4007 	strb.w	r4, [sp, #7]
  BSP_LSM303AGR_WriteReg_Acc(0x22, &inData, 1);
 80054c2:	2201      	movs	r2, #1
 80054c4:	f10d 0107 	add.w	r1, sp, #7
 80054c8:	2022      	movs	r0, #34	; 0x22
 80054ca:	f7ff ffc3 	bl	8005454 <BSP_LSM303AGR_WriteReg_Acc>
  inData = 0b10001001; // non con write, Big Endian,  +- 2g, High Accuracy Mode, No Self Test, No 3-Wire SPI Interface
 80054ce:	2389      	movs	r3, #137	; 0x89
 80054d0:	f88d 3007 	strb.w	r3, [sp, #7]
  BSP_LSM303AGR_WriteReg_Acc(0x23, &inData, 1);
 80054d4:	2201      	movs	r2, #1
 80054d6:	f10d 0107 	add.w	r1, sp, #7
 80054da:	2023      	movs	r0, #35	; 0x23
 80054dc:	f7ff ffba 	bl	8005454 <BSP_LSM303AGR_WriteReg_Acc>
  inData = 0b00000000; // Dont Reboot Memory, FIFO Disabled, null, null, int request not latched, no 4d, no latch, no 4d
 80054e0:	f88d 4007 	strb.w	r4, [sp, #7]
  BSP_LSM303AGR_WriteReg_Acc(0x24, &inData, 1);
 80054e4:	2201      	movs	r2, #1
 80054e6:	f10d 0107 	add.w	r1, sp, #7
 80054ea:	2024      	movs	r0, #36	; 0x24
 80054ec:	f7ff ffb2 	bl	8005454 <BSP_LSM303AGR_WriteReg_Acc>
  inData = 0b00000000; // No interrupts
 80054f0:	f88d 4007 	strb.w	r4, [sp, #7]
  BSP_LSM303AGR_WriteReg_Acc(0x25, &inData, 1);
 80054f4:	2201      	movs	r2, #1
 80054f6:	f10d 0107 	add.w	r1, sp, #7
 80054fa:	2025      	movs	r0, #37	; 0x25
 80054fc:	f7ff ffaa 	bl	8005454 <BSP_LSM303AGR_WriteReg_Acc>
  inData = 0b00100111; // 10Hz, Not Low Power, all Axii enabled
 8005500:	2327      	movs	r3, #39	; 0x27
 8005502:	f88d 3007 	strb.w	r3, [sp, #7]
  BSP_LSM303AGR_WriteReg_Acc(0x20, &inData, 1);
 8005506:	2201      	movs	r2, #1
 8005508:	f10d 0107 	add.w	r1, sp, #7
 800550c:	2020      	movs	r0, #32
 800550e:	f7ff ffa1 	bl	8005454 <BSP_LSM303AGR_WriteReg_Acc>
}
 8005512:	b002      	add	sp, #8
 8005514:	bd10      	pop	{r4, pc}
	...

08005518 <BSP_LSM303AGR_WriteReg_Mag>:
static int32_t BSP_LSM303AGR_WriteReg_Mag(uint16_t Reg, uint8_t* pdata, uint16_t len) {
 8005518:	b570      	push	{r4, r5, r6, lr}
 800551a:	b082      	sub	sp, #8
 800551c:	460d      	mov	r5, r1
 800551e:	4614      	mov	r4, r2
  uint8_t dataReg = (uint8_t)Reg;
 8005520:	f88d 0007 	strb.w	r0, [sp, #7]
  LSM_MAG_CS_LOW();
 8005524:	2200      	movs	r2, #0
 8005526:	2102      	movs	r1, #2
 8005528:	480f      	ldr	r0, [pc, #60]	; (8005568 <BSP_LSM303AGR_WriteReg_Mag+0x50>)
 800552a:	f001 fcfc 	bl	8006f26 <HAL_GPIO_WritePin>
  if (BSP_SPI2_Send(&dataReg, 1) != 1) {
 800552e:	2101      	movs	r1, #1
 8005530:	f10d 0007 	add.w	r0, sp, #7
 8005534:	f001 f9d4 	bl	80068e0 <BSP_SPI2_Send>
 8005538:	2801      	cmp	r0, #1
 800553a:	d00f      	beq.n	800555c <BSP_LSM303AGR_WriteReg_Mag+0x44>
    ret = BSP_ERROR_UNKNOWN_FAILURE;
 800553c:	f06f 0605 	mvn.w	r6, #5
  if (BSP_SPI2_Send(pdata, len) != len) {
 8005540:	4621      	mov	r1, r4
 8005542:	4628      	mov	r0, r5
 8005544:	f001 f9cc 	bl	80068e0 <BSP_SPI2_Send>
 8005548:	42a0      	cmp	r0, r4
 800554a:	d109      	bne.n	8005560 <BSP_LSM303AGR_WriteReg_Mag+0x48>
  LSM_MAG_CS_HIGH();
 800554c:	2201      	movs	r2, #1
 800554e:	2102      	movs	r1, #2
 8005550:	4805      	ldr	r0, [pc, #20]	; (8005568 <BSP_LSM303AGR_WriteReg_Mag+0x50>)
 8005552:	f001 fce8 	bl	8006f26 <HAL_GPIO_WritePin>
}
 8005556:	4630      	mov	r0, r6
 8005558:	b002      	add	sp, #8
 800555a:	bd70      	pop	{r4, r5, r6, pc}
  int32_t ret = BSP_ERROR_NONE;
 800555c:	2600      	movs	r6, #0
 800555e:	e7ef      	b.n	8005540 <BSP_LSM303AGR_WriteReg_Mag+0x28>
    ret = BSP_ERROR_UNKNOWN_FAILURE;
 8005560:	f06f 0605 	mvn.w	r6, #5
 8005564:	e7f2      	b.n	800554c <BSP_LSM303AGR_WriteReg_Mag+0x34>
 8005566:	bf00      	nop
 8005568:	48000400 	.word	0x48000400

0800556c <startMag>:
static void startMag() { //#CS704 - Write SPI commands to initiliase Magnetometer
 800556c:	b500      	push	{lr}
 800556e:	b083      	sub	sp, #12
  inData = 0b10001100; // temp comp, no reboot, no reset, no low power, 100Hz, continous mode
 8005570:	238c      	movs	r3, #140	; 0x8c
 8005572:	f88d 3007 	strb.w	r3, [sp, #7]
  BSP_LSM303AGR_WriteReg_Mag(0x60, &inData, 1);
 8005576:	2201      	movs	r2, #1
 8005578:	f10d 0107 	add.w	r1, sp, #7
 800557c:	2060      	movs	r0, #96	; 0x60
 800557e:	f7ff ffcb 	bl	8005518 <BSP_LSM303AGR_WriteReg_Mag>
  inData = 0b00000011; // null, null, null, idk and some other stuff
 8005582:	2303      	movs	r3, #3
 8005584:	f88d 3007 	strb.w	r3, [sp, #7]
  BSP_LSM303AGR_WriteReg_Mag(0x61, &inData, 1);
 8005588:	2201      	movs	r2, #1
 800558a:	f10d 0107 	add.w	r1, sp, #7
 800558e:	2061      	movs	r0, #97	; 0x61
 8005590:	f7ff ffc2 	bl	8005518 <BSP_LSM303AGR_WriteReg_Mag>
  inData = 0b00100001;
 8005594:	2321      	movs	r3, #33	; 0x21
 8005596:	f88d 3007 	strb.w	r3, [sp, #7]
  BSP_LSM303AGR_WriteReg_Mag(0x62, &inData, 1);
 800559a:	2201      	movs	r2, #1
 800559c:	f10d 0107 	add.w	r1, sp, #7
 80055a0:	2062      	movs	r0, #98	; 0x62
 80055a2:	f7ff ffb9 	bl	8005518 <BSP_LSM303AGR_WriteReg_Mag>
}
 80055a6:	b003      	add	sp, #12
 80055a8:	f85d fb04 	ldr.w	pc, [sp], #4

080055ac <Init_BlueNRG_Stack>:
static void Init_BlueNRG_Stack(void) {
 80055ac:	b5f0      	push	{r4, r5, r6, r7, lr}
 80055ae:	b0d3      	sub	sp, #332	; 0x14c
  char customName[8] = "CSys704";
 80055b0:	4a6c      	ldr	r2, [pc, #432]	; (8005764 <Init_BlueNRG_Stack+0x1b8>)
 80055b2:	ab4e      	add	r3, sp, #312	; 0x138
 80055b4:	e892 0003 	ldmia.w	r2, {r0, r1}
 80055b8:	e883 0003 	stmia.w	r3, {r0, r1}
  for (int i = 0; i < 7; i++)
 80055bc:	2300      	movs	r3, #0
 80055be:	2b06      	cmp	r3, #6
 80055c0:	dc08      	bgt.n	80055d4 <Init_BlueNRG_Stack+0x28>
    BoardName[i] = customName[i];
 80055c2:	f503 72a4 	add.w	r2, r3, #328	; 0x148
 80055c6:	446a      	add	r2, sp
 80055c8:	f812 1c10 	ldrb.w	r1, [r2, #-16]
 80055cc:	f802 1c08 	strb.w	r1, [r2, #-8]
  for (int i = 0; i < 7; i++)
 80055d0:	3301      	adds	r3, #1
 80055d2:	e7f4      	b.n	80055be <Init_BlueNRG_Stack+0x12>
  BoardName[7] = 0;
 80055d4:	2100      	movs	r1, #0
 80055d6:	f88d 1147 	strb.w	r1, [sp, #327]	; 0x147
  hci_init(HCI_Event_CB, NULL);
 80055da:	4863      	ldr	r0, [pc, #396]	; (8005768 <Init_BlueNRG_Stack+0x1bc>)
 80055dc:	f005 fcb6 	bl	800af4c <hci_init>
  getBlueNRGVersion(&hwVersion, &fwVersion);
 80055e0:	f50d 7197 	add.w	r1, sp, #302	; 0x12e
 80055e4:	a84c      	add	r0, sp, #304	; 0x130
 80055e6:	f005 fb98 	bl	800ad1a <getBlueNRGVersion>
  aci_hal_read_config_data(CONFIG_DATA_RANDOM_ADDRESS, 6, &data_len_out, bdaddr);
 80055ea:	4c60      	ldr	r4, [pc, #384]	; (800576c <Init_BlueNRG_Stack+0x1c0>)
 80055ec:	4623      	mov	r3, r4
 80055ee:	f20d 1231 	addw	r2, sp, #305	; 0x131
 80055f2:	2106      	movs	r1, #6
 80055f4:	2080      	movs	r0, #128	; 0x80
 80055f6:	f005 fb2c 	bl	800ac52 <aci_hal_read_config_data>
  if ((bdaddr[5] & 0xC0) != 0xC0) {
 80055fa:	7963      	ldrb	r3, [r4, #5]
 80055fc:	f003 03c0 	and.w	r3, r3, #192	; 0xc0
 8005600:	2bc0      	cmp	r3, #192	; 0xc0
 8005602:	d016      	beq.n	8005632 <Init_BlueNRG_Stack+0x86>
    XPRINTF("\r\nStatic Random address not well formed.\r\n");
 8005604:	f10d 0c2c 	add.w	ip, sp, #44	; 0x2c
 8005608:	4c59      	ldr	r4, [pc, #356]	; (8005770 <Init_BlueNRG_Stack+0x1c4>)
 800560a:	cc0f      	ldmia	r4!, {r0, r1, r2, r3}
 800560c:	e8ac 000f 	stmia.w	ip!, {r0, r1, r2, r3}
 8005610:	cc0f      	ldmia	r4!, {r0, r1, r2, r3}
 8005612:	e8ac 000f 	stmia.w	ip!, {r0, r1, r2, r3}
 8005616:	e894 0007 	ldmia.w	r4, {r0, r1, r2}
 800561a:	e8ac 0003 	stmia.w	ip!, {r0, r1}
 800561e:	f82c 2b02 	strh.w	r2, [ip], #2
 8005622:	0c12      	lsrs	r2, r2, #16
 8005624:	f88c 2000 	strb.w	r2, [ip]
 8005628:	212a      	movs	r1, #42	; 0x2a
 800562a:	a80b      	add	r0, sp, #44	; 0x2c
 800562c:	f000 ff00 	bl	8006430 <CDC_Fill_Buffer>
    while (1);
 8005630:	e7fe      	b.n	8005630 <Init_BlueNRG_Stack+0x84>
  ret = aci_hal_write_config_data(CONFIG_DATA_PUBADDR_OFFSET, data_len_out,
 8005632:	4a4e      	ldr	r2, [pc, #312]	; (800576c <Init_BlueNRG_Stack+0x1c0>)
 8005634:	f89d 1131 	ldrb.w	r1, [sp, #305]	; 0x131
 8005638:	2000      	movs	r0, #0
 800563a:	f005 fad7 	bl	800abec <aci_hal_write_config_data>
  hci_reset();
 800563e:	f005 fb95 	bl	800ad6c <hci_reset>
  ret = aci_gatt_init();
 8005642:	f005 f9a8 	bl	800a996 <aci_gatt_init>
  if (ret) {
 8005646:	bb38      	cbnz	r0, 8005698 <Init_BlueNRG_Stack+0xec>
  ret = aci_gap_init_IDB05A1(GAP_PERIPHERAL_ROLE_IDB05A1, 0, 0x07, &service_handle, &dev_name_char_handle, &appearance_char_handle);
 8005648:	f50d 7399 	add.w	r3, sp, #306	; 0x132
 800564c:	9301      	str	r3, [sp, #4]
 800564e:	ab4d      	add	r3, sp, #308	; 0x134
 8005650:	9300      	str	r3, [sp, #0]
 8005652:	f50d 739b 	add.w	r3, sp, #310	; 0x136
 8005656:	2207      	movs	r2, #7
 8005658:	2100      	movs	r1, #0
 800565a:	2001      	movs	r0, #1
 800565c:	f005 f88c 	bl	800a778 <aci_gap_init_IDB05A1>
  if (ret != BLE_STATUS_SUCCESS) {
 8005660:	bb48      	cbnz	r0, 80056b6 <Init_BlueNRG_Stack+0x10a>
  ret = aci_gatt_update_char_value(service_handle, dev_name_char_handle, 0,
 8005662:	ab50      	add	r3, sp, #320	; 0x140
 8005664:	9300      	str	r3, [sp, #0]
 8005666:	2307      	movs	r3, #7
 8005668:	2200      	movs	r2, #0
 800566a:	f8bd 1134 	ldrh.w	r1, [sp, #308]	; 0x134
 800566e:	f8bd 0136 	ldrh.w	r0, [sp, #310]	; 0x136
 8005672:	f005 fa5c 	bl	800ab2e <aci_gatt_update_char_value>
  if (ret) {
 8005676:	b348      	cbz	r0, 80056cc <Init_BlueNRG_Stack+0x120>
    XPRINTF("\r\naci_gatt_update_char_value failed\r\n");
 8005678:	ac0b      	add	r4, sp, #44	; 0x2c
 800567a:	4d3e      	ldr	r5, [pc, #248]	; (8005774 <Init_BlueNRG_Stack+0x1c8>)
 800567c:	cd0f      	ldmia	r5!, {r0, r1, r2, r3}
 800567e:	c40f      	stmia	r4!, {r0, r1, r2, r3}
 8005680:	cd0f      	ldmia	r5!, {r0, r1, r2, r3}
 8005682:	c40f      	stmia	r4!, {r0, r1, r2, r3}
 8005684:	e895 0003 	ldmia.w	r5, {r0, r1}
 8005688:	f844 0b04 	str.w	r0, [r4], #4
 800568c:	8021      	strh	r1, [r4, #0]
 800568e:	2125      	movs	r1, #37	; 0x25
 8005690:	a80b      	add	r0, sp, #44	; 0x2c
 8005692:	f000 fecd 	bl	8006430 <CDC_Fill_Buffer>
    while (1);
 8005696:	e7fe      	b.n	8005696 <Init_BlueNRG_Stack+0xea>
    XPRINTF("\r\nGATT_Init failed\r\n");
 8005698:	ac0b      	add	r4, sp, #44	; 0x2c
 800569a:	4d37      	ldr	r5, [pc, #220]	; (8005778 <Init_BlueNRG_Stack+0x1cc>)
 800569c:	cd0f      	ldmia	r5!, {r0, r1, r2, r3}
 800569e:	c40f      	stmia	r4!, {r0, r1, r2, r3}
 80056a0:	e895 0003 	ldmia.w	r5, {r0, r1}
 80056a4:	f844 0b04 	str.w	r0, [r4], #4
 80056a8:	7021      	strb	r1, [r4, #0]
 80056aa:	2114      	movs	r1, #20
 80056ac:	a80b      	add	r0, sp, #44	; 0x2c
 80056ae:	f000 febf 	bl	8006430 <CDC_Fill_Buffer>
}
 80056b2:	b053      	add	sp, #332	; 0x14c
 80056b4:	bdf0      	pop	{r4, r5, r6, r7, pc}
    XPRINTF("\r\nGAP_Init failed\r\n");
 80056b6:	ac0b      	add	r4, sp, #44	; 0x2c
 80056b8:	4d30      	ldr	r5, [pc, #192]	; (800577c <Init_BlueNRG_Stack+0x1d0>)
 80056ba:	cd0f      	ldmia	r5!, {r0, r1, r2, r3}
 80056bc:	c40f      	stmia	r4!, {r0, r1, r2, r3}
 80056be:	682b      	ldr	r3, [r5, #0]
 80056c0:	6023      	str	r3, [r4, #0]
 80056c2:	2113      	movs	r1, #19
 80056c4:	a80b      	add	r0, sp, #44	; 0x2c
 80056c6:	f000 feb3 	bl	8006430 <CDC_Fill_Buffer>
    goto fail;
 80056ca:	e7f2      	b.n	80056b2 <Init_BlueNRG_Stack+0x106>
  ret = aci_gap_set_auth_requirement(MITM_PROTECTION_REQUIRED,
 80056cc:	2001      	movs	r0, #1
 80056ce:	9003      	str	r0, [sp, #12]
 80056d0:	4b2b      	ldr	r3, [pc, #172]	; (8005780 <Init_BlueNRG_Stack+0x1d4>)
 80056d2:	9302      	str	r3, [sp, #8]
 80056d4:	2100      	movs	r1, #0
 80056d6:	9101      	str	r1, [sp, #4]
 80056d8:	2310      	movs	r3, #16
 80056da:	9300      	str	r3, [sp, #0]
 80056dc:	2307      	movs	r3, #7
 80056de:	460a      	mov	r2, r1
 80056e0:	f005 f8e2 	bl	800a8a8 <aci_gap_set_auth_requirement>
  if (ret != BLE_STATUS_SUCCESS) {
 80056e4:	2800      	cmp	r0, #0
 80056e6:	d12d      	bne.n	8005744 <Init_BlueNRG_Stack+0x198>
  XPRINTF("SERVER: BLE Stack Initialized \r\n"
 80056e8:	f89d 2130 	ldrb.w	r2, [sp, #304]	; 0x130
 80056ec:	f8bd 112e 	ldrh.w	r1, [sp, #302]	; 0x12e
 80056f0:	f001 000f 	and.w	r0, r1, #15
 80056f4:	4b1d      	ldr	r3, [pc, #116]	; (800576c <Init_BlueNRG_Stack+0x1c0>)
 80056f6:	795c      	ldrb	r4, [r3, #5]
 80056f8:	791f      	ldrb	r7, [r3, #4]
 80056fa:	f893 e003 	ldrb.w	lr, [r3, #3]
 80056fe:	789d      	ldrb	r5, [r3, #2]
 8005700:	785e      	ldrb	r6, [r3, #1]
 8005702:	781b      	ldrb	r3, [r3, #0]
 8005704:	9309      	str	r3, [sp, #36]	; 0x24
 8005706:	9608      	str	r6, [sp, #32]
 8005708:	9507      	str	r5, [sp, #28]
 800570a:	f8cd e018 	str.w	lr, [sp, #24]
 800570e:	9705      	str	r7, [sp, #20]
 8005710:	9404      	str	r4, [sp, #16]
 8005712:	ab50      	add	r3, sp, #320	; 0x140
 8005714:	9303      	str	r3, [sp, #12]
 8005716:	3061      	adds	r0, #97	; 0x61
 8005718:	9002      	str	r0, [sp, #8]
 800571a:	f3c1 1303 	ubfx	r3, r1, #4, #4
 800571e:	9301      	str	r3, [sp, #4]
 8005720:	0a09      	lsrs	r1, r1, #8
 8005722:	9100      	str	r1, [sp, #0]
 8005724:	f002 030f 	and.w	r3, r2, #15
 8005728:	0912      	lsrs	r2, r2, #4
 800572a:	4916      	ldr	r1, [pc, #88]	; (8005784 <Init_BlueNRG_Stack+0x1d8>)
 800572c:	a80b      	add	r0, sp, #44	; 0x2c
 800572e:	f007 ffef 	bl	800d710 <siprintf>
 8005732:	4601      	mov	r1, r0
 8005734:	a80b      	add	r0, sp, #44	; 0x2c
 8005736:	f000 fe7b 	bl	8006430 <CDC_Fill_Buffer>
  aci_hal_set_tx_power_level(1, 4);
 800573a:	2104      	movs	r1, #4
 800573c:	2001      	movs	r0, #1
 800573e:	f005 fac4 	bl	800acca <aci_hal_set_tx_power_level>
  return;
 8005742:	e7b6      	b.n	80056b2 <Init_BlueNRG_Stack+0x106>
    XPRINTF("\r\nGAP setting Authentication failed\r\n");
 8005744:	ac0b      	add	r4, sp, #44	; 0x2c
 8005746:	4d10      	ldr	r5, [pc, #64]	; (8005788 <Init_BlueNRG_Stack+0x1dc>)
 8005748:	cd0f      	ldmia	r5!, {r0, r1, r2, r3}
 800574a:	c40f      	stmia	r4!, {r0, r1, r2, r3}
 800574c:	cd0f      	ldmia	r5!, {r0, r1, r2, r3}
 800574e:	c40f      	stmia	r4!, {r0, r1, r2, r3}
 8005750:	e895 0003 	ldmia.w	r5, {r0, r1}
 8005754:	f844 0b04 	str.w	r0, [r4], #4
 8005758:	8021      	strh	r1, [r4, #0]
 800575a:	2125      	movs	r1, #37	; 0x25
 800575c:	a80b      	add	r0, sp, #44	; 0x2c
 800575e:	f000 fe67 	bl	8006430 <CDC_Fill_Buffer>
    goto fail;
 8005762:	e7a6      	b.n	80056b2 <Init_BlueNRG_Stack+0x106>
 8005764:	0800e15c 	.word	0x0800e15c
 8005768:	08005049 	.word	0x08005049
 800576c:	20000318 	.word	0x20000318
 8005770:	0800e040 	.word	0x0800e040
 8005774:	0800e098 	.word	0x0800e098
 8005778:	0800e06c 	.word	0x0800e06c
 800577c:	0800e084 	.word	0x0800e084
 8005780:	0001e240 	.word	0x0001e240
 8005784:	0800e0e8 	.word	0x0800e0e8
 8005788:	0800e0c0 	.word	0x0800e0c0

0800578c <Init_BlueNRG_Custom_Services>:
static void Init_BlueNRG_Custom_Services(void) {
 800578c:	b510      	push	{r4, lr}
 800578e:	b0c0      	sub	sp, #256	; 0x100
  ret = Add_HW_SW_ServW2ST_Service();
 8005790:	f7ff fab0 	bl	8004cf4 <Add_HW_SW_ServW2ST_Service>
  if (ret == BLE_STATUS_SUCCESS) {
 8005794:	b998      	cbnz	r0, 80057be <Init_BlueNRG_Custom_Services+0x32>
    XPRINTF("HW & SW Service W2ST added successfully\r\n");
 8005796:	46ec      	mov	ip, sp
 8005798:	4c11      	ldr	r4, [pc, #68]	; (80057e0 <Init_BlueNRG_Custom_Services+0x54>)
 800579a:	cc0f      	ldmia	r4!, {r0, r1, r2, r3}
 800579c:	e8ac 000f 	stmia.w	ip!, {r0, r1, r2, r3}
 80057a0:	cc0f      	ldmia	r4!, {r0, r1, r2, r3}
 80057a2:	e8ac 000f 	stmia.w	ip!, {r0, r1, r2, r3}
 80057a6:	e894 0007 	ldmia.w	r4, {r0, r1, r2}
 80057aa:	e8ac 0003 	stmia.w	ip!, {r0, r1}
 80057ae:	f8ac 2000 	strh.w	r2, [ip]
 80057b2:	2129      	movs	r1, #41	; 0x29
 80057b4:	4668      	mov	r0, sp
 80057b6:	f000 fe3b 	bl	8006430 <CDC_Fill_Buffer>
}
 80057ba:	b040      	add	sp, #256	; 0x100
 80057bc:	bd10      	pop	{r4, pc}
    XPRINTF("\r\nError while adding HW & SW Service W2ST\r\n");
 80057be:	46ec      	mov	ip, sp
 80057c0:	4c08      	ldr	r4, [pc, #32]	; (80057e4 <Init_BlueNRG_Custom_Services+0x58>)
 80057c2:	cc0f      	ldmia	r4!, {r0, r1, r2, r3}
 80057c4:	e8ac 000f 	stmia.w	ip!, {r0, r1, r2, r3}
 80057c8:	cc0f      	ldmia	r4!, {r0, r1, r2, r3}
 80057ca:	e8ac 000f 	stmia.w	ip!, {r0, r1, r2, r3}
 80057ce:	e894 0007 	ldmia.w	r4, {r0, r1, r2}
 80057d2:	e88c 0007 	stmia.w	ip, {r0, r1, r2}
 80057d6:	212b      	movs	r1, #43	; 0x2b
 80057d8:	4668      	mov	r0, sp
 80057da:	f000 fe29 	bl	8006430 <CDC_Fill_Buffer>
}
 80057de:	e7ec      	b.n	80057ba <Init_BlueNRG_Custom_Services+0x2e>
 80057e0:	0800e164 	.word	0x0800e164
 80057e4:	0800e190 	.word	0x0800e190

080057e8 <SendMotionData>:
static void SendMotionData(void) {
 80057e8:	b508      	push	{r3, lr}
  AccGyroMag_Update(&ACC_Value, (BSP_MOTION_SENSOR_Axes_t*)&COMP_Value, &MAG_Value);
 80057ea:	4804      	ldr	r0, [pc, #16]	; (80057fc <SendMotionData+0x14>)
 80057ec:	f100 0208 	add.w	r2, r0, #8
 80057f0:	f100 0110 	add.w	r1, r0, #16
 80057f4:	3018      	adds	r0, #24
 80057f6:	f7ff fb1d 	bl	8004e34 <AccGyroMag_Update>
}
 80057fa:	bd08      	pop	{r3, pc}
 80057fc:	20000318 	.word	0x20000318

08005800 <HAL_TIM_OC_DelayElapsedCallback>:
void HAL_TIM_OC_DelayElapsedCallback(TIM_HandleTypeDef* htim) {
 8005800:	b508      	push	{r3, lr}
  if (htim->Channel == HAL_TIM_ACTIVE_CHANNEL_4) {
 8005802:	7f03      	ldrb	r3, [r0, #28]
 8005804:	2b08      	cmp	r3, #8
 8005806:	d000      	beq.n	800580a <HAL_TIM_OC_DelayElapsedCallback+0xa>
}
 8005808:	bd08      	pop	{r3, pc}
    uhCapture = HAL_TIM_ReadCapturedValue(htim, TIM_CHANNEL_4);
 800580a:	210c      	movs	r1, #12
 800580c:	f003 ff44 	bl	8009698 <HAL_TIM_ReadCapturedValue>
    __HAL_TIM_SET_COMPARE(&TimCCHandle, TIM_CHANNEL_4, (uhCapture + uhCCR4_Val));
 8005810:	4b04      	ldr	r3, [pc, #16]	; (8005824 <HAL_TIM_OC_DelayElapsedCallback+0x24>)
 8005812:	6a9a      	ldr	r2, [r3, #40]	; 0x28
 8005814:	4904      	ldr	r1, [pc, #16]	; (8005828 <HAL_TIM_OC_DelayElapsedCallback+0x28>)
 8005816:	6809      	ldr	r1, [r1, #0]
 8005818:	4408      	add	r0, r1
 800581a:	6410      	str	r0, [r2, #64]	; 0x40
    SendAccGyroMag = 1;
 800581c:	2201      	movs	r2, #1
 800581e:	675a      	str	r2, [r3, #116]	; 0x74
}
 8005820:	e7f2      	b.n	8005808 <HAL_TIM_OC_DelayElapsedCallback+0x8>
 8005822:	bf00      	nop
 8005824:	20000318 	.word	0x20000318
 8005828:	20000004 	.word	0x20000004

0800582c <HAL_TIM_PeriodElapsedCallback>:
void HAL_TIM_PeriodElapsedCallback(TIM_HandleTypeDef* htim) {
 800582c:	b508      	push	{r3, lr}
  if (htim == (&TimEnvHandle)) {
 800582e:	4b07      	ldr	r3, [pc, #28]	; (800584c <HAL_TIM_PeriodElapsedCallback+0x20>)
 8005830:	4298      	cmp	r0, r3
 8005832:	d003      	beq.n	800583c <HAL_TIM_PeriodElapsedCallback+0x10>
  } else if (htim == (&TimHandle)) {
 8005834:	4b06      	ldr	r3, [pc, #24]	; (8005850 <HAL_TIM_PeriodElapsedCallback+0x24>)
 8005836:	4298      	cmp	r0, r3
 8005838:	d005      	beq.n	8005846 <HAL_TIM_PeriodElapsedCallback+0x1a>
}
 800583a:	bd08      	pop	{r3, pc}
    ReadSensor = 1;
 800583c:	3b78      	subs	r3, #120	; 0x78
 800583e:	2201      	movs	r2, #1
 8005840:	f8c3 20c4 	str.w	r2, [r3, #196]	; 0xc4
 8005844:	e7f9      	b.n	800583a <HAL_TIM_PeriodElapsedCallback+0xe>
    CDC_TIM_PeriodElapsedCallback(htim);
 8005846:	f000 fe13 	bl	8006470 <CDC_TIM_PeriodElapsedCallback>
}
 800584a:	e7f6      	b.n	800583a <HAL_TIM_PeriodElapsedCallback+0xe>
 800584c:	20000390 	.word	0x20000390
 8005850:	2000080c 	.word	0x2000080c

08005854 <Sensor_IO_SPI_CS_Init_All>:
uint8_t Sensor_IO_SPI_CS_Init_All(void) {
 8005854:	e92d 4ff0 	stmdb	sp!, {r4, r5, r6, r7, r8, r9, sl, fp, lr}
 8005858:	b08b      	sub	sp, #44	; 0x2c
  BSP_LSM6DSM_CS_GPIO_CLK_ENABLE();
 800585a:	4b72      	ldr	r3, [pc, #456]	; (8005a24 <Sensor_IO_SPI_CS_Init_All+0x1d0>)
 800585c:	6cda      	ldr	r2, [r3, #76]	; 0x4c
 800585e:	f042 0202 	orr.w	r2, r2, #2
 8005862:	64da      	str	r2, [r3, #76]	; 0x4c
 8005864:	6cda      	ldr	r2, [r3, #76]	; 0x4c
 8005866:	f002 0202 	and.w	r2, r2, #2
 800586a:	9200      	str	r2, [sp, #0]
 800586c:	9a00      	ldr	r2, [sp, #0]
  BSP_LSM303AGR_M_CS_GPIO_CLK_ENABLE();
 800586e:	6cda      	ldr	r2, [r3, #76]	; 0x4c
 8005870:	f042 0202 	orr.w	r2, r2, #2
 8005874:	64da      	str	r2, [r3, #76]	; 0x4c
 8005876:	6cda      	ldr	r2, [r3, #76]	; 0x4c
 8005878:	f002 0202 	and.w	r2, r2, #2
 800587c:	9201      	str	r2, [sp, #4]
 800587e:	9a01      	ldr	r2, [sp, #4]
  BSP_LSM303AGR_X_CS_GPIO_CLK_ENABLE();
 8005880:	6cda      	ldr	r2, [r3, #76]	; 0x4c
 8005882:	f042 0204 	orr.w	r2, r2, #4
 8005886:	64da      	str	r2, [r3, #76]	; 0x4c
 8005888:	6cda      	ldr	r2, [r3, #76]	; 0x4c
 800588a:	f002 0204 	and.w	r2, r2, #4
 800588e:	9202      	str	r2, [sp, #8]
 8005890:	9a02      	ldr	r2, [sp, #8]
  BSP_LPS22HB_CS_GPIO_CLK_ENABLE();
 8005892:	6cda      	ldr	r2, [r3, #76]	; 0x4c
 8005894:	f042 0201 	orr.w	r2, r2, #1
 8005898:	64da      	str	r2, [r3, #76]	; 0x4c
 800589a:	6cdb      	ldr	r3, [r3, #76]	; 0x4c
 800589c:	f003 0301 	and.w	r3, r3, #1
 80058a0:	9303      	str	r3, [sp, #12]
 80058a2:	9b03      	ldr	r3, [sp, #12]
  HAL_GPIO_WritePin(BSP_LSM6DSM_CS_PORT, BSP_LSM6DSM_CS_PIN, GPIO_PIN_SET);
 80058a4:	4d60      	ldr	r5, [pc, #384]	; (8005a28 <Sensor_IO_SPI_CS_Init_All+0x1d4>)
 80058a6:	2201      	movs	r2, #1
 80058a8:	f44f 5180 	mov.w	r1, #4096	; 0x1000
 80058ac:	4628      	mov	r0, r5
 80058ae:	f001 fb3a 	bl	8006f26 <HAL_GPIO_WritePin>
  HAL_GPIO_WritePin(BSP_LSM303AGR_X_CS_PORT, BSP_LSM303AGR_X_CS_PIN, GPIO_PIN_SET);
 80058b2:	f8df 8178 	ldr.w	r8, [pc, #376]	; 8005a2c <Sensor_IO_SPI_CS_Init_All+0x1d8>
 80058b6:	2201      	movs	r2, #1
 80058b8:	2110      	movs	r1, #16
 80058ba:	4640      	mov	r0, r8
 80058bc:	f001 fb33 	bl	8006f26 <HAL_GPIO_WritePin>
  HAL_GPIO_WritePin(BSP_LSM303AGR_M_CS_PORT, BSP_LSM303AGR_M_CS_PIN, GPIO_PIN_SET);
 80058c0:	2201      	movs	r2, #1
 80058c2:	2102      	movs	r1, #2
 80058c4:	4628      	mov	r0, r5
 80058c6:	f001 fb2e 	bl	8006f26 <HAL_GPIO_WritePin>
  HAL_GPIO_WritePin(BSP_LPS22HB_CS_PORT, BSP_LPS22HB_CS_PIN, GPIO_PIN_SET);
 80058ca:	2201      	movs	r2, #1
 80058cc:	2108      	movs	r1, #8
 80058ce:	f04f 4090 	mov.w	r0, #1207959552	; 0x48000000
 80058d2:	f001 fb28 	bl	8006f26 <HAL_GPIO_WritePin>
  GPIO_InitStruct.Speed = GPIO_SPEED_HIGH;
 80058d6:	2303      	movs	r3, #3
 80058d8:	9308      	str	r3, [sp, #32]
  GPIO_InitStruct.Pull = GPIO_NOPULL;
 80058da:	2600      	movs	r6, #0
 80058dc:	9607      	str	r6, [sp, #28]
  GPIO_InitStruct.Mode = GPIO_MODE_OUTPUT_PP;
 80058de:	2401      	movs	r4, #1
 80058e0:	9406      	str	r4, [sp, #24]
  GPIO_InitStruct.Pin = BSP_LSM6DSM_CS_PIN;
 80058e2:	f44f 5980 	mov.w	r9, #4096	; 0x1000
 80058e6:	f8cd 9014 	str.w	r9, [sp, #20]
  HAL_GPIO_Init(BSP_LSM6DSM_CS_PORT, &GPIO_InitStruct);
 80058ea:	a905      	add	r1, sp, #20
 80058ec:	4628      	mov	r0, r5
 80058ee:	f001 f98f 	bl	8006c10 <HAL_GPIO_Init>
  HAL_GPIO_WritePin(BSP_LSM6DSM_CS_PORT, BSP_LSM6DSM_CS_PIN, GPIO_PIN_SET);
 80058f2:	4622      	mov	r2, r4
 80058f4:	4649      	mov	r1, r9
 80058f6:	4628      	mov	r0, r5
 80058f8:	f001 fb15 	bl	8006f26 <HAL_GPIO_WritePin>
  GPIO_InitStruct.Pin = BSP_LSM303AGR_X_CS_PIN;
 80058fc:	2710      	movs	r7, #16
 80058fe:	9705      	str	r7, [sp, #20]
  HAL_GPIO_Init(BSP_LSM303AGR_X_CS_PORT, &GPIO_InitStruct);
 8005900:	a905      	add	r1, sp, #20
 8005902:	4640      	mov	r0, r8
 8005904:	f001 f984 	bl	8006c10 <HAL_GPIO_Init>
  HAL_GPIO_WritePin(BSP_LSM303AGR_X_CS_PORT, BSP_LSM303AGR_X_CS_PIN, GPIO_PIN_SET);
 8005908:	4622      	mov	r2, r4
 800590a:	4639      	mov	r1, r7
 800590c:	4640      	mov	r0, r8
 800590e:	f001 fb0a 	bl	8006f26 <HAL_GPIO_WritePin>
  GPIO_InitStruct.Pin = BSP_LSM303AGR_M_CS_PIN;
 8005912:	f04f 0b02 	mov.w	fp, #2
 8005916:	f8cd b014 	str.w	fp, [sp, #20]
  HAL_GPIO_Init(BSP_LSM303AGR_M_CS_PORT, &GPIO_InitStruct);
 800591a:	a905      	add	r1, sp, #20
 800591c:	4628      	mov	r0, r5
 800591e:	f001 f977 	bl	8006c10 <HAL_GPIO_Init>
  HAL_GPIO_WritePin(BSP_LSM303AGR_M_CS_PORT, BSP_LSM303AGR_M_CS_PIN, GPIO_PIN_SET);
 8005922:	4622      	mov	r2, r4
 8005924:	4659      	mov	r1, fp
 8005926:	4628      	mov	r0, r5
 8005928:	f001 fafd 	bl	8006f26 <HAL_GPIO_WritePin>
  GPIO_InitStruct.Pin = BSP_LPS22HB_CS_PIN;
 800592c:	f04f 0a08 	mov.w	sl, #8
 8005930:	f8cd a014 	str.w	sl, [sp, #20]
  HAL_GPIO_Init(BSP_LPS22HB_CS_PORT, &GPIO_InitStruct);
 8005934:	a905      	add	r1, sp, #20
 8005936:	f04f 4090 	mov.w	r0, #1207959552	; 0x48000000
 800593a:	f001 f969 	bl	8006c10 <HAL_GPIO_Init>
  HAL_GPIO_WritePin(BSP_LPS22HB_CS_PORT, BSP_LPS22HB_CS_PIN, GPIO_PIN_SET);
 800593e:	4622      	mov	r2, r4
 8005940:	4651      	mov	r1, sl
 8005942:	f04f 4090 	mov.w	r0, #1207959552	; 0x48000000
 8005946:	f001 faee 	bl	8006f26 <HAL_GPIO_WritePin>
  if (BSP_SPI2_Init() == BSP_ERROR_NONE) {
 800594a:	f001 f86b 	bl	8006a24 <BSP_SPI2_Init>
  HAL_GPIO_WritePin(BSP_LSM303AGR_M_CS_PORT, BSP_LSM303AGR_M_CS_PIN, GPIO_PIN_RESET);
 800594e:	4632      	mov	r2, r6
 8005950:	4659      	mov	r1, fp
 8005952:	4628      	mov	r0, r5
 8005954:	f001 fae7 	bl	8006f26 <HAL_GPIO_WritePin>
  inData[0] = (0x62U);
 8005958:	2362      	movs	r3, #98	; 0x62
 800595a:	f88d 3010 	strb.w	r3, [sp, #16]
  BSP_SPI2_Send(inData, 1);
 800595e:	4621      	mov	r1, r4
 8005960:	eb0d 0007 	add.w	r0, sp, r7
 8005964:	f000 ffbc 	bl	80068e0 <BSP_SPI2_Send>
  inData[0] = 0x20;
 8005968:	2320      	movs	r3, #32
 800596a:	f88d 3010 	strb.w	r3, [sp, #16]
  BSP_SPI2_Send(inData, 1);
 800596e:	4621      	mov	r1, r4
 8005970:	eb0d 0007 	add.w	r0, sp, r7
 8005974:	f000 ffb4 	bl	80068e0 <BSP_SPI2_Send>
  HAL_GPIO_WritePin(BSP_LSM303AGR_M_CS_PORT, BSP_LSM303AGR_M_CS_PIN, GPIO_PIN_SET);
 8005978:	4622      	mov	r2, r4
 800597a:	4659      	mov	r1, fp
 800597c:	4628      	mov	r0, r5
 800597e:	f001 fad2 	bl	8006f26 <HAL_GPIO_WritePin>
  HAL_GPIO_WritePin(BSP_LSM303AGR_X_CS_PORT, BSP_LSM303AGR_X_CS_PIN, GPIO_PIN_RESET);
 8005982:	4632      	mov	r2, r6
 8005984:	4639      	mov	r1, r7
 8005986:	4640      	mov	r0, r8
 8005988:	f001 facd 	bl	8006f26 <HAL_GPIO_WritePin>
  inData[0] = (0x23U);
 800598c:	2323      	movs	r3, #35	; 0x23
 800598e:	f88d 3010 	strb.w	r3, [sp, #16]
  BSP_SPI2_Send(inData, 1);
 8005992:	4621      	mov	r1, r4
 8005994:	eb0d 0007 	add.w	r0, sp, r7
 8005998:	f000 ffa2 	bl	80068e0 <BSP_SPI2_Send>
  inData[0] = 0x01;
 800599c:	f88d 4010 	strb.w	r4, [sp, #16]
  BSP_SPI2_Send(inData, 1);
 80059a0:	4621      	mov	r1, r4
 80059a2:	eb0d 0007 	add.w	r0, sp, r7
 80059a6:	f000 ff9b 	bl	80068e0 <BSP_SPI2_Send>
  HAL_GPIO_WritePin(BSP_LSM303AGR_X_CS_PORT, BSP_LSM303AGR_X_CS_PIN, GPIO_PIN_SET);
 80059aa:	4622      	mov	r2, r4
 80059ac:	4639      	mov	r1, r7
 80059ae:	4640      	mov	r0, r8
 80059b0:	f001 fab9 	bl	8006f26 <HAL_GPIO_WritePin>
  HAL_GPIO_WritePin(BSP_LPS22HB_CS_PORT, BSP_LPS22HB_CS_PIN, GPIO_PIN_RESET);
 80059b4:	4632      	mov	r2, r6
 80059b6:	4651      	mov	r1, sl
 80059b8:	f04f 4090 	mov.w	r0, #1207959552	; 0x48000000
 80059bc:	f001 fab3 	bl	8006f26 <HAL_GPIO_WritePin>
  inData[0] = (0x10U);
 80059c0:	f88d 7010 	strb.w	r7, [sp, #16]
  BSP_SPI2_Send(inData, 1);
 80059c4:	4621      	mov	r1, r4
 80059c6:	eb0d 0007 	add.w	r0, sp, r7
 80059ca:	f000 ff89 	bl	80068e0 <BSP_SPI2_Send>
  inData[0] = 0x01;
 80059ce:	f88d 4010 	strb.w	r4, [sp, #16]
  BSP_SPI2_Send(inData, 1);
 80059d2:	4621      	mov	r1, r4
 80059d4:	eb0d 0007 	add.w	r0, sp, r7
 80059d8:	f000 ff82 	bl	80068e0 <BSP_SPI2_Send>
  HAL_GPIO_WritePin(BSP_LPS22HB_CS_PORT, BSP_LPS22HB_CS_PIN, GPIO_PIN_SET);
 80059dc:	4622      	mov	r2, r4
 80059de:	4651      	mov	r1, sl
 80059e0:	f04f 4090 	mov.w	r0, #1207959552	; 0x48000000
 80059e4:	f001 fa9f 	bl	8006f26 <HAL_GPIO_WritePin>
  HAL_GPIO_WritePin(BSP_LSM6DSM_CS_PORT, BSP_LSM6DSM_CS_PIN, GPIO_PIN_RESET);
 80059e8:	4632      	mov	r2, r6
 80059ea:	4649      	mov	r1, r9
 80059ec:	4628      	mov	r0, r5
 80059ee:	f001 fa9a 	bl	8006f26 <HAL_GPIO_WritePin>
  inData[0] = (0x12U);
 80059f2:	2312      	movs	r3, #18
 80059f4:	f88d 3010 	strb.w	r3, [sp, #16]
  BSP_SPI2_Send(inData, 1);
 80059f8:	4621      	mov	r1, r4
 80059fa:	eb0d 0007 	add.w	r0, sp, r7
 80059fe:	f000 ff6f 	bl	80068e0 <BSP_SPI2_Send>
  inData[0] = 0x0C;
 8005a02:	230c      	movs	r3, #12
 8005a04:	f88d 3010 	strb.w	r3, [sp, #16]
  BSP_SPI2_Send(inData, 1);
 8005a08:	4621      	mov	r1, r4
 8005a0a:	eb0d 0007 	add.w	r0, sp, r7
 8005a0e:	f000 ff67 	bl	80068e0 <BSP_SPI2_Send>
  HAL_GPIO_WritePin(BSP_LSM6DSM_CS_PORT, BSP_LSM6DSM_CS_PIN, GPIO_PIN_SET);
 8005a12:	4622      	mov	r2, r4
 8005a14:	4649      	mov	r1, r9
 8005a16:	4628      	mov	r0, r5
 8005a18:	f001 fa85 	bl	8006f26 <HAL_GPIO_WritePin>
}
 8005a1c:	4630      	mov	r0, r6
 8005a1e:	b00b      	add	sp, #44	; 0x2c
 8005a20:	e8bd 8ff0 	ldmia.w	sp!, {r4, r5, r6, r7, r8, r9, sl, fp, pc}
 8005a24:	40021000 	.word	0x40021000
 8005a28:	48000400 	.word	0x48000400
 8005a2c:	48000800 	.word	0x48000800

08005a30 <LSM303AGR_SPI_Read_nBytes>:
void LSM303AGR_SPI_Read_nBytes(SPI_HandleTypeDef* xSpiHandle, uint8_t* val, uint16_t nBytesToRead) {
 8005a30:	b410      	push	{r4}
  \details Disables IRQ interrupts by setting the I-bit in the CPSR.
           Can only be executed in Privileged modes.
 */
__STATIC_FORCEINLINE void __disable_irq(void)
{
  __ASM volatile ("cpsid i" : : : "memory");
 8005a32:	b672      	cpsid	i
  __HAL_SPI_ENABLE(xSpiHandle);
 8005a34:	6804      	ldr	r4, [r0, #0]
 8005a36:	6823      	ldr	r3, [r4, #0]
 8005a38:	f043 0340 	orr.w	r3, r3, #64	; 0x40
 8005a3c:	6023      	str	r3, [r4, #0]
  while (nBytesToRead > 1U) {
 8005a3e:	2a01      	cmp	r2, #1
 8005a40:	d90a      	bls.n	8005a58 <LSM303AGR_SPI_Read_nBytes+0x28>
    if (xSpiHandle->Instance->SR & SPI_FLAG_RXNE) {
 8005a42:	6803      	ldr	r3, [r0, #0]
 8005a44:	689c      	ldr	r4, [r3, #8]
 8005a46:	f014 0f01 	tst.w	r4, #1
 8005a4a:	d0f8      	beq.n	8005a3e <LSM303AGR_SPI_Read_nBytes+0xe>
      *val = *(__IO uint8_t*) & xSpiHandle->Instance->DR;
 8005a4c:	7b1b      	ldrb	r3, [r3, #12]
 8005a4e:	f801 3b01 	strb.w	r3, [r1], #1
      nBytesToRead--;
 8005a52:	3a01      	subs	r2, #1
 8005a54:	b292      	uxth	r2, r2
 8005a56:	e7f2      	b.n	8005a3e <LSM303AGR_SPI_Read_nBytes+0xe>
  \details Acts as a special kind of Data Memory Barrier.
           It completes when all explicit memory accesses before this instruction complete.
 */
__STATIC_FORCEINLINE void __DSB(void)
{
  __ASM volatile ("dsb 0xF":::"memory");
 8005a58:	f3bf 8f4f 	dsb	sy
 8005a5c:	f3bf 8f4f 	dsb	sy
  __HAL_SPI_DISABLE(xSpiHandle);
 8005a60:	6802      	ldr	r2, [r0, #0]
 8005a62:	6813      	ldr	r3, [r2, #0]
 8005a64:	f023 0340 	bic.w	r3, r3, #64	; 0x40
 8005a68:	6013      	str	r3, [r2, #0]
  __ASM volatile ("cpsie i" : : : "memory");
 8005a6a:	b662      	cpsie	i
  while ((xSpiHandle->Instance->SR & SPI_FLAG_RXNE) != SPI_FLAG_RXNE);
 8005a6c:	6803      	ldr	r3, [r0, #0]
 8005a6e:	689a      	ldr	r2, [r3, #8]
 8005a70:	f012 0f01 	tst.w	r2, #1
 8005a74:	d0fa      	beq.n	8005a6c <LSM303AGR_SPI_Read_nBytes+0x3c>
  *val = *(__IO uint8_t*) & xSpiHandle->Instance->DR;
 8005a76:	7b1b      	ldrb	r3, [r3, #12]
 8005a78:	700b      	strb	r3, [r1, #0]
  while ((xSpiHandle->Instance->SR & SPI_FLAG_BSY) == SPI_FLAG_BSY);
 8005a7a:	6803      	ldr	r3, [r0, #0]
 8005a7c:	689b      	ldr	r3, [r3, #8]
 8005a7e:	f013 0f80 	tst.w	r3, #128	; 0x80
 8005a82:	d1fa      	bne.n	8005a7a <LSM303AGR_SPI_Read_nBytes+0x4a>
}
 8005a84:	f85d 4b04 	ldr.w	r4, [sp], #4
 8005a88:	4770      	bx	lr

08005a8a <LSM303AGR_SPI_Read>:
  __ASM volatile ("cpsid i" : : : "memory");
 8005a8a:	b672      	cpsid	i
  __HAL_SPI_ENABLE(xSpiHandle);
 8005a8c:	6802      	ldr	r2, [r0, #0]
 8005a8e:	6813      	ldr	r3, [r2, #0]
 8005a90:	f043 0340 	orr.w	r3, r3, #64	; 0x40
 8005a94:	6013      	str	r3, [r2, #0]
  __asm("dsb\n");
 8005a96:	f3bf 8f4f 	dsb	sy
  __asm("dsb\n");
 8005a9a:	f3bf 8f4f 	dsb	sy
  __HAL_SPI_DISABLE(xSpiHandle);
 8005a9e:	6802      	ldr	r2, [r0, #0]
 8005aa0:	6813      	ldr	r3, [r2, #0]
 8005aa2:	f023 0340 	bic.w	r3, r3, #64	; 0x40
 8005aa6:	6013      	str	r3, [r2, #0]
  __ASM volatile ("cpsie i" : : : "memory");
 8005aa8:	b662      	cpsie	i
  while ((xSpiHandle->Instance->SR & SPI_FLAG_RXNE) != SPI_FLAG_RXNE);
 8005aaa:	6803      	ldr	r3, [r0, #0]
 8005aac:	689a      	ldr	r2, [r3, #8]
 8005aae:	f012 0f01 	tst.w	r2, #1
 8005ab2:	d0fa      	beq.n	8005aaa <LSM303AGR_SPI_Read+0x20>
  *val = *(__IO uint8_t*) & xSpiHandle->Instance->DR;
 8005ab4:	7b1b      	ldrb	r3, [r3, #12]
 8005ab6:	700b      	strb	r3, [r1, #0]
  while ((xSpiHandle->Instance->SR & SPI_FLAG_BSY) == SPI_FLAG_BSY);
 8005ab8:	6803      	ldr	r3, [r0, #0]
 8005aba:	689b      	ldr	r3, [r3, #8]
 8005abc:	f013 0f80 	tst.w	r3, #128	; 0x80
 8005ac0:	d1fa      	bne.n	8005ab8 <LSM303AGR_SPI_Read+0x2e>
}
 8005ac2:	4770      	bx	lr

08005ac4 <LSM303AGR_SPI_Write>:
  while ((xSpiHandle->Instance->SR & SPI_FLAG_TXE) != SPI_FLAG_TXE);
 8005ac4:	6803      	ldr	r3, [r0, #0]
 8005ac6:	689a      	ldr	r2, [r3, #8]
 8005ac8:	f012 0f02 	tst.w	r2, #2
 8005acc:	d0fa      	beq.n	8005ac4 <LSM303AGR_SPI_Write>
  *((__IO uint8_t*) & xSpiHandle->Instance->DR) = val;
 8005ace:	7319      	strb	r1, [r3, #12]
  while ((xSpiHandle->Instance->SR & SPI_FLAG_FTLVL) != SPI_FTLVL_EMPTY);
 8005ad0:	6803      	ldr	r3, [r0, #0]
 8005ad2:	689a      	ldr	r2, [r3, #8]
 8005ad4:	f412 5fc0 	tst.w	r2, #6144	; 0x1800
 8005ad8:	d1fa      	bne.n	8005ad0 <LSM303AGR_SPI_Write+0xc>
  while ((xSpiHandle->Instance->SR & SPI_FLAG_BSY) == SPI_FLAG_BSY);
 8005ada:	689a      	ldr	r2, [r3, #8]
 8005adc:	f012 0f80 	tst.w	r2, #128	; 0x80
 8005ae0:	d1fb      	bne.n	8005ada <LSM303AGR_SPI_Write+0x16>
}
 8005ae2:	4770      	bx	lr

08005ae4 <BSP_LSM303AGR_ReadReg_Mag>:
static int32_t BSP_LSM303AGR_ReadReg_Mag(uint16_t Reg, uint8_t* pdata, uint16_t len) {
 8005ae4:	b5f8      	push	{r3, r4, r5, r6, r7, lr}
 8005ae6:	460d      	mov	r5, r1
 8005ae8:	4614      	mov	r4, r2
  uint8_t dataReg = (uint8_t)Reg;
 8005aea:	b2c7      	uxtb	r7, r0
  HAL_GPIO_WritePin(BSP_LSM303AGR_M_CS_PORT, BSP_LSM303AGR_M_CS_PIN, GPIO_PIN_RESET);
 8005aec:	2200      	movs	r2, #0
 8005aee:	2102      	movs	r1, #2
 8005af0:	4818      	ldr	r0, [pc, #96]	; (8005b54 <BSP_LSM303AGR_ReadReg_Mag+0x70>)
 8005af2:	f001 fa18 	bl	8006f26 <HAL_GPIO_WritePin>
  LSM303AGR_SPI_Write(&hbusspi2, (dataReg) | 0x80);
 8005af6:	4e18      	ldr	r6, [pc, #96]	; (8005b58 <BSP_LSM303AGR_ReadReg_Mag+0x74>)
 8005af8:	f047 0180 	orr.w	r1, r7, #128	; 0x80
 8005afc:	4630      	mov	r0, r6
 8005afe:	f7ff ffe1 	bl	8005ac4 <LSM303AGR_SPI_Write>
  __HAL_SPI_DISABLE(&hbusspi2);
 8005b02:	6832      	ldr	r2, [r6, #0]
 8005b04:	6813      	ldr	r3, [r2, #0]
 8005b06:	f023 0340 	bic.w	r3, r3, #64	; 0x40
 8005b0a:	6013      	str	r3, [r2, #0]
  SPI_1LINE_RX(&hbusspi2);
 8005b0c:	6832      	ldr	r2, [r6, #0]
 8005b0e:	6813      	ldr	r3, [r2, #0]
 8005b10:	f423 4380 	bic.w	r3, r3, #16384	; 0x4000
 8005b14:	6013      	str	r3, [r2, #0]
  if (len > 1) {
 8005b16:	2c01      	cmp	r4, #1
 8005b18:	d916      	bls.n	8005b48 <BSP_LSM303AGR_ReadReg_Mag+0x64>
    LSM303AGR_SPI_Read_nBytes(&hbusspi2, (pdata), len);
 8005b1a:	4622      	mov	r2, r4
 8005b1c:	4629      	mov	r1, r5
 8005b1e:	4630      	mov	r0, r6
 8005b20:	f7ff ff86 	bl	8005a30 <LSM303AGR_SPI_Read_nBytes>
  HAL_GPIO_WritePin(BSP_LSM303AGR_M_CS_PORT, BSP_LSM303AGR_M_CS_PIN, GPIO_PIN_SET);
 8005b24:	2201      	movs	r2, #1
 8005b26:	2102      	movs	r1, #2
 8005b28:	480a      	ldr	r0, [pc, #40]	; (8005b54 <BSP_LSM303AGR_ReadReg_Mag+0x70>)
 8005b2a:	f001 f9fc 	bl	8006f26 <HAL_GPIO_WritePin>
  SPI_1LINE_TX(&hbusspi2);
 8005b2e:	4a0a      	ldr	r2, [pc, #40]	; (8005b58 <BSP_LSM303AGR_ReadReg_Mag+0x74>)
 8005b30:	6811      	ldr	r1, [r2, #0]
 8005b32:	680b      	ldr	r3, [r1, #0]
 8005b34:	f443 4380 	orr.w	r3, r3, #16384	; 0x4000
 8005b38:	600b      	str	r3, [r1, #0]
  __HAL_SPI_ENABLE(&hbusspi2);
 8005b3a:	6812      	ldr	r2, [r2, #0]
 8005b3c:	6813      	ldr	r3, [r2, #0]
 8005b3e:	f043 0340 	orr.w	r3, r3, #64	; 0x40
 8005b42:	6013      	str	r3, [r2, #0]
}
 8005b44:	2000      	movs	r0, #0
 8005b46:	bdf8      	pop	{r3, r4, r5, r6, r7, pc}
    LSM303AGR_SPI_Read(&hbusspi2, (pdata));
 8005b48:	4629      	mov	r1, r5
 8005b4a:	4803      	ldr	r0, [pc, #12]	; (8005b58 <BSP_LSM303AGR_ReadReg_Mag+0x74>)
 8005b4c:	f7ff ff9d 	bl	8005a8a <LSM303AGR_SPI_Read>
 8005b50:	e7e8      	b.n	8005b24 <BSP_LSM303AGR_ReadReg_Mag+0x40>
 8005b52:	bf00      	nop
 8005b54:	48000400 	.word	0x48000400
 8005b58:	20002570 	.word	0x20002570

08005b5c <readMag>:
static void readMag() { //#CS704 - Read Magnetometer Data over SPI
 8005b5c:	b500      	push	{lr}
 8005b5e:	b083      	sub	sp, #12
  BSP_LSM303AGR_ReadReg_Mag(0x68, &xFirst, 1);
 8005b60:	2201      	movs	r2, #1
 8005b62:	f10d 0107 	add.w	r1, sp, #7
 8005b66:	2068      	movs	r0, #104	; 0x68
 8005b68:	f7ff ffbc 	bl	8005ae4 <BSP_LSM303AGR_ReadReg_Mag>
  BSP_LSM303AGR_ReadReg_Mag(0x69, &xSecond, 1);
 8005b6c:	2201      	movs	r2, #1
 8005b6e:	f10d 0106 	add.w	r1, sp, #6
 8005b72:	2069      	movs	r0, #105	; 0x69
 8005b74:	f7ff ffb6 	bl	8005ae4 <BSP_LSM303AGR_ReadReg_Mag>
  BSP_LSM303AGR_ReadReg_Mag(0x6A, &yFirst, 1);
 8005b78:	2201      	movs	r2, #1
 8005b7a:	f10d 0105 	add.w	r1, sp, #5
 8005b7e:	206a      	movs	r0, #106	; 0x6a
 8005b80:	f7ff ffb0 	bl	8005ae4 <BSP_LSM303AGR_ReadReg_Mag>
  BSP_LSM303AGR_ReadReg_Mag(0x6B, &ySecond, 1);
 8005b84:	2201      	movs	r2, #1
 8005b86:	a901      	add	r1, sp, #4
 8005b88:	206b      	movs	r0, #107	; 0x6b
 8005b8a:	f7ff ffab 	bl	8005ae4 <BSP_LSM303AGR_ReadReg_Mag>
  BSP_LSM303AGR_ReadReg_Mag(0x6C, &zFirst, 1);
 8005b8e:	2201      	movs	r2, #1
 8005b90:	f10d 0103 	add.w	r1, sp, #3
 8005b94:	206c      	movs	r0, #108	; 0x6c
 8005b96:	f7ff ffa5 	bl	8005ae4 <BSP_LSM303AGR_ReadReg_Mag>
  BSP_LSM303AGR_ReadReg_Mag(0x6D, &zSecond, 1);
 8005b9a:	2201      	movs	r2, #1
 8005b9c:	f10d 0102 	add.w	r1, sp, #2
 8005ba0:	206d      	movs	r0, #109	; 0x6d
 8005ba2:	f7ff ff9f 	bl	8005ae4 <BSP_LSM303AGR_ReadReg_Mag>
  xValue = (xSecond << 8) | xFirst;
 8005ba6:	f89d 1006 	ldrb.w	r1, [sp, #6]
 8005baa:	0209      	lsls	r1, r1, #8
 8005bac:	b209      	sxth	r1, r1
 8005bae:	f89d 3007 	ldrb.w	r3, [sp, #7]
 8005bb2:	4319      	orrs	r1, r3
  yValue = (ySecond << 8) | yFirst;
 8005bb4:	f89d 2004 	ldrb.w	r2, [sp, #4]
 8005bb8:	0212      	lsls	r2, r2, #8
 8005bba:	b212      	sxth	r2, r2
 8005bbc:	f89d 3005 	ldrb.w	r3, [sp, #5]
 8005bc0:	431a      	orrs	r2, r3
  zValue = (zSecond << 8) | zFirst;
 8005bc2:	f89d 3002 	ldrb.w	r3, [sp, #2]
 8005bc6:	021b      	lsls	r3, r3, #8
 8005bc8:	b21b      	sxth	r3, r3
 8005bca:	f89d 0003 	ldrb.w	r0, [sp, #3]
 8005bce:	4303      	orrs	r3, r0
  MAGWorkingValues.x = xValue;
 8005bd0:	4804      	ldr	r0, [pc, #16]	; (8005be4 <readMag+0x88>)
 8005bd2:	f8a0 10c8 	strh.w	r1, [r0, #200]	; 0xc8
  MAGWorkingValues.y = yValue;
 8005bd6:	f8a0 20ca 	strh.w	r2, [r0, #202]	; 0xca
  MAGWorkingValues.z = zValue;
 8005bda:	f8a0 30cc 	strh.w	r3, [r0, #204]	; 0xcc
}
 8005bde:	b003      	add	sp, #12
 8005be0:	f85d fb04 	ldr.w	pc, [sp], #4
 8005be4:	20000318 	.word	0x20000318

08005be8 <BSP_LSM303AGR_ReadReg_Acc>:
static int32_t BSP_LSM303AGR_ReadReg_Acc(uint16_t Reg, uint8_t* pdata, uint16_t len) {
 8005be8:	b570      	push	{r4, r5, r6, lr}
 8005bea:	460d      	mov	r5, r1
 8005bec:	4614      	mov	r4, r2
  uint8_t dataReg = (uint8_t)Reg;
 8005bee:	b2c6      	uxtb	r6, r0
  LSM_ACC_CS_LOW();
 8005bf0:	2200      	movs	r2, #0
 8005bf2:	2110      	movs	r1, #16
 8005bf4:	481c      	ldr	r0, [pc, #112]	; (8005c68 <BSP_LSM303AGR_ReadReg_Acc+0x80>)
 8005bf6:	f001 f996 	bl	8006f26 <HAL_GPIO_WritePin>
  if (len > 1) {
 8005bfa:	2c01      	cmp	r4, #1
 8005bfc:	d928      	bls.n	8005c50 <BSP_LSM303AGR_ReadReg_Acc+0x68>
    LSM303AGR_SPI_Write(&hbusspi2, (dataReg) | 0x80 | 0x40);
 8005bfe:	f046 01c0 	orr.w	r1, r6, #192	; 0xc0
 8005c02:	481a      	ldr	r0, [pc, #104]	; (8005c6c <BSP_LSM303AGR_ReadReg_Acc+0x84>)
 8005c04:	f7ff ff5e 	bl	8005ac4 <LSM303AGR_SPI_Write>
  __HAL_SPI_DISABLE(&hbusspi2);
 8005c08:	4a18      	ldr	r2, [pc, #96]	; (8005c6c <BSP_LSM303AGR_ReadReg_Acc+0x84>)
 8005c0a:	6811      	ldr	r1, [r2, #0]
 8005c0c:	680b      	ldr	r3, [r1, #0]
 8005c0e:	f023 0340 	bic.w	r3, r3, #64	; 0x40
 8005c12:	600b      	str	r3, [r1, #0]
  SPI_1LINE_RX(&hbusspi2);
 8005c14:	6812      	ldr	r2, [r2, #0]
 8005c16:	6813      	ldr	r3, [r2, #0]
 8005c18:	f423 4380 	bic.w	r3, r3, #16384	; 0x4000
 8005c1c:	6013      	str	r3, [r2, #0]
  if (len > 1) {
 8005c1e:	2c01      	cmp	r4, #1
 8005c20:	d91c      	bls.n	8005c5c <BSP_LSM303AGR_ReadReg_Acc+0x74>
    LSM303AGR_SPI_Read_nBytes(&hbusspi2, (pdata), len);
 8005c22:	4622      	mov	r2, r4
 8005c24:	4629      	mov	r1, r5
 8005c26:	4811      	ldr	r0, [pc, #68]	; (8005c6c <BSP_LSM303AGR_ReadReg_Acc+0x84>)
 8005c28:	f7ff ff02 	bl	8005a30 <LSM303AGR_SPI_Read_nBytes>
  LSM_ACC_CS_HIGH();
 8005c2c:	2201      	movs	r2, #1
 8005c2e:	2110      	movs	r1, #16
 8005c30:	480d      	ldr	r0, [pc, #52]	; (8005c68 <BSP_LSM303AGR_ReadReg_Acc+0x80>)
 8005c32:	f001 f978 	bl	8006f26 <HAL_GPIO_WritePin>
  SPI_1LINE_TX(&hbusspi2);
 8005c36:	4a0d      	ldr	r2, [pc, #52]	; (8005c6c <BSP_LSM303AGR_ReadReg_Acc+0x84>)
 8005c38:	6811      	ldr	r1, [r2, #0]
 8005c3a:	680b      	ldr	r3, [r1, #0]
 8005c3c:	f443 4380 	orr.w	r3, r3, #16384	; 0x4000
 8005c40:	600b      	str	r3, [r1, #0]
  __HAL_SPI_ENABLE(&hbusspi2);
 8005c42:	6812      	ldr	r2, [r2, #0]
 8005c44:	6813      	ldr	r3, [r2, #0]
 8005c46:	f043 0340 	orr.w	r3, r3, #64	; 0x40
 8005c4a:	6013      	str	r3, [r2, #0]
}
 8005c4c:	2000      	movs	r0, #0
 8005c4e:	bd70      	pop	{r4, r5, r6, pc}
    LSM303AGR_SPI_Write(&hbusspi2, (dataReg) | 0x80);
 8005c50:	f046 0180 	orr.w	r1, r6, #128	; 0x80
 8005c54:	4805      	ldr	r0, [pc, #20]	; (8005c6c <BSP_LSM303AGR_ReadReg_Acc+0x84>)
 8005c56:	f7ff ff35 	bl	8005ac4 <LSM303AGR_SPI_Write>
 8005c5a:	e7d5      	b.n	8005c08 <BSP_LSM303AGR_ReadReg_Acc+0x20>
    LSM303AGR_SPI_Read(&hbusspi2, (pdata));
 8005c5c:	4629      	mov	r1, r5
 8005c5e:	4803      	ldr	r0, [pc, #12]	; (8005c6c <BSP_LSM303AGR_ReadReg_Acc+0x84>)
 8005c60:	f7ff ff13 	bl	8005a8a <LSM303AGR_SPI_Read>
 8005c64:	e7e2      	b.n	8005c2c <BSP_LSM303AGR_ReadReg_Acc+0x44>
 8005c66:	bf00      	nop
 8005c68:	48000800 	.word	0x48000800
 8005c6c:	20002570 	.word	0x20002570

08005c70 <InitLSM>:
static void InitLSM() {
 8005c70:	b510      	push	{r4, lr}
 8005c72:	b084      	sub	sp, #16
  Sensor_IO_SPI_CS_Init_All();
 8005c74:	f7ff fdee 	bl	8005854 <Sensor_IO_SPI_CS_Init_All>
  inData[0] = 0x01;
 8005c78:	2401      	movs	r4, #1
 8005c7a:	f88d 4004 	strb.w	r4, [sp, #4]
  BSP_LSM303AGR_WriteReg_Acc(0x23, inData, 1);
 8005c7e:	4622      	mov	r2, r4
 8005c80:	a901      	add	r1, sp, #4
 8005c82:	2023      	movs	r0, #35	; 0x23
 8005c84:	f7ff fbe6 	bl	8005454 <BSP_LSM303AGR_WriteReg_Acc>
  inData[0] = 0x20;
 8005c88:	2320      	movs	r3, #32
 8005c8a:	f88d 3004 	strb.w	r3, [sp, #4]
  BSP_LSM303AGR_WriteReg_Mag(0x62, inData, 1);
 8005c8e:	4622      	mov	r2, r4
 8005c90:	a901      	add	r1, sp, #4
 8005c92:	2062      	movs	r0, #98	; 0x62
 8005c94:	f7ff fc40 	bl	8005518 <BSP_LSM303AGR_WriteReg_Mag>
  BSP_LSM303AGR_ReadReg_Mag(0x4F, inData, 1);
 8005c98:	4622      	mov	r2, r4
 8005c9a:	a901      	add	r1, sp, #4
 8005c9c:	204f      	movs	r0, #79	; 0x4f
 8005c9e:	f7ff ff21 	bl	8005ae4 <BSP_LSM303AGR_ReadReg_Mag>
  BSP_LSM303AGR_ReadReg_Acc(0x0F, inData, 1);
 8005ca2:	4622      	mov	r2, r4
 8005ca4:	a901      	add	r1, sp, #4
 8005ca6:	200f      	movs	r0, #15
 8005ca8:	f7ff ff9e 	bl	8005be8 <BSP_LSM303AGR_ReadReg_Acc>
}
 8005cac:	b004      	add	sp, #16
 8005cae:	bd10      	pop	{r4, pc}

08005cb0 <readAcc>:
static void readAcc() {
 8005cb0:	b500      	push	{lr}
 8005cb2:	b083      	sub	sp, #12
  BSP_LSM303AGR_ReadReg_Acc(0x28, &xFirst, 1);
 8005cb4:	2201      	movs	r2, #1
 8005cb6:	f10d 0107 	add.w	r1, sp, #7
 8005cba:	2028      	movs	r0, #40	; 0x28
 8005cbc:	f7ff ff94 	bl	8005be8 <BSP_LSM303AGR_ReadReg_Acc>
  BSP_LSM303AGR_ReadReg_Acc(0x29, &xSecond, 1);
 8005cc0:	2201      	movs	r2, #1
 8005cc2:	f10d 0106 	add.w	r1, sp, #6
 8005cc6:	2029      	movs	r0, #41	; 0x29
 8005cc8:	f7ff ff8e 	bl	8005be8 <BSP_LSM303AGR_ReadReg_Acc>
  BSP_LSM303AGR_ReadReg_Acc(0x2A, &yFirst, 1);
 8005ccc:	2201      	movs	r2, #1
 8005cce:	f10d 0105 	add.w	r1, sp, #5
 8005cd2:	202a      	movs	r0, #42	; 0x2a
 8005cd4:	f7ff ff88 	bl	8005be8 <BSP_LSM303AGR_ReadReg_Acc>
  BSP_LSM303AGR_ReadReg_Acc(0x2B, &ySecond, 1);
 8005cd8:	2201      	movs	r2, #1
 8005cda:	a901      	add	r1, sp, #4
 8005cdc:	202b      	movs	r0, #43	; 0x2b
 8005cde:	f7ff ff83 	bl	8005be8 <BSP_LSM303AGR_ReadReg_Acc>
  BSP_LSM303AGR_ReadReg_Acc(0x2C, &zFirst, 1);
 8005ce2:	2201      	movs	r2, #1
 8005ce4:	f10d 0103 	add.w	r1, sp, #3
 8005ce8:	202c      	movs	r0, #44	; 0x2c
 8005cea:	f7ff ff7d 	bl	8005be8 <BSP_LSM303AGR_ReadReg_Acc>
  BSP_LSM303AGR_ReadReg_Acc(0x2D, &zSecond, 1);
 8005cee:	2201      	movs	r2, #1
 8005cf0:	f10d 0102 	add.w	r1, sp, #2
 8005cf4:	202d      	movs	r0, #45	; 0x2d
 8005cf6:	f7ff ff77 	bl	8005be8 <BSP_LSM303AGR_ReadReg_Acc>
  xValue = (xSecond << 8) | xFirst;
 8005cfa:	f89d 1006 	ldrb.w	r1, [sp, #6]
 8005cfe:	0209      	lsls	r1, r1, #8
 8005d00:	b209      	sxth	r1, r1
 8005d02:	f89d 3007 	ldrb.w	r3, [sp, #7]
 8005d06:	4319      	orrs	r1, r3
  yValue = (ySecond << 8) | yFirst;
 8005d08:	f89d 2004 	ldrb.w	r2, [sp, #4]
 8005d0c:	0212      	lsls	r2, r2, #8
 8005d0e:	b212      	sxth	r2, r2
 8005d10:	f89d 3005 	ldrb.w	r3, [sp, #5]
 8005d14:	431a      	orrs	r2, r3
  zValue = (zSecond << 8) | zFirst;
 8005d16:	f89d 3002 	ldrb.w	r3, [sp, #2]
 8005d1a:	021b      	lsls	r3, r3, #8
 8005d1c:	b21b      	sxth	r3, r3
 8005d1e:	f89d 0003 	ldrb.w	r0, [sp, #3]
 8005d22:	4303      	orrs	r3, r0
  xValue = xValue >> 4;
 8005d24:	1109      	asrs	r1, r1, #4
  yValue = yValue >> 4;
 8005d26:	1112      	asrs	r2, r2, #4
  zValue = zValue >> 4;
 8005d28:	111b      	asrs	r3, r3, #4
  ACCWorkingValues.x = xValue;
 8005d2a:	4803      	ldr	r0, [pc, #12]	; (8005d38 <readAcc+0x88>)
 8005d2c:	8401      	strh	r1, [r0, #32]
  ACCWorkingValues.y = yValue;
 8005d2e:	8442      	strh	r2, [r0, #34]	; 0x22
  ACCWorkingValues.z = zValue;
 8005d30:	8483      	strh	r3, [r0, #36]	; 0x24
}
 8005d32:	b003      	add	sp, #12
 8005d34:	f85d fb04 	ldr.w	pc, [sp], #4
 8005d38:	20000318 	.word	0x20000318

08005d3c <HAL_Delay>:
  *        on variable incremented.
  * @note This is a user implementation using WFI state
  * @param Delay: specifies the delay time length, in milliseconds.
  * @retval None
  */
void HAL_Delay(__IO uint32_t Delay) {
 8005d3c:	b510      	push	{r4, lr}
 8005d3e:	b082      	sub	sp, #8
 8005d40:	9001      	str	r0, [sp, #4]
  uint32_t tickstart = 0;
  tickstart = HAL_GetTick();
 8005d42:	f000 fef3 	bl	8006b2c <HAL_GetTick>
 8005d46:	4604      	mov	r4, r0
  while ((HAL_GetTick() - tickstart) < Delay) {
 8005d48:	e000      	b.n	8005d4c <HAL_Delay+0x10>
    __WFI();
 8005d4a:	bf30      	wfi
  while ((HAL_GetTick() - tickstart) < Delay) {
 8005d4c:	f000 feee 	bl	8006b2c <HAL_GetTick>
 8005d50:	1b00      	subs	r0, r0, r4
 8005d52:	9b01      	ldr	r3, [sp, #4]
 8005d54:	4298      	cmp	r0, r3
 8005d56:	d3f8      	bcc.n	8005d4a <HAL_Delay+0xe>
  }
}
 8005d58:	b002      	add	sp, #8
 8005d5a:	bd10      	pop	{r4, pc}

08005d5c <InitTargetPlatform>:
void InitTargetPlatform(void) {
 8005d5c:	b510      	push	{r4, lr}
  HAL_PWREx_EnableVddUSB();
 8005d5e:	f001 fe4b 	bl	80079f8 <HAL_PWREx_EnableVddUSB>
  USBD_Init(&USBD_Device, &VCP_Desc, 0);
 8005d62:	4c0d      	ldr	r4, [pc, #52]	; (8005d98 <InitTargetPlatform+0x3c>)
 8005d64:	2200      	movs	r2, #0
 8005d66:	490d      	ldr	r1, [pc, #52]	; (8005d9c <InitTargetPlatform+0x40>)
 8005d68:	4620      	mov	r0, r4
 8005d6a:	f005 fc43 	bl	800b5f4 <USBD_Init>
  USBD_RegisterClass(&USBD_Device, USBD_CDC_CLASS);
 8005d6e:	490c      	ldr	r1, [pc, #48]	; (8005da0 <InitTargetPlatform+0x44>)
 8005d70:	4620      	mov	r0, r4
 8005d72:	f005 fc56 	bl	800b622 <USBD_RegisterClass>
  USBD_CDC_RegisterInterface(&USBD_Device, &USBD_CDC_fops);
 8005d76:	490b      	ldr	r1, [pc, #44]	; (8005da4 <InitTargetPlatform+0x48>)
 8005d78:	4620      	mov	r0, r4
 8005d7a:	f005 fc06 	bl	800b58a <USBD_CDC_RegisterInterface>
  USBD_Start(&USBD_Device);
 8005d7e:	4620      	mov	r0, r4
 8005d80:	f005 fc66 	bl	800b650 <USBD_Start>
  HAL_Delay(5000);
 8005d84:	f241 3088 	movw	r0, #5000	; 0x1388
 8005d88:	f7ff ffd8 	bl	8005d3c <HAL_Delay>
  BSP_LED_Init(LED1);
 8005d8c:	2000      	movs	r0, #0
 8005d8e:	f000 fd05 	bl	800679c <BSP_LED_Init>
  InitLSM(); //N4S  //TODO: Fix maybe
 8005d92:	f7ff ff6d 	bl	8005c70 <InitLSM>
}
 8005d96:	bd10      	pop	{r4, pc}
 8005d98:	200003e8 	.word	0x200003e8
 8005d9c:	20000058 	.word	0x20000058
 8005da0:	20000160 	.word	0x20000160
 8005da4:	20000010 	.word	0x20000010

08005da8 <Error_Handler>:
  * @param  None
  * @retval None
  */
void Error_Handler(void) {
  /* User may add here some code to deal with this error */
  while (1) {
 8005da8:	e7fe      	b.n	8005da8 <Error_Handler>
	...

08005dac <InitTimers>:
static void InitTimers(void) {
 8005dac:	b5f0      	push	{r4, r5, r6, r7, lr}
 8005dae:	b089      	sub	sp, #36	; 0x24
  uwPrescalerValue = (uint32_t)((SystemCoreClock / 10000) - 1);
 8005db0:	4f2d      	ldr	r7, [pc, #180]	; (8005e68 <InitTimers+0xbc>)
 8005db2:	683b      	ldr	r3, [r7, #0]
 8005db4:	4e2d      	ldr	r6, [pc, #180]	; (8005e6c <InitTimers+0xc0>)
 8005db6:	fba6 2303 	umull	r2, r3, r6, r3
 8005dba:	0b5b      	lsrs	r3, r3, #13
 8005dbc:	3b01      	subs	r3, #1
  TimEnvHandle.Instance = TIM4;
 8005dbe:	4c2c      	ldr	r4, [pc, #176]	; (8005e70 <InitTimers+0xc4>)
 8005dc0:	4a2c      	ldr	r2, [pc, #176]	; (8005e74 <InitTimers+0xc8>)
 8005dc2:	67a2      	str	r2, [r4, #120]	; 0x78
  TimEnvHandle.Init.Period = 65;//5; //HACK changed this to increase read speed
 8005dc4:	2241      	movs	r2, #65	; 0x41
 8005dc6:	f8c4 2084 	str.w	r2, [r4, #132]	; 0x84
  TimEnvHandle.Init.Prescaler = uwPrescalerValue;
 8005dca:	67e3      	str	r3, [r4, #124]	; 0x7c
  TimEnvHandle.Init.ClockDivision = 0;
 8005dcc:	2500      	movs	r5, #0
 8005dce:	f8c4 5088 	str.w	r5, [r4, #136]	; 0x88
  TimEnvHandle.Init.CounterMode = TIM_COUNTERMODE_UP;
 8005dd2:	f8c4 5080 	str.w	r5, [r4, #128]	; 0x80
  if (HAL_TIM_Base_Init(&TimEnvHandle) != HAL_OK) {
 8005dd6:	f104 0078 	add.w	r0, r4, #120	; 0x78
 8005dda:	f003 fdab 	bl	8009934 <HAL_TIM_Base_Init>
  uwPrescalerValue = (uint32_t)((SystemCoreClock / 10000) - 1);
 8005dde:	683b      	ldr	r3, [r7, #0]
 8005de0:	fba6 6303 	umull	r6, r3, r6, r3
 8005de4:	0b5b      	lsrs	r3, r3, #13
 8005de6:	3b01      	subs	r3, #1
  TimCCHandle.Instance = TIM1;
 8005de8:	4a23      	ldr	r2, [pc, #140]	; (8005e78 <InitTimers+0xcc>)
 8005dea:	62a2      	str	r2, [r4, #40]	; 0x28
  TimCCHandle.Init.Period = 65535;
 8005dec:	f64f 72ff 	movw	r2, #65535	; 0xffff
 8005df0:	6362      	str	r2, [r4, #52]	; 0x34
  TimCCHandle.Init.Prescaler = uwPrescalerValue;
 8005df2:	62e3      	str	r3, [r4, #44]	; 0x2c
  TimCCHandle.Init.ClockDivision = 0;
 8005df4:	63a5      	str	r5, [r4, #56]	; 0x38
  TimCCHandle.Init.CounterMode = TIM_COUNTERMODE_UP;
 8005df6:	6325      	str	r5, [r4, #48]	; 0x30
  if (HAL_TIM_OC_Init(&TimCCHandle) != HAL_OK) {
 8005df8:	f104 0028 	add.w	r0, r4, #40	; 0x28
 8005dfc:	f003 fdca 	bl	8009994 <HAL_TIM_OC_Init>
 8005e00:	bb40      	cbnz	r0, 8005e54 <InitTimers+0xa8>
  sConfig.OCMode = TIM_OCMODE_TOGGLE;
 8005e02:	2330      	movs	r3, #48	; 0x30
 8005e04:	9301      	str	r3, [sp, #4]
  sConfig.OCPolarity = TIM_OCPOLARITY_LOW;
 8005e06:	2302      	movs	r3, #2
 8005e08:	9303      	str	r3, [sp, #12]
  sConfig.Pulse = DEFAULT_uhCCR1_Val;
 8005e0a:	2364      	movs	r3, #100	; 0x64
 8005e0c:	9302      	str	r3, [sp, #8]
  if (HAL_TIM_OC_ConfigChannel(&TimCCHandle, &sConfig, TIM_CHANNEL_1) != HAL_OK) {
 8005e0e:	2200      	movs	r2, #0
 8005e10:	a901      	add	r1, sp, #4
 8005e12:	481a      	ldr	r0, [pc, #104]	; (8005e7c <InitTimers+0xd0>)
 8005e14:	f003 fe34 	bl	8009a80 <HAL_TIM_OC_ConfigChannel>
 8005e18:	b9f0      	cbnz	r0, 8005e58 <InitTimers+0xac>
  sConfig.Pulse = DEFAULT_uhCCR2_Val;
 8005e1a:	23c8      	movs	r3, #200	; 0xc8
 8005e1c:	9302      	str	r3, [sp, #8]
  if (HAL_TIM_OC_ConfigChannel(&TimCCHandle, &sConfig, TIM_CHANNEL_2) != HAL_OK) {
 8005e1e:	2204      	movs	r2, #4
 8005e20:	eb0d 0102 	add.w	r1, sp, r2
 8005e24:	4815      	ldr	r0, [pc, #84]	; (8005e7c <InitTimers+0xd0>)
 8005e26:	f003 fe2b 	bl	8009a80 <HAL_TIM_OC_ConfigChannel>
 8005e2a:	b9b8      	cbnz	r0, 8005e5c <InitTimers+0xb0>
  sConfig.Pulse = DEFAULT_uhCCR3_Val;
 8005e2c:	f240 2371 	movw	r3, #625	; 0x271
 8005e30:	9302      	str	r3, [sp, #8]
  if (HAL_TIM_OC_ConfigChannel(&TimCCHandle, &sConfig, TIM_CHANNEL_3) != HAL_OK) {
 8005e32:	2208      	movs	r2, #8
 8005e34:	a901      	add	r1, sp, #4
 8005e36:	4811      	ldr	r0, [pc, #68]	; (8005e7c <InitTimers+0xd0>)
 8005e38:	f003 fe22 	bl	8009a80 <HAL_TIM_OC_ConfigChannel>
 8005e3c:	b980      	cbnz	r0, 8005e60 <InitTimers+0xb4>
  sConfig.Pulse = DEFAULT_uhCCR4_Val;
 8005e3e:	f44f 73fa 	mov.w	r3, #500	; 0x1f4
 8005e42:	9302      	str	r3, [sp, #8]
  if (HAL_TIM_OC_ConfigChannel(&TimCCHandle, &sConfig, TIM_CHANNEL_4) != HAL_OK) {
 8005e44:	220c      	movs	r2, #12
 8005e46:	a901      	add	r1, sp, #4
 8005e48:	480c      	ldr	r0, [pc, #48]	; (8005e7c <InitTimers+0xd0>)
 8005e4a:	f003 fe19 	bl	8009a80 <HAL_TIM_OC_ConfigChannel>
 8005e4e:	b948      	cbnz	r0, 8005e64 <InitTimers+0xb8>
}
 8005e50:	b009      	add	sp, #36	; 0x24
 8005e52:	bdf0      	pop	{r4, r5, r6, r7, pc}
    Error_Handler();
 8005e54:	f7ff ffa8 	bl	8005da8 <Error_Handler>
    Error_Handler();
 8005e58:	f7ff ffa6 	bl	8005da8 <Error_Handler>
    Error_Handler();
 8005e5c:	f7ff ffa4 	bl	8005da8 <Error_Handler>
    Error_Handler();
 8005e60:	f7ff ffa2 	bl	8005da8 <Error_Handler>
    Error_Handler();
 8005e64:	f7ff ffa0 	bl	8005da8 <Error_Handler>
 8005e68:	2000007c 	.word	0x2000007c
 8005e6c:	d1b71759 	.word	0xd1b71759
 8005e70:	20000318 	.word	0x20000318
 8005e74:	40000800 	.word	0x40000800
 8005e78:	40012c00 	.word	0x40012c00
 8005e7c:	20000340 	.word	0x20000340

08005e80 <main>:
int main(void) {
 8005e80:	e92d 4ff0 	stmdb	sp!, {r4, r5, r6, r7, r8, r9, sl, fp, lr}
 8005e84:	b09f      	sub	sp, #124	; 0x7c
  HAL_Init();
 8005e86:	f000 fe35 	bl	8006af4 <HAL_Init>
  SystemClock_Config();
 8005e8a:	f7ff fa79 	bl	8005380 <SystemClock_Config>
  InitTargetPlatform();
 8005e8e:	f7ff ff65 	bl	8005d5c <InitTargetPlatform>
  Init_BlueNRG_Stack();
 8005e92:	f7ff fb8b 	bl	80055ac <Init_BlueNRG_Stack>
  Init_BlueNRG_Custom_Services();
 8005e96:	f7ff fc79 	bl	800578c <Init_BlueNRG_Custom_Services>
  InitTimers();
 8005e9a:	f7ff ff87 	bl	8005dac <InitTimers>
  if (HAL_TIM_Base_Start_IT(&TimEnvHandle) != HAL_OK) {
 8005e9e:	48a4      	ldr	r0, [pc, #656]	; (8006130 <main+0x2b0>)
 8005ea0:	f003 fbb4 	bl	800960c <HAL_TIM_Base_Start_IT>
 8005ea4:	9003      	str	r0, [sp, #12]
 8005ea6:	b108      	cbz	r0, 8005eac <main+0x2c>
    Error_Handler();
 8005ea8:	f7ff ff7e 	bl	8005da8 <Error_Handler>
  connected = FALSE;
 8005eac:	2700      	movs	r7, #0
 8005eae:	4ba1      	ldr	r3, [pc, #644]	; (8006134 <main+0x2b4>)
 8005eb0:	601f      	str	r7, [r3, #0]
  NodeName[1] = 'B';
 8005eb2:	4ba1      	ldr	r3, [pc, #644]	; (8006138 <main+0x2b8>)
 8005eb4:	2242      	movs	r2, #66	; 0x42
 8005eb6:	f883 23a1 	strb.w	r2, [r3, #929]	; 0x3a1
  NodeName[2] = 'e';
 8005eba:	2265      	movs	r2, #101	; 0x65
 8005ebc:	f883 23a2 	strb.w	r2, [r3, #930]	; 0x3a2
  NodeName[3] = 'c';
 8005ec0:	2263      	movs	r2, #99	; 0x63
 8005ec2:	f883 23a3 	strb.w	r2, [r3, #931]	; 0x3a3
  NodeName[4] = 'k';
 8005ec6:	226b      	movs	r2, #107	; 0x6b
 8005ec8:	f883 23a4 	strb.w	r2, [r3, #932]	; 0x3a4
  NodeName[5] = '7';
 8005ecc:	2237      	movs	r2, #55	; 0x37
 8005ece:	f883 23a5 	strb.w	r2, [r3, #933]	; 0x3a5
  NodeName[6] = '0';
 8005ed2:	2230      	movs	r2, #48	; 0x30
 8005ed4:	f883 23a6 	strb.w	r2, [r3, #934]	; 0x3a6
  NodeName[7] = '4';
 8005ed8:	2234      	movs	r2, #52	; 0x34
 8005eda:	f883 23a7 	strb.w	r2, [r3, #935]	; 0x3a7
  startMag();
 8005ede:	f7ff fb45 	bl	800556c <startMag>
  startAcc();
 8005ee2:	f7ff fae1 	bl	80054a8 <startAcc>
  uint8_t stepState = STEADY;
 8005ee6:	9e03      	ldr	r6, [sp, #12]
  double calcHeading = 0;
 8005ee8:	ed9f 7b8b 	vldr	d7, [pc, #556]	; 8006118 <main+0x298>
 8005eec:	ed8d 7b00 	vstr	d7, [sp]
  double heading = 0;
 8005ef0:	ec5b ab17 	vmov	sl, fp, d7
  int32_t yDistance = 0; 
 8005ef4:	46b8      	mov	r8, r7
 8005ef6:	e0ec      	b.n	80060d2 <main+0x252>
      if (!(HAL_GetTick() & 0x3FF)) {
 8005ef8:	f000 fe18 	bl	8006b2c <HAL_GetTick>
 8005efc:	f3c0 0009 	ubfx	r0, r0, #0, #10
 8005f00:	2800      	cmp	r0, #0
 8005f02:	f040 80eb 	bne.w	80060dc <main+0x25c>
        BSP_LED_Toggle(LED1);
 8005f06:	f000 fc89 	bl	800681c <BSP_LED_Toggle>
 8005f0a:	e0e7      	b.n	80060dc <main+0x25c>
      setConnectable();
 8005f0c:	f7ff f80c 	bl	8004f28 <setConnectable>
      set_connectable = FALSE;
 8005f10:	4b8a      	ldr	r3, [pc, #552]	; (800613c <main+0x2bc>)
 8005f12:	2200      	movs	r2, #0
 8005f14:	701a      	strb	r2, [r3, #0]
 8005f16:	e0e6      	b.n	80060e6 <main+0x266>
      HCI_ProcessEvent = 0;
 8005f18:	4b87      	ldr	r3, [pc, #540]	; (8006138 <main+0x2b8>)
 8005f1a:	2200      	movs	r2, #0
 8005f1c:	f8c3 23a8 	str.w	r2, [r3, #936]	; 0x3a8
      hci_user_evt_proc();
 8005f20:	f005 f8f6 	bl	800b110 <hci_user_evt_proc>
 8005f24:	e0e5      	b.n	80060f2 <main+0x272>
      ReadSensor = 0;
 8005f26:	4c84      	ldr	r4, [pc, #528]	; (8006138 <main+0x2b8>)
 8005f28:	2300      	movs	r3, #0
 8005f2a:	f8c4 30c4 	str.w	r3, [r4, #196]	; 0xc4
      readMag();
 8005f2e:	f7ff fe15 	bl	8005b5c <readMag>
      readAcc();
 8005f32:	f7ff febd 	bl	8005cb0 <readAcc>
      ACCWorkingValues.z -= 1000; //? remove the effects of gravity on a level sensor
 8005f36:	8ca3      	ldrh	r3, [r4, #36]	; 0x24
 8005f38:	f5a3 737a 	sub.w	r3, r3, #1000	; 0x3e8
 8005f3c:	b21b      	sxth	r3, r3
 8005f3e:	84a3      	strh	r3, [r4, #36]	; 0x24
      if ((ACCWorkingValues.z > LevelAccelLower) && (ACCWorkingValues.z < LevelAccelUpper)) { //? Sensor is level
 8005f40:	8ca3      	ldrh	r3, [r4, #36]	; 0x24
 8005f42:	b21b      	sxth	r3, r3
 8005f44:	2b19      	cmp	r3, #25
 8005f46:	dd03      	ble.n	8005f50 <main+0xd0>
 8005f48:	8ca3      	ldrh	r3, [r4, #36]	; 0x24
 8005f4a:	b21b      	sxth	r3, r3
 8005f4c:	2b1d      	cmp	r3, #29
 8005f4e:	dd11      	ble.n	8005f74 <main+0xf4>
      for (int i = 0; i < averageCount - 1; i++) {
 8005f50:	2300      	movs	r3, #0
 8005f52:	2b30      	cmp	r3, #48	; 0x30
 8005f54:	dc45      	bgt.n	8005fe2 <main+0x162>
        pastAccel[averageCount - 1 - i] = pastAccel[averageCount - 1 - i - 1];
 8005f56:	f1c3 0130 	rsb	r1, r3, #48	; 0x30
 8005f5a:	f1c3 0231 	rsb	r2, r3, #49	; 0x31
 8005f5e:	a81e      	add	r0, sp, #120	; 0x78
 8005f60:	eb00 0141 	add.w	r1, r0, r1, lsl #1
 8005f64:	f931 1c64 	ldrsh.w	r1, [r1, #-100]
 8005f68:	eb00 0242 	add.w	r2, r0, r2, lsl #1
 8005f6c:	f822 1c64 	strh.w	r1, [r2, #-100]
      for (int i = 0; i < averageCount - 1; i++) {
 8005f70:	3301      	adds	r3, #1
 8005f72:	e7ee      	b.n	8005f52 <main+0xd2>
        calcHeading = atan2((int16_t)MAGWorkingValues.x, (int16_t)MAGWorkingValues.y); //? left in radians for c functions
 8005f74:	f8b4 90c8 	ldrh.w	r9, [r4, #200]	; 0xc8
 8005f78:	fa0f f989 	sxth.w	r9, r9
 8005f7c:	f8b4 00ca 	ldrh.w	r0, [r4, #202]	; 0xca
 8005f80:	b200      	sxth	r0, r0
 8005f82:	f7fe fac7 	bl	8004514 <__aeabi_i2d>
 8005f86:	4604      	mov	r4, r0
 8005f88:	460d      	mov	r5, r1
 8005f8a:	4648      	mov	r0, r9
 8005f8c:	f7fe fac2 	bl	8004514 <__aeabi_i2d>
 8005f90:	4622      	mov	r2, r4
 8005f92:	462b      	mov	r3, r5
 8005f94:	f006 f85c 	bl	800c050 <atan2>
 8005f98:	4604      	mov	r4, r0
 8005f9a:	460d      	mov	r5, r1
        heading = calcHeading * (180 / PI);//? calculate heading in degrees for display
 8005f9c:	a360      	add	r3, pc, #384	; (adr r3, 8006120 <main+0x2a0>)
 8005f9e:	e9d3 2300 	ldrd	r2, r3, [r3]
 8005fa2:	f7fe fb21 	bl	80045e8 <__aeabi_dmul>
        heading = heading - 180;
 8005fa6:	2200      	movs	r2, #0
 8005fa8:	4b65      	ldr	r3, [pc, #404]	; (8006140 <main+0x2c0>)
 8005faa:	f7fe f965 	bl	8004278 <__aeabi_dsub>
 8005fae:	4682      	mov	sl, r0
 8005fb0:	468b      	mov	fp, r1
        if (heading < 0) {
 8005fb2:	2200      	movs	r2, #0
 8005fb4:	2300      	movs	r3, #0
 8005fb6:	f7fe fd89 	bl	8004acc <__aeabi_dcmplt>
 8005fba:	b948      	cbnz	r0, 8005fd0 <main+0x150>
        calcHeading = calcHeading - PI;
 8005fbc:	a35a      	add	r3, pc, #360	; (adr r3, 8006128 <main+0x2a8>)
 8005fbe:	e9d3 2300 	ldrd	r2, r3, [r3]
 8005fc2:	4620      	mov	r0, r4
 8005fc4:	4629      	mov	r1, r5
 8005fc6:	f7fe f957 	bl	8004278 <__aeabi_dsub>
 8005fca:	e9cd 0100 	strd	r0, r1, [sp]
 8005fce:	e7bf      	b.n	8005f50 <main+0xd0>
          heading = heading + 360;
 8005fd0:	2200      	movs	r2, #0
 8005fd2:	4b5c      	ldr	r3, [pc, #368]	; (8006144 <main+0x2c4>)
 8005fd4:	4650      	mov	r0, sl
 8005fd6:	4659      	mov	r1, fp
 8005fd8:	f7fe f950 	bl	800427c <__adddf3>
 8005fdc:	4682      	mov	sl, r0
 8005fde:	468b      	mov	fp, r1
 8005fe0:	e7ec      	b.n	8005fbc <main+0x13c>
      pastAccel[0] = ACCWorkingValues.z;
 8005fe2:	4b55      	ldr	r3, [pc, #340]	; (8006138 <main+0x2b8>)
 8005fe4:	8c9b      	ldrh	r3, [r3, #36]	; 0x24
 8005fe6:	f8ad 3014 	strh.w	r3, [sp, #20]
      for (int i = 0; i < averageCount; i++) {
 8005fea:	f04f 0900 	mov.w	r9, #0
      averageAccel = 0;
 8005fee:	2400      	movs	r4, #0
 8005ff0:	2500      	movs	r5, #0
      for (int i = 0; i < averageCount; i++) {
 8005ff2:	e010      	b.n	8006016 <main+0x196>
        averageAccel += pastAccel[i];
 8005ff4:	ab1e      	add	r3, sp, #120	; 0x78
 8005ff6:	eb03 0349 	add.w	r3, r3, r9, lsl #1
 8005ffa:	f933 0c64 	ldrsh.w	r0, [r3, #-100]
 8005ffe:	f7fe fa89 	bl	8004514 <__aeabi_i2d>
 8006002:	4602      	mov	r2, r0
 8006004:	460b      	mov	r3, r1
 8006006:	4620      	mov	r0, r4
 8006008:	4629      	mov	r1, r5
 800600a:	f7fe f937 	bl	800427c <__adddf3>
 800600e:	4604      	mov	r4, r0
 8006010:	460d      	mov	r5, r1
      for (int i = 0; i < averageCount; i++) {
 8006012:	f109 0901 	add.w	r9, r9, #1
 8006016:	f1b9 0f31 	cmp.w	r9, #49	; 0x31
 800601a:	ddeb      	ble.n	8005ff4 <main+0x174>
      averageAccel = averageAccel / averageCount;
 800601c:	2200      	movs	r2, #0
 800601e:	4b4a      	ldr	r3, [pc, #296]	; (8006148 <main+0x2c8>)
 8006020:	4620      	mov	r0, r4
 8006022:	4629      	mov	r1, r5
 8006024:	f7fe fc0a 	bl	800483c <__aeabi_ddiv>
      switch (stepState) {
 8006028:	b1d6      	cbz	r6, 8006060 <main+0x1e0>
 800602a:	2e01      	cmp	r6, #1
 800602c:	d020      	beq.n	8006070 <main+0x1f0>
      ACC_Value.x = ACCWorkingValues.x;
 800602e:	4c42      	ldr	r4, [pc, #264]	; (8006138 <main+0x2b8>)
 8006030:	8c23      	ldrh	r3, [r4, #32]
 8006032:	8323      	strh	r3, [r4, #24]
      ACC_Value.y = ACCWorkingValues.y;
 8006034:	8c63      	ldrh	r3, [r4, #34]	; 0x22
 8006036:	8363      	strh	r3, [r4, #26]
      ACC_Value.z = ACCWorkingValues.z;
 8006038:	8ca3      	ldrh	r3, [r4, #36]	; 0x24
 800603a:	83a3      	strh	r3, [r4, #28]
      MAG_Value.x = MAGWorkingValues.x;
 800603c:	f8b4 30c8 	ldrh.w	r3, [r4, #200]	; 0xc8
 8006040:	8123      	strh	r3, [r4, #8]
      MAG_Value.y = MAGWorkingValues.y;
 8006042:	f8b4 30ca 	ldrh.w	r3, [r4, #202]	; 0xca
 8006046:	8163      	strh	r3, [r4, #10]
      MAG_Value.z = MAGWorkingValues.z;
 8006048:	f8b4 30cc 	ldrh.w	r3, [r4, #204]	; 0xcc
 800604c:	81a3      	strh	r3, [r4, #12]
      COMP_Value.x = (int16_t) xDistance;
 800604e:	8227      	strh	r7, [r4, #16]
      COMP_Value.y = (int16_t) yDistance;
 8006050:	f8a4 8012 	strh.w	r8, [r4, #18]
      COMP_Value.Heading = (int16_t) heading;
 8006054:	4650      	mov	r0, sl
 8006056:	4659      	mov	r1, fp
 8006058:	f7fe fd60 	bl	8004b1c <__aeabi_d2iz>
 800605c:	82a0      	strh	r0, [r4, #20]
 800605e:	e04e      	b.n	80060fe <main+0x27e>
        if (averageAccel >= AccelLimitUp) {
 8006060:	2200      	movs	r2, #0
 8006062:	4b3a      	ldr	r3, [pc, #232]	; (800614c <main+0x2cc>)
 8006064:	f7fe fd46 	bl	8004af4 <__aeabi_dcmpge>
 8006068:	2800      	cmp	r0, #0
 800606a:	d0e0      	beq.n	800602e <main+0x1ae>
          stepState = STEPSTART;
 800606c:	2601      	movs	r6, #1
 800606e:	e7de      	b.n	800602e <main+0x1ae>
        if (averageAccel <= AccelLimitDown) {
 8006070:	2200      	movs	r2, #0
 8006072:	4b37      	ldr	r3, [pc, #220]	; (8006150 <main+0x2d0>)
 8006074:	f7fe fd34 	bl	8004ae0 <__aeabi_dcmple>
 8006078:	2800      	cmp	r0, #0
 800607a:	d0d8      	beq.n	800602e <main+0x1ae>
          xDistance += sin(calcHeading) * strideLength;
 800607c:	e9dd 0100 	ldrd	r0, r1, [sp]
 8006080:	f006 f82e 	bl	800c0e0 <sin>
 8006084:	2200      	movs	r2, #0
 8006086:	4b33      	ldr	r3, [pc, #204]	; (8006154 <main+0x2d4>)
 8006088:	f7fe faae 	bl	80045e8 <__aeabi_dmul>
 800608c:	4604      	mov	r4, r0
 800608e:	460d      	mov	r5, r1
 8006090:	4638      	mov	r0, r7
 8006092:	f7fe fa3f 	bl	8004514 <__aeabi_i2d>
 8006096:	4622      	mov	r2, r4
 8006098:	462b      	mov	r3, r5
 800609a:	f7fe f8ef 	bl	800427c <__adddf3>
 800609e:	f7fe fd3d 	bl	8004b1c <__aeabi_d2iz>
 80060a2:	4607      	mov	r7, r0
          yDistance += cos(calcHeading) * strideLength;
 80060a4:	e9dd 0100 	ldrd	r0, r1, [sp]
 80060a8:	f005 ffd4 	bl	800c054 <cos>
 80060ac:	2200      	movs	r2, #0
 80060ae:	4b29      	ldr	r3, [pc, #164]	; (8006154 <main+0x2d4>)
 80060b0:	f7fe fa9a 	bl	80045e8 <__aeabi_dmul>
 80060b4:	4604      	mov	r4, r0
 80060b6:	460d      	mov	r5, r1
 80060b8:	4640      	mov	r0, r8
 80060ba:	f7fe fa2b 	bl	8004514 <__aeabi_i2d>
 80060be:	4622      	mov	r2, r4
 80060c0:	462b      	mov	r3, r5
 80060c2:	f7fe f8db 	bl	800427c <__adddf3>
 80060c6:	f7fe fd29 	bl	8004b1c <__aeabi_d2iz>
 80060ca:	4680      	mov	r8, r0
          stepState = STEADY;
 80060cc:	9e03      	ldr	r6, [sp, #12]
 80060ce:	e7ae      	b.n	800602e <main+0x1ae>
    __WFI();
 80060d0:	bf30      	wfi
    if (!connected) {
 80060d2:	4b18      	ldr	r3, [pc, #96]	; (8006134 <main+0x2b4>)
 80060d4:	681b      	ldr	r3, [r3, #0]
 80060d6:	2b00      	cmp	r3, #0
 80060d8:	f43f af0e 	beq.w	8005ef8 <main+0x78>
    if (set_connectable) {
 80060dc:	4b17      	ldr	r3, [pc, #92]	; (800613c <main+0x2bc>)
 80060de:	781b      	ldrb	r3, [r3, #0]
 80060e0:	2b00      	cmp	r3, #0
 80060e2:	f47f af13 	bne.w	8005f0c <main+0x8c>
    if (HCI_ProcessEvent) {
 80060e6:	4b14      	ldr	r3, [pc, #80]	; (8006138 <main+0x2b8>)
 80060e8:	f8d3 33a8 	ldr.w	r3, [r3, #936]	; 0x3a8
 80060ec:	2b00      	cmp	r3, #0
 80060ee:	f47f af13 	bne.w	8005f18 <main+0x98>
    if (ReadSensor) {
 80060f2:	4b11      	ldr	r3, [pc, #68]	; (8006138 <main+0x2b8>)
 80060f4:	f8d3 30c4 	ldr.w	r3, [r3, #196]	; 0xc4
 80060f8:	2b00      	cmp	r3, #0
 80060fa:	f47f af14 	bne.w	8005f26 <main+0xa6>
    if (SendAccGyroMag) {
 80060fe:	4b0e      	ldr	r3, [pc, #56]	; (8006138 <main+0x2b8>)
 8006100:	6f5b      	ldr	r3, [r3, #116]	; 0x74
 8006102:	2b00      	cmp	r3, #0
 8006104:	d0e4      	beq.n	80060d0 <main+0x250>
      SendMotionData();
 8006106:	f7ff fb6f 	bl	80057e8 <SendMotionData>
      SendAccGyroMag = 0;
 800610a:	4b0b      	ldr	r3, [pc, #44]	; (8006138 <main+0x2b8>)
 800610c:	2200      	movs	r2, #0
 800610e:	675a      	str	r2, [r3, #116]	; 0x74
 8006110:	e7de      	b.n	80060d0 <main+0x250>
 8006112:	bf00      	nop
 8006114:	f3af 8000 	nop.w
	...
 8006120:	1a63c9ec 	.word	0x1a63c9ec
 8006124:	404ca5dc 	.word	0x404ca5dc
 8006128:	5444261e 	.word	0x5444261e
 800612c:	400921fb 	.word	0x400921fb
 8006130:	20000390 	.word	0x20000390
 8006134:	20000204 	.word	0x20000204
 8006138:	20000318 	.word	0x20000318
 800613c:	20000000 	.word	0x20000000
 8006140:	40668000 	.word	0x40668000
 8006144:	40768000 	.word	0x40768000
 8006148:	40490000 	.word	0x40490000
 800614c:	40468000 	.word	0x40468000
 8006150:	c0140000 	.word	0xc0140000
 8006154:	40520000 	.word	0x40520000

08006158 <HAL_GPIO_EXTI_Callback>:
 * @brief  EXTI line detection callback.
 * @param  uint16_t GPIO_Pin Specifies the pins connected EXTI line
 * @retval None
 */
void HAL_GPIO_EXTI_Callback(uint16_t GPIO_Pin) {
  switch (GPIO_Pin) {
 8006158:	2820      	cmp	r0, #32
 800615a:	d000      	beq.n	800615e <HAL_GPIO_EXTI_Callback+0x6>
 800615c:	4770      	bx	lr
void HAL_GPIO_EXTI_Callback(uint16_t GPIO_Pin) {
 800615e:	b508      	push	{r3, lr}
  case HCI_TL_SPI_EXTI_PIN:
    hci_tl_lowlevel_isr();
 8006160:	f7ff f904 	bl	800536c <hci_tl_lowlevel_isr>
    HCI_ProcessEvent = 1;
 8006164:	4b02      	ldr	r3, [pc, #8]	; (8006170 <HAL_GPIO_EXTI_Callback+0x18>)
 8006166:	2201      	movs	r2, #1
 8006168:	f8c3 23a8 	str.w	r2, [r3, #936]	; 0x3a8

    //  case BSP_LSM6DSM_INT2:
    //    MEMSInterrupt=1;
    //    break;
  }
}
 800616c:	bd08      	pop	{r3, pc}
 800616e:	bf00      	nop
 8006170:	20000318 	.word	0x20000318

08006174 <HAL_PCD_MspInit>:
  * @brief  Initializes the PCD MSP.
  * @param  hpcd: PCD handle
  * @retval None
  */
void HAL_PCD_MspInit(PCD_HandleTypeDef *hpcd)
{
 8006174:	b530      	push	{r4, r5, lr}
 8006176:	b089      	sub	sp, #36	; 0x24
  GPIO_InitTypeDef  GPIO_InitStruct;

  /* Configure USB FS GPIOs */
  __HAL_RCC_GPIOA_CLK_ENABLE();
 8006178:	4c16      	ldr	r4, [pc, #88]	; (80061d4 <HAL_PCD_MspInit+0x60>)
 800617a:	6ce3      	ldr	r3, [r4, #76]	; 0x4c
 800617c:	f043 0301 	orr.w	r3, r3, #1
 8006180:	64e3      	str	r3, [r4, #76]	; 0x4c
 8006182:	6ce3      	ldr	r3, [r4, #76]	; 0x4c
 8006184:	f003 0301 	and.w	r3, r3, #1
 8006188:	9301      	str	r3, [sp, #4]
 800618a:	9b01      	ldr	r3, [sp, #4]

  /* Configure DM DP Pins */
  GPIO_InitStruct.Pin = (GPIO_PIN_11 | GPIO_PIN_12);
 800618c:	f44f 53c0 	mov.w	r3, #6144	; 0x1800
 8006190:	9303      	str	r3, [sp, #12]
  GPIO_InitStruct.Mode = GPIO_MODE_AF_PP;
 8006192:	2302      	movs	r3, #2
 8006194:	9304      	str	r3, [sp, #16]
  GPIO_InitStruct.Pull = GPIO_NOPULL;
 8006196:	2500      	movs	r5, #0
 8006198:	9505      	str	r5, [sp, #20]
  GPIO_InitStruct.Speed = GPIO_SPEED_FREQ_VERY_HIGH;
 800619a:	2303      	movs	r3, #3
 800619c:	9306      	str	r3, [sp, #24]
  GPIO_InitStruct.Alternate = GPIO_AF10_OTG_FS;
 800619e:	230a      	movs	r3, #10
 80061a0:	9307      	str	r3, [sp, #28]
  HAL_GPIO_Init(GPIOA, &GPIO_InitStruct);
 80061a2:	a903      	add	r1, sp, #12
 80061a4:	f04f 4090 	mov.w	r0, #1207959552	; 0x48000000
 80061a8:	f000 fd32 	bl	8006c10 <HAL_GPIO_Init>

  /* Enable USB FS Clock */
  __HAL_RCC_USB_OTG_FS_CLK_ENABLE();
 80061ac:	6ce3      	ldr	r3, [r4, #76]	; 0x4c
 80061ae:	f443 5380 	orr.w	r3, r3, #4096	; 0x1000
 80061b2:	64e3      	str	r3, [r4, #76]	; 0x4c
 80061b4:	6ce3      	ldr	r3, [r4, #76]	; 0x4c
 80061b6:	f403 5380 	and.w	r3, r3, #4096	; 0x1000
 80061ba:	9302      	str	r3, [sp, #8]
 80061bc:	9b02      	ldr	r3, [sp, #8]

  /* Set USB FS Interrupt priority */
  HAL_NVIC_SetPriority(OTG_FS_IRQn, 6, 0);
 80061be:	462a      	mov	r2, r5
 80061c0:	2106      	movs	r1, #6
 80061c2:	2043      	movs	r0, #67	; 0x43
 80061c4:	f000 fcca 	bl	8006b5c <HAL_NVIC_SetPriority>

  /* Enable USB FS Interrupt */
  HAL_NVIC_EnableIRQ(OTG_FS_IRQn);
 80061c8:	2043      	movs	r0, #67	; 0x43
 80061ca:	f000 fcff 	bl	8006bcc <HAL_NVIC_EnableIRQ>
}
 80061ce:	b009      	add	sp, #36	; 0x24
 80061d0:	bd30      	pop	{r4, r5, pc}
 80061d2:	bf00      	nop
 80061d4:	40021000 	.word	0x40021000

080061d8 <HAL_TIM_Base_MspInit>:
  *  - Peripheral's Interrupt Configuration
  * @param htim: TIM handle pointer
  * @retval None
  */
void HAL_TIM_Base_MspInit(TIM_HandleTypeDef *htim)
{
 80061d8:	b500      	push	{lr}
 80061da:	b083      	sub	sp, #12
  if (htim->Instance == TIM4) {
 80061dc:	6803      	ldr	r3, [r0, #0]
 80061de:	4a17      	ldr	r2, [pc, #92]	; (800623c <HAL_TIM_Base_MspInit+0x64>)
 80061e0:	4293      	cmp	r3, r2
 80061e2:	d005      	beq.n	80061f0 <HAL_TIM_Base_MspInit+0x18>
    HAL_NVIC_SetPriority(TIM3_IRQn, 0xF, 0);

    /* Enable the TIMx global Interrupt */
    HAL_NVIC_EnableIRQ(TIM3_IRQn);
  #endif /* ALLMEMS1_MOTIONFA */
  } else if (htim->Instance == TIM5) {
 80061e4:	4a16      	ldr	r2, [pc, #88]	; (8006240 <HAL_TIM_Base_MspInit+0x68>)
 80061e6:	4293      	cmp	r3, r2
 80061e8:	d015      	beq.n	8006216 <HAL_TIM_Base_MspInit+0x3e>

    /* Enable the TIMx global Interrupt */
    HAL_NVIC_EnableIRQ(TIM5_IRQn);
  }

}  
 80061ea:	b003      	add	sp, #12
 80061ec:	f85d fb04 	ldr.w	pc, [sp], #4
    __HAL_RCC_TIM4_CLK_ENABLE();
 80061f0:	4b14      	ldr	r3, [pc, #80]	; (8006244 <HAL_TIM_Base_MspInit+0x6c>)
 80061f2:	6d9a      	ldr	r2, [r3, #88]	; 0x58
 80061f4:	f042 0204 	orr.w	r2, r2, #4
 80061f8:	659a      	str	r2, [r3, #88]	; 0x58
 80061fa:	6d9b      	ldr	r3, [r3, #88]	; 0x58
 80061fc:	f003 0304 	and.w	r3, r3, #4
 8006200:	9300      	str	r3, [sp, #0]
 8006202:	9b00      	ldr	r3, [sp, #0]
    HAL_NVIC_SetPriority(TIM4_IRQn, 0xF, 0);
 8006204:	2200      	movs	r2, #0
 8006206:	210f      	movs	r1, #15
 8006208:	201e      	movs	r0, #30
 800620a:	f000 fca7 	bl	8006b5c <HAL_NVIC_SetPriority>
    HAL_NVIC_EnableIRQ(TIM4_IRQn);
 800620e:	201e      	movs	r0, #30
 8006210:	f000 fcdc 	bl	8006bcc <HAL_NVIC_EnableIRQ>
 8006214:	e7e9      	b.n	80061ea <HAL_TIM_Base_MspInit+0x12>
    __HAL_RCC_TIM5_CLK_ENABLE();
 8006216:	4b0b      	ldr	r3, [pc, #44]	; (8006244 <HAL_TIM_Base_MspInit+0x6c>)
 8006218:	6d9a      	ldr	r2, [r3, #88]	; 0x58
 800621a:	f042 0208 	orr.w	r2, r2, #8
 800621e:	659a      	str	r2, [r3, #88]	; 0x58
 8006220:	6d9b      	ldr	r3, [r3, #88]	; 0x58
 8006222:	f003 0308 	and.w	r3, r3, #8
 8006226:	9301      	str	r3, [sp, #4]
 8006228:	9b01      	ldr	r3, [sp, #4]
    HAL_NVIC_SetPriority(TIM5_IRQn, 0xF, 0);
 800622a:	2200      	movs	r2, #0
 800622c:	210f      	movs	r1, #15
 800622e:	2032      	movs	r0, #50	; 0x32
 8006230:	f000 fc94 	bl	8006b5c <HAL_NVIC_SetPriority>
    HAL_NVIC_EnableIRQ(TIM5_IRQn);
 8006234:	2032      	movs	r0, #50	; 0x32
 8006236:	f000 fcc9 	bl	8006bcc <HAL_NVIC_EnableIRQ>
}  
 800623a:	e7d6      	b.n	80061ea <HAL_TIM_Base_MspInit+0x12>
 800623c:	40000800 	.word	0x40000800
 8006240:	40000c00 	.word	0x40000c00
 8006244:	40021000 	.word	0x40021000

08006248 <HAL_TIM_OC_MspInit>:
  *  - Peripheral's Interrupt Configuration
  * @param htim: TIM handle pointer
  * @retval None
  */
void HAL_TIM_OC_MspInit(TIM_HandleTypeDef *htim)
{ 
 8006248:	b500      	push	{lr}
 800624a:	b083      	sub	sp, #12
  /* TIM1 Peripheral clock enable */
  __HAL_RCC_TIM1_CLK_ENABLE();
 800624c:	4b0a      	ldr	r3, [pc, #40]	; (8006278 <HAL_TIM_OC_MspInit+0x30>)
 800624e:	6e1a      	ldr	r2, [r3, #96]	; 0x60
 8006250:	f442 6200 	orr.w	r2, r2, #2048	; 0x800
 8006254:	661a      	str	r2, [r3, #96]	; 0x60
 8006256:	6e1b      	ldr	r3, [r3, #96]	; 0x60
 8006258:	f403 6300 	and.w	r3, r3, #2048	; 0x800
 800625c:	9301      	str	r3, [sp, #4]
 800625e:	9b01      	ldr	r3, [sp, #4]

  /* Enable TIM1 global Interrupt & set priority  */
  HAL_NVIC_SetPriority(TIM1_CC_IRQn, 0x8, 0);
 8006260:	2200      	movs	r2, #0
 8006262:	2108      	movs	r1, #8
 8006264:	201b      	movs	r0, #27
 8006266:	f000 fc79 	bl	8006b5c <HAL_NVIC_SetPriority>
  HAL_NVIC_EnableIRQ(TIM1_CC_IRQn);
 800626a:	201b      	movs	r0, #27
 800626c:	f000 fcae 	bl	8006bcc <HAL_NVIC_EnableIRQ>
}
 8006270:	b003      	add	sp, #12
 8006272:	f85d fb04 	ldr.w	pc, [sp], #4
 8006276:	bf00      	nop
 8006278:	40021000 	.word	0x40021000

0800627c <NMI_Handler>:
  * @param  None
  * @retval None
  */
void NMI_Handler(void)
{
}
 800627c:	4770      	bx	lr

0800627e <HardFault_Handler>:
  * @retval None
  */
void HardFault_Handler(void)
{
  /* Go to infinite loop when Hard Fault exception occurs */
  while (1)
 800627e:	e7fe      	b.n	800627e <HardFault_Handler>

08006280 <MemManage_Handler>:
  * @retval None
  */
void MemManage_Handler(void)
{
  /* Go to infinite loop when Memory Manage exception occurs */
  while (1)
 8006280:	e7fe      	b.n	8006280 <MemManage_Handler>

08006282 <BusFault_Handler>:
  * @retval None
  */
void BusFault_Handler(void)
{
  /* Go to infinite loop when Bus Fault exception occurs */
  while (1)
 8006282:	e7fe      	b.n	8006282 <BusFault_Handler>

08006284 <UsageFault_Handler>:
  * @retval None
  */
void UsageFault_Handler(void)
{
  /* Go to infinite loop when Usage Fault exception occurs */
  while (1)
 8006284:	e7fe      	b.n	8006284 <UsageFault_Handler>

08006286 <SVC_Handler>:
  * @param  None
  * @retval None
  */
void SVC_Handler(void)
{
}
 8006286:	4770      	bx	lr

08006288 <DebugMon_Handler>:
  * @param  None
  * @retval None
  */
void DebugMon_Handler(void)
{
}
 8006288:	4770      	bx	lr

0800628a <PendSV_Handler>:
  * @param  None
  * @retval None
  */
void PendSV_Handler(void)
{
}
 800628a:	4770      	bx	lr

0800628c <SysTick_Handler>:
  * @brief  This function handles SysTick Handler.
  * @param  None
  * @retval None
  */
void SysTick_Handler(void)
{
 800628c:	b508      	push	{r3, lr}
  HAL_IncTick();
 800628e:	f000 fc41 	bl	8006b14 <HAL_IncTick>
}
 8006292:	bd08      	pop	{r3, pc}

08006294 <TIM4_IRQHandler>:
  * @brief  This function handles TIM4 interrupt request.
  * @param  None
  * @retval None
  */
void TIM4_IRQHandler(void)
{
 8006294:	b508      	push	{r3, lr}
  HAL_TIM_IRQHandler(&TimEnvHandle);
 8006296:	4802      	ldr	r0, [pc, #8]	; (80062a0 <TIM4_IRQHandler+0xc>)
 8006298:	f003 fa1a 	bl	80096d0 <HAL_TIM_IRQHandler>
}
 800629c:	bd08      	pop	{r3, pc}
 800629e:	bf00      	nop
 80062a0:	20000390 	.word	0x20000390

080062a4 <TIM5_IRQHandler>:
  * @retval None
  */
void TIM5_IRQHandler(void)
{  

}
 80062a4:	4770      	bx	lr
	...

080062a8 <TIM1_CC_IRQHandler>:
  * @brief  This function handles TIM1 Interrupt request
  * @param  None
  * @retval None
  */
void TIM1_CC_IRQHandler(void)
{
 80062a8:	b508      	push	{r3, lr}
  HAL_TIM_IRQHandler(&TimCCHandle);
 80062aa:	4802      	ldr	r0, [pc, #8]	; (80062b4 <TIM1_CC_IRQHandler+0xc>)
 80062ac:	f003 fa10 	bl	80096d0 <HAL_TIM_IRQHandler>
}
 80062b0:	bd08      	pop	{r3, pc}
 80062b2:	bf00      	nop
 80062b4:	20000340 	.word	0x20000340

080062b8 <EXTI3_IRQHandler>:
* @brief  This function handles External line 2 interrupt request.
* @param  None
* @retval None
*/
void EXTI3_IRQHandler(void)
{
 80062b8:	b508      	push	{r3, lr}
  HAL_GPIO_EXTI_IRQHandler(GPIO_PIN_3);
 80062ba:	2008      	movs	r0, #8
 80062bc:	f000 fe42 	bl	8006f44 <HAL_GPIO_EXTI_IRQHandler>
//  SW_BV_send_Callback();

}
 80062c0:	bd08      	pop	{r3, pc}

080062c2 <EXTI9_5_IRQHandler>:
  *         interrupt request for BlueNRG.
  * @param  None
  * @retval None
  */
void EXTI9_5_IRQHandler(void)
{
 80062c2:	b508      	push	{r3, lr}
  //HAL_GPIO_EXTI_IRQHandler(BNRG_SPI_EXTI_PIN);
  HAL_GPIO_EXTI_IRQHandler(HCI_TL_SPI_EXTI_PIN);
 80062c4:	2020      	movs	r0, #32
 80062c6:	f000 fe3d 	bl	8006f44 <HAL_GPIO_EXTI_IRQHandler>
}
 80062ca:	bd08      	pop	{r3, pc}

080062cc <EXTI2_IRQHandler>:
  * @retval None
  */
void EXTI2_IRQHandler( void )
{
//  HAL_GPIO_EXTI_IRQHandler(BSP_LSM6DSM_INT2);
}
 80062cc:	4770      	bx	lr
	...

080062d0 <OTG_FS_IRQHandler>:
  * @brief  This function handles USB-On-The-Go FS global interrupt request.
  * @param  None
  * @retval None
  */
void OTG_FS_IRQHandler(void)
{
 80062d0:	b508      	push	{r3, lr}
  HAL_PCD_IRQHandler(&hpcd);
 80062d2:	4802      	ldr	r0, [pc, #8]	; (80062dc <OTG_FS_IRQHandler+0xc>)
 80062d4:	f000 ffa0 	bl	8007218 <HAL_PCD_IRQHandler>
}
 80062d8:	bd08      	pop	{r3, pc}
 80062da:	bf00      	nop
 80062dc:	20002068 	.word	0x20002068

080062e0 <TIM8_UP_IRQHandler>:
  * @brief  This function handles TIM interrupt request.
  * @param  None
  * @retval None
  */
void TIM8_IRQHandler(void)
{
 80062e0:	b508      	push	{r3, lr}
  HAL_TIM_IRQHandler(&TimHandle);
 80062e2:	4802      	ldr	r0, [pc, #8]	; (80062ec <TIM8_UP_IRQHandler+0xc>)
 80062e4:	f003 f9f4 	bl	80096d0 <HAL_TIM_IRQHandler>
}
 80062e8:	bd08      	pop	{r3, pc}
 80062ea:	bf00      	nop
 80062ec:	2000080c 	.word	0x2000080c

080062f0 <_sbrk>:
 *
 * @param incr Memory size
 * @return Pointer to allocated memory
 */
void *_sbrk(ptrdiff_t incr)
{
 80062f0:	b510      	push	{r4, lr}
 80062f2:	4603      	mov	r3, r0
  extern uint8_t _end; /* Symbol defined in the linker script */
  extern uint8_t _estack; /* Symbol defined in the linker script */
  extern uint32_t _Min_Stack_Size; /* Symbol defined in the linker script */
  const uint32_t stack_limit = (uint32_t)&_estack - (uint32_t)&_Min_Stack_Size;
 80062f4:	4a0c      	ldr	r2, [pc, #48]	; (8006328 <_sbrk+0x38>)
 80062f6:	490d      	ldr	r1, [pc, #52]	; (800632c <_sbrk+0x3c>)
  const uint8_t *max_heap = (uint8_t *)stack_limit;
  uint8_t *prev_heap_end;

  /* Initialize heap end at first call */
  if (NULL == __sbrk_heap_end)
 80062f8:	480d      	ldr	r0, [pc, #52]	; (8006330 <_sbrk+0x40>)
 80062fa:	6800      	ldr	r0, [r0, #0]
 80062fc:	b140      	cbz	r0, 8006310 <_sbrk+0x20>
  {
    __sbrk_heap_end = &_end;
  }

  /* Protect heap from growing into the reserved MSP stack */
  if (__sbrk_heap_end + incr > max_heap)
 80062fe:	480c      	ldr	r0, [pc, #48]	; (8006330 <_sbrk+0x40>)
 8006300:	6800      	ldr	r0, [r0, #0]
 8006302:	4403      	add	r3, r0
 8006304:	1a52      	subs	r2, r2, r1
 8006306:	4293      	cmp	r3, r2
 8006308:	d806      	bhi.n	8006318 <_sbrk+0x28>
    errno = ENOMEM;
    return (void *)-1;
  }

  prev_heap_end = __sbrk_heap_end;
  __sbrk_heap_end += incr;
 800630a:	4a09      	ldr	r2, [pc, #36]	; (8006330 <_sbrk+0x40>)
 800630c:	6013      	str	r3, [r2, #0]

  return (void *)prev_heap_end;
}
 800630e:	bd10      	pop	{r4, pc}
    __sbrk_heap_end = &_end;
 8006310:	4807      	ldr	r0, [pc, #28]	; (8006330 <_sbrk+0x40>)
 8006312:	4c08      	ldr	r4, [pc, #32]	; (8006334 <_sbrk+0x44>)
 8006314:	6004      	str	r4, [r0, #0]
 8006316:	e7f2      	b.n	80062fe <_sbrk+0xe>
    errno = ENOMEM;
 8006318:	f007 fa32 	bl	800d780 <__errno>
 800631c:	230c      	movs	r3, #12
 800631e:	6003      	str	r3, [r0, #0]
    return (void *)-1;
 8006320:	f04f 30ff 	mov.w	r0, #4294967295
 8006324:	e7f3      	b.n	800630e <_sbrk+0x1e>
 8006326:	bf00      	nop
 8006328:	20018000 	.word	0x20018000
 800632c:	00002000 	.word	0x00002000
 8006330:	20000808 	.word	0x20000808
 8006334:	20002a74 	.word	0x20002a74

08006338 <CDC_Itf_DeInit>:
  * @retval Result of the operation: USBD_OK if all operations are OK else USBD_FAIL
  */
static int8_t CDC_Itf_DeInit(void)
{
  return (USBD_OK);
}
 8006338:	2000      	movs	r0, #0
 800633a:	4770      	bx	lr

0800633c <CDC_Itf_Control>:
  * @param  Len: Number of data to be sent (in bytes)
  * @retval Result of the operation: USBD_OK if all operations are OK else USBD_FAIL
  */
static int8_t CDC_Itf_Control (uint8_t cmd, uint8_t* pbuf, uint16_t length)
{ 
  switch (cmd)
 800633c:	2820      	cmp	r0, #32
 800633e:	d003      	beq.n	8006348 <CDC_Itf_Control+0xc>
 8006340:	2821      	cmp	r0, #33	; 0x21
 8006342:	d014      	beq.n	800636e <CDC_Itf_Control+0x32>
  default:
    break;
  }
  
  return (USBD_OK);
}
 8006344:	2000      	movs	r0, #0
 8006346:	4770      	bx	lr
    LineCoding.bitrate    = (uint32_t)(pbuf[0] | (pbuf[1] << 8) |\
 8006348:	780b      	ldrb	r3, [r1, #0]
 800634a:	784a      	ldrb	r2, [r1, #1]
 800634c:	ea43 2302 	orr.w	r3, r3, r2, lsl #8
                            (pbuf[2] << 16) | (pbuf[3] << 24));
 8006350:	788a      	ldrb	r2, [r1, #2]
    LineCoding.bitrate    = (uint32_t)(pbuf[0] | (pbuf[1] << 8) |\
 8006352:	ea43 4302 	orr.w	r3, r3, r2, lsl #16
                            (pbuf[2] << 16) | (pbuf[3] << 24));
 8006356:	78ca      	ldrb	r2, [r1, #3]
 8006358:	ea43 6302 	orr.w	r3, r3, r2, lsl #24
    LineCoding.bitrate    = (uint32_t)(pbuf[0] | (pbuf[1] << 8) |\
 800635c:	4a0c      	ldr	r2, [pc, #48]	; (8006390 <CDC_Itf_Control+0x54>)
 800635e:	6013      	str	r3, [r2, #0]
    LineCoding.format     = pbuf[4];
 8006360:	790b      	ldrb	r3, [r1, #4]
 8006362:	7113      	strb	r3, [r2, #4]
    LineCoding.paritytype = pbuf[5];
 8006364:	794b      	ldrb	r3, [r1, #5]
 8006366:	7153      	strb	r3, [r2, #5]
    LineCoding.datatype   = pbuf[6];
 8006368:	798b      	ldrb	r3, [r1, #6]
 800636a:	7193      	strb	r3, [r2, #6]
    break;
 800636c:	e7ea      	b.n	8006344 <CDC_Itf_Control+0x8>
    pbuf[0] = (uint8_t)(LineCoding.bitrate);
 800636e:	4b08      	ldr	r3, [pc, #32]	; (8006390 <CDC_Itf_Control+0x54>)
 8006370:	781a      	ldrb	r2, [r3, #0]
 8006372:	700a      	strb	r2, [r1, #0]
    pbuf[1] = (uint8_t)(LineCoding.bitrate >> 8);
 8006374:	785a      	ldrb	r2, [r3, #1]
 8006376:	704a      	strb	r2, [r1, #1]
    pbuf[2] = (uint8_t)(LineCoding.bitrate >> 16);
 8006378:	789a      	ldrb	r2, [r3, #2]
 800637a:	708a      	strb	r2, [r1, #2]
    pbuf[3] = (uint8_t)(LineCoding.bitrate >> 24);
 800637c:	78da      	ldrb	r2, [r3, #3]
 800637e:	70ca      	strb	r2, [r1, #3]
    pbuf[4] = LineCoding.format;
 8006380:	791a      	ldrb	r2, [r3, #4]
 8006382:	710a      	strb	r2, [r1, #4]
    pbuf[5] = LineCoding.paritytype;
 8006384:	795a      	ldrb	r2, [r3, #5]
 8006386:	714a      	strb	r2, [r1, #5]
    pbuf[6] = LineCoding.datatype;     
 8006388:	799b      	ldrb	r3, [r3, #6]
 800638a:	718b      	strb	r3, [r1, #6]
    break;
 800638c:	e7da      	b.n	8006344 <CDC_Itf_Control+0x8>
 800638e:	bf00      	nop
 8006390:	20000008 	.word	0x20000008

08006394 <CDC_Itf_Receive>:
//  }
//  
//  /* Initiate next USB packet transfer */
//  USBD_CDC_ReceivePacket(&USBD_Device);
  return (USBD_OK);
}
 8006394:	2000      	movs	r0, #0
 8006396:	4770      	bx	lr

08006398 <CDC_TIM_Config>:
  * @brief  CDC_TIM_Config: Configure TIMx timer
  * @param  None.
  * @retval None.
  */
static void CDC_TIM_Config(void)
{  
 8006398:	b508      	push	{r3, lr}
  /* Set TIMx instance */
  TimHandle.Instance = TIMx;
 800639a:	4809      	ldr	r0, [pc, #36]	; (80063c0 <CDC_TIM_Config+0x28>)
 800639c:	4b09      	ldr	r3, [pc, #36]	; (80063c4 <CDC_TIM_Config+0x2c>)
 800639e:	6003      	str	r3, [r0, #0]
       + Period = 10000 - 1
       + Prescaler = ((SystemCoreClock/2)/10000) - 1
       + ClockDivision = 0
       + Counter direction = Up
  */
  TimHandle.Init.Period = (CDC_POLLING_INTERVAL*1000) - 1;
 80063a0:	f241 3387 	movw	r3, #4999	; 0x1387
 80063a4:	60c3      	str	r3, [r0, #12]
  TimHandle.Init.Prescaler = 80-1;
 80063a6:	234f      	movs	r3, #79	; 0x4f
 80063a8:	6043      	str	r3, [r0, #4]
  TimHandle.Init.ClockDivision = 0;
 80063aa:	2300      	movs	r3, #0
 80063ac:	6103      	str	r3, [r0, #16]
  TimHandle.Init.CounterMode = TIM_COUNTERMODE_UP;
 80063ae:	6083      	str	r3, [r0, #8]
  if(HAL_TIM_Base_Init(&TimHandle) != HAL_OK)
 80063b0:	f003 fac0 	bl	8009934 <HAL_TIM_Base_Init>
 80063b4:	b900      	cbnz	r0, 80063b8 <CDC_TIM_Config+0x20>
  {
    /* Initialization Error */
    Error_Handler();
  }
}
 80063b6:	bd08      	pop	{r3, pc}
    Error_Handler();
 80063b8:	f7ff fcf6 	bl	8005da8 <Error_Handler>
}
 80063bc:	e7fb      	b.n	80063b6 <CDC_TIM_Config+0x1e>
 80063be:	bf00      	nop
 80063c0:	2000080c 	.word	0x2000080c
 80063c4:	40013400 	.word	0x40013400

080063c8 <CDC_Itf_Init>:
{
 80063c8:	b530      	push	{r4, r5, lr}
 80063ca:	b083      	sub	sp, #12
  TIMx_CLK_ENABLE();
 80063cc:	4b15      	ldr	r3, [pc, #84]	; (8006424 <CDC_Itf_Init+0x5c>)
 80063ce:	6e1a      	ldr	r2, [r3, #96]	; 0x60
 80063d0:	f442 5200 	orr.w	r2, r2, #8192	; 0x2000
 80063d4:	661a      	str	r2, [r3, #96]	; 0x60
 80063d6:	6e1b      	ldr	r3, [r3, #96]	; 0x60
 80063d8:	f403 5300 	and.w	r3, r3, #8192	; 0x2000
 80063dc:	9301      	str	r3, [sp, #4]
 80063de:	9b01      	ldr	r3, [sp, #4]
  HAL_NVIC_SetPriority(TIMx_IRQn, 0x6, 0);
 80063e0:	2200      	movs	r2, #0
 80063e2:	2106      	movs	r1, #6
 80063e4:	202c      	movs	r0, #44	; 0x2c
 80063e6:	f000 fbb9 	bl	8006b5c <HAL_NVIC_SetPriority>
  HAL_NVIC_EnableIRQ(TIMx_IRQn);
 80063ea:	202c      	movs	r0, #44	; 0x2c
 80063ec:	f000 fbee 	bl	8006bcc <HAL_NVIC_EnableIRQ>
  CDC_TIM_Config();
 80063f0:	f7ff ffd2 	bl	8006398 <CDC_TIM_Config>
  if(HAL_TIM_Base_Start_IT(&TimHandle) != HAL_OK)
 80063f4:	480c      	ldr	r0, [pc, #48]	; (8006428 <CDC_Itf_Init+0x60>)
 80063f6:	f003 f909 	bl	800960c <HAL_TIM_Base_Start_IT>
 80063fa:	b978      	cbnz	r0, 800641c <CDC_Itf_Init+0x54>
  USBD_CDC_SetTxBuffer(&USBD_Device, UserTxBuffer, 0);
 80063fc:	4d0a      	ldr	r5, [pc, #40]	; (8006428 <CDC_Itf_Init+0x60>)
 80063fe:	4c0b      	ldr	r4, [pc, #44]	; (800642c <CDC_Itf_Init+0x64>)
 8006400:	2200      	movs	r2, #0
 8006402:	f105 014c 	add.w	r1, r5, #76	; 0x4c
 8006406:	4620      	mov	r0, r4
 8006408:	f005 f8c6 	bl	800b598 <USBD_CDC_SetTxBuffer>
  USBD_CDC_SetRxBuffer(&USBD_Device, UserRxBuffer);
 800640c:	f605 014c 	addw	r1, r5, #2124	; 0x84c
 8006410:	4620      	mov	r0, r4
 8006412:	f005 f8cc 	bl	800b5ae <USBD_CDC_SetRxBuffer>
}
 8006416:	2000      	movs	r0, #0
 8006418:	b003      	add	sp, #12
 800641a:	bd30      	pop	{r4, r5, pc}
    Error_Handler();
 800641c:	f7ff fcc4 	bl	8005da8 <Error_Handler>
 8006420:	e7ec      	b.n	80063fc <CDC_Itf_Init+0x34>
 8006422:	bf00      	nop
 8006424:	40021000 	.word	0x40021000
 8006428:	2000080c 	.word	0x2000080c
 800642c:	200003e8 	.word	0x200003e8

08006430 <CDC_Fill_Buffer>:
  for (i = 0; i < TotalLen; i++)
 8006430:	2200      	movs	r2, #0
 8006432:	428a      	cmp	r2, r1
 8006434:	d215      	bcs.n	8006462 <CDC_Fill_Buffer+0x32>
{
 8006436:	b530      	push	{r4, r5, lr}
    UserTxBuffer[UserTxBufPtrIn] = Buf[i];
 8006438:	4d0b      	ldr	r5, [pc, #44]	; (8006468 <CDC_Fill_Buffer+0x38>)
 800643a:	f855 3cac 	ldr.w	r3, [r5, #-172]
 800643e:	f810 e002 	ldrb.w	lr, [r0, r2]
 8006442:	4c0a      	ldr	r4, [pc, #40]	; (800646c <CDC_Fill_Buffer+0x3c>)
 8006444:	eb04 0c03 	add.w	ip, r4, r3
 8006448:	f88c e04c 	strb.w	lr, [ip, #76]	; 0x4c
    UserTxBufPtrIn = (UserTxBufPtrIn + 1) % APP_RX_DATA_SIZE;
 800644c:	3301      	adds	r3, #1
 800644e:	f3c3 030a 	ubfx	r3, r3, #0, #11
 8006452:	f845 3cac 	str.w	r3, [r5, #-172]
  for (i = 0; i < TotalLen; i++)
 8006456:	3201      	adds	r2, #1
 8006458:	b292      	uxth	r2, r2
 800645a:	428a      	cmp	r2, r1
 800645c:	d3ec      	bcc.n	8006438 <CDC_Fill_Buffer+0x8>
}
 800645e:	2000      	movs	r0, #0
 8006460:	bd30      	pop	{r4, r5, pc}
 8006462:	2000      	movs	r0, #0
 8006464:	4770      	bx	lr
 8006466:	bf00      	nop
 8006468:	20001904 	.word	0x20001904
 800646c:	2000080c 	.word	0x2000080c

08006470 <CDC_TIM_PeriodElapsedCallback>:
{
 8006470:	b538      	push	{r3, r4, r5, lr}
  if(UserTxBufPtrOut != UserTxBufPtrIn)
 8006472:	4a12      	ldr	r2, [pc, #72]	; (80064bc <CDC_TIM_PeriodElapsedCallback+0x4c>)
 8006474:	f852 3ca8 	ldr.w	r3, [r2, #-168]
 8006478:	f852 4cac 	ldr.w	r4, [r2, #-172]
 800647c:	42a3      	cmp	r3, r4
 800647e:	d016      	beq.n	80064ae <CDC_TIM_PeriodElapsedCallback+0x3e>
    if(UserTxBufPtrOut > UserTxBufPtrIn) /* Rollback */
 8006480:	d916      	bls.n	80064b0 <CDC_TIM_PeriodElapsedCallback+0x40>
      buffsize = APP_RX_DATA_SIZE - UserTxBufPtrOut;
 8006482:	f5c3 6400 	rsb	r4, r3, #2048	; 0x800
    USBD_CDC_SetTxBuffer(&USBD_Device, (uint8_t*)&UserTxBuffer[buffptr], buffsize);
 8006486:	4d0e      	ldr	r5, [pc, #56]	; (80064c0 <CDC_TIM_PeriodElapsedCallback+0x50>)
 8006488:	4622      	mov	r2, r4
 800648a:	490e      	ldr	r1, [pc, #56]	; (80064c4 <CDC_TIM_PeriodElapsedCallback+0x54>)
 800648c:	4419      	add	r1, r3
 800648e:	4628      	mov	r0, r5
 8006490:	f005 f882 	bl	800b598 <USBD_CDC_SetTxBuffer>
    if(USBD_CDC_TransmitPacket(&USBD_Device) == USBD_OK)
 8006494:	4628      	mov	r0, r5
 8006496:	f005 f893 	bl	800b5c0 <USBD_CDC_TransmitPacket>
 800649a:	b940      	cbnz	r0, 80064ae <CDC_TIM_PeriodElapsedCallback+0x3e>
      UserTxBufPtrOut += buffsize;
 800649c:	4b07      	ldr	r3, [pc, #28]	; (80064bc <CDC_TIM_PeriodElapsedCallback+0x4c>)
 800649e:	f853 2ca8 	ldr.w	r2, [r3, #-168]
 80064a2:	4422      	add	r2, r4
 80064a4:	f843 2ca8 	str.w	r2, [r3, #-168]
      if (UserTxBufPtrOut == APP_RX_DATA_SIZE)
 80064a8:	f5b2 6f00 	cmp.w	r2, #2048	; 0x800
 80064ac:	d002      	beq.n	80064b4 <CDC_TIM_PeriodElapsedCallback+0x44>
}
 80064ae:	bd38      	pop	{r3, r4, r5, pc}
      buffsize = UserTxBufPtrIn - UserTxBufPtrOut;
 80064b0:	1ae4      	subs	r4, r4, r3
 80064b2:	e7e8      	b.n	8006486 <CDC_TIM_PeriodElapsedCallback+0x16>
        UserTxBufPtrOut = 0;
 80064b4:	2200      	movs	r2, #0
 80064b6:	f843 2ca8 	str.w	r2, [r3, #-168]
}
 80064ba:	e7f8      	b.n	80064ae <CDC_TIM_PeriodElapsedCallback+0x3e>
 80064bc:	20001904 	.word	0x20001904
 80064c0:	200003e8 	.word	0x200003e8
 80064c4:	20000858 	.word	0x20000858

080064c8 <HAL_PCD_SetupStageCallback>:
  * @brief  SetupStage callback.
  * @param  hpcd: PCD handle
  * @retval None
  */
void HAL_PCD_SetupStageCallback(PCD_HandleTypeDef *hpcd)
{
 80064c8:	b508      	push	{r3, lr}
  USBD_LL_SetupStage(hpcd->pData, (uint8_t *)hpcd->Setup);
 80064ca:	f500 7171 	add.w	r1, r0, #964	; 0x3c4
 80064ce:	f8d0 0404 	ldr.w	r0, [r0, #1028]	; 0x404
 80064d2:	f005 f8d2 	bl	800b67a <USBD_LL_SetupStage>
}
 80064d6:	bd08      	pop	{r3, pc}

080064d8 <HAL_PCD_DataOutStageCallback>:
  * @param  hpcd: PCD handle
  * @param  epnum: Endpoint Number
  * @retval None
  */
void HAL_PCD_DataOutStageCallback(PCD_HandleTypeDef *hpcd, uint8_t epnum)
{
 80064d8:	b508      	push	{r3, lr}
  USBD_LL_DataOutStage(hpcd->pData, epnum, hpcd->OUT_ep[epnum].xfer_buff);
 80064da:	ebc1 03c1 	rsb	r3, r1, r1, lsl #3
 80064de:	eb00 0383 	add.w	r3, r0, r3, lsl #2
 80064e2:	f8d3 2208 	ldr.w	r2, [r3, #520]	; 0x208
 80064e6:	f8d0 0404 	ldr.w	r0, [r0, #1028]	; 0x404
 80064ea:	f005 f8f2 	bl	800b6d2 <USBD_LL_DataOutStage>
}
 80064ee:	bd08      	pop	{r3, pc}

080064f0 <HAL_PCD_DataInStageCallback>:
  * @param  hpcd: PCD handle
  * @param  epnum: Endpoint Number
  * @retval None
  */
void HAL_PCD_DataInStageCallback(PCD_HandleTypeDef *hpcd, uint8_t epnum)
{
 80064f0:	b508      	push	{r3, lr}
  USBD_LL_DataInStage(hpcd->pData, epnum, hpcd->IN_ep[epnum].xfer_buff);
 80064f2:	ebc1 03c1 	rsb	r3, r1, r1, lsl #3
 80064f6:	eb00 0383 	add.w	r3, r0, r3, lsl #2
 80064fa:	6c9a      	ldr	r2, [r3, #72]	; 0x48
 80064fc:	f8d0 0404 	ldr.w	r0, [r0, #1028]	; 0x404
 8006500:	f005 f923 	bl	800b74a <USBD_LL_DataInStage>
}
 8006504:	bd08      	pop	{r3, pc}

08006506 <HAL_PCD_SOFCallback>:
  * @brief  SOF callback.
  * @param  hpcd: PCD handle
  * @retval None
  */
void HAL_PCD_SOFCallback(PCD_HandleTypeDef *hpcd)
{
 8006506:	b508      	push	{r3, lr}
  USBD_LL_SOF(hpcd->pData);
 8006508:	f8d0 0404 	ldr.w	r0, [r0, #1028]	; 0x404
 800650c:	f005 f9c3 	bl	800b896 <USBD_LL_SOF>
}
 8006510:	bd08      	pop	{r3, pc}

08006512 <HAL_PCD_ResetCallback>:
  * @brief  Reset callback.
  * @param  hpcd: PCD handle
  * @retval None
  */
void HAL_PCD_ResetCallback(PCD_HandleTypeDef *hpcd)
{   
 8006512:	b510      	push	{r4, lr}
 8006514:	4604      	mov	r4, r0
  /* Reset Device */
  USBD_LL_Reset(hpcd->pData);
 8006516:	f8d0 0404 	ldr.w	r0, [r0, #1028]	; 0x404
 800651a:	f005 f975 	bl	800b808 <USBD_LL_Reset>
  
  /* Set USB Current Speed */ 
  USBD_LL_SetSpeed(hpcd->pData, USBD_SPEED_FULL);
 800651e:	2101      	movs	r1, #1
 8006520:	f8d4 0404 	ldr.w	r0, [r4, #1028]	; 0x404
 8006524:	f005 f99d 	bl	800b862 <USBD_LL_SetSpeed>
}
 8006528:	bd10      	pop	{r4, pc}

0800652a <HAL_PCD_SuspendCallback>:
  * @brief  Suspend callback.
  * @param  hpcd: PCD handle
  * @retval None
  */
void HAL_PCD_SuspendCallback(PCD_HandleTypeDef *hpcd)
{ 
 800652a:	b508      	push	{r3, lr}
  USBD_LL_Suspend(hpcd->pData);
 800652c:	f8d0 0404 	ldr.w	r0, [r0, #1028]	; 0x404
 8006530:	f005 f99a 	bl	800b868 <USBD_LL_Suspend>
}
 8006534:	bd08      	pop	{r3, pc}

08006536 <HAL_PCD_ResumeCallback>:
  * @brief  Resume callback.
  * @param  hpcd: PCD handle
  * @retval None
  */
void HAL_PCD_ResumeCallback(PCD_HandleTypeDef *hpcd)
{
 8006536:	b508      	push	{r3, lr}
  USBD_LL_Resume(hpcd->pData);
 8006538:	f8d0 0404 	ldr.w	r0, [r0, #1028]	; 0x404
 800653c:	f005 f99e 	bl	800b87c <USBD_LL_Resume>
}
 8006540:	bd08      	pop	{r3, pc}

08006542 <HAL_PCD_ISOOUTIncompleteCallback>:
  * @param  hpcd: PCD handle 
  * @param  epnum: Endpoint Number
  * @retval None
  */
void HAL_PCD_ISOOUTIncompleteCallback(PCD_HandleTypeDef *hpcd, uint8_t epnum)
{
 8006542:	b508      	push	{r3, lr}
  USBD_LL_IsoOUTIncomplete(hpcd->pData, epnum);
 8006544:	f8d0 0404 	ldr.w	r0, [r0, #1028]	; 0x404
 8006548:	f005 f9cd 	bl	800b8e6 <USBD_LL_IsoOUTIncomplete>
}
 800654c:	bd08      	pop	{r3, pc}

0800654e <HAL_PCD_ISOINIncompleteCallback>:
  * @param  hpcd: PCD handle 
  * @param  epnum: Endpoint Number
  * @retval None
  */
void HAL_PCD_ISOINIncompleteCallback(PCD_HandleTypeDef *hpcd, uint8_t epnum)
{
 800654e:	b508      	push	{r3, lr}
  USBD_LL_IsoINIncomplete(hpcd->pData, epnum);
 8006550:	f8d0 0404 	ldr.w	r0, [r0, #1028]	; 0x404
 8006554:	f005 f9b3 	bl	800b8be <USBD_LL_IsoINIncomplete>
}
 8006558:	bd08      	pop	{r3, pc}

0800655a <HAL_PCD_ConnectCallback>:
  * @brief  ConnectCallback callback.
  * @param  hpcd: PCD handle
  * @retval None
  */
void HAL_PCD_ConnectCallback(PCD_HandleTypeDef *hpcd)
{
 800655a:	b508      	push	{r3, lr}
  USBD_LL_DevConnected(hpcd->pData);
 800655c:	f8d0 0404 	ldr.w	r0, [r0, #1028]	; 0x404
 8006560:	f005 f9d5 	bl	800b90e <USBD_LL_DevConnected>
}
 8006564:	bd08      	pop	{r3, pc}

08006566 <HAL_PCD_DisconnectCallback>:
  * @brief  Disconnect callback.
  * @param  hpcd: PCD handle
  * @retval None
  */
void HAL_PCD_DisconnectCallback(PCD_HandleTypeDef *hpcd)
{
 8006566:	b508      	push	{r3, lr}
  USBD_LL_DevDisconnected(hpcd->pData);
 8006568:	f8d0 0404 	ldr.w	r0, [r0, #1028]	; 0x404
 800656c:	f005 f9d1 	bl	800b912 <USBD_LL_DevDisconnected>
}
 8006570:	bd08      	pop	{r3, pc}
	...

08006574 <USBD_LL_Init>:
  * @brief  Initializes the Low Level portion of the Device driver.
  * @param  pdev: Device handle
  * @retval USBD Status
  */
USBD_StatusTypeDef USBD_LL_Init(USBD_HandleTypeDef *pdev)
{
 8006574:	b570      	push	{r4, r5, r6, lr}
  /* Set LL Driver parameters */
  hpcd.Instance = USB_OTG_FS;
 8006576:	4c15      	ldr	r4, [pc, #84]	; (80065cc <USBD_LL_Init+0x58>)
 8006578:	f04f 43a0 	mov.w	r3, #1342177280	; 0x50000000
 800657c:	6023      	str	r3, [r4, #0]
  hpcd.Init.dev_endpoints = 5;
 800657e:	2305      	movs	r3, #5
 8006580:	6063      	str	r3, [r4, #4]
  hpcd.Init.use_dedicated_ep1 = 0;
 8006582:	2500      	movs	r5, #0
 8006584:	6325      	str	r5, [r4, #48]	; 0x30
  hpcd.Init.ep0_mps = 0x40;
 8006586:	2640      	movs	r6, #64	; 0x40
 8006588:	6166      	str	r6, [r4, #20]
  hpcd.Init.dma_enable = 0;
 800658a:	6125      	str	r5, [r4, #16]
  hpcd.Init.low_power_enable = 0;
 800658c:	6225      	str	r5, [r4, #32]
  hpcd.Init.lpm_enable = 0;
 800658e:	6265      	str	r5, [r4, #36]	; 0x24
  hpcd.Init.battery_charging_enable = 0;
 8006590:	62a5      	str	r5, [r4, #40]	; 0x28
  hpcd.Init.phy_itface = PCD_PHY_EMBEDDED;
 8006592:	2302      	movs	r3, #2
 8006594:	61a3      	str	r3, [r4, #24]
  hpcd.Init.Sof_enable = 0;
 8006596:	61e5      	str	r5, [r4, #28]
  hpcd.Init.speed = PCD_SPEED_FULL;
 8006598:	60e3      	str	r3, [r4, #12]
  hpcd.Init.vbus_sensing_enable = 0;
 800659a:	62e5      	str	r5, [r4, #44]	; 0x2c
  /* Link The driver to the stack */
  hpcd.pData = pdev;
 800659c:	f8c4 0404 	str.w	r0, [r4, #1028]	; 0x404
  pdev->pData = &hpcd;
 80065a0:	f8c0 42c4 	str.w	r4, [r0, #708]	; 0x2c4
  /* Initialize LL Driver */
  HAL_PCD_Init(&hpcd);
 80065a4:	4620      	mov	r0, r4
 80065a6:	f000 fd40 	bl	800702a <HAL_PCD_Init>
  
  HAL_PCD_SetRxFiFo(&hpcd, 0x80);
 80065aa:	2180      	movs	r1, #128	; 0x80
 80065ac:	4620      	mov	r0, r4
 80065ae:	f001 f9fa 	bl	80079a6 <HAL_PCDEx_SetRxFiFo>
  HAL_PCD_SetTxFiFo(&hpcd, 0, 0x40);
 80065b2:	4632      	mov	r2, r6
 80065b4:	4629      	mov	r1, r5
 80065b6:	4620      	mov	r0, r4
 80065b8:	f001 f9cf 	bl	800795a <HAL_PCDEx_SetTxFiFo>
  HAL_PCD_SetTxFiFo(&hpcd, 1, 0x80);
 80065bc:	2280      	movs	r2, #128	; 0x80
 80065be:	2101      	movs	r1, #1
 80065c0:	4620      	mov	r0, r4
 80065c2:	f001 f9ca 	bl	800795a <HAL_PCDEx_SetTxFiFo>

  return USBD_OK;
}
 80065c6:	4628      	mov	r0, r5
 80065c8:	bd70      	pop	{r4, r5, r6, pc}
 80065ca:	bf00      	nop
 80065cc:	20002068 	.word	0x20002068

080065d0 <USBD_LL_Start>:
  * @brief  Starts the Low Level portion of the Device driver. 
  * @param  pdev: Device handle
  * @retval USBD Status
  */
USBD_StatusTypeDef USBD_LL_Start(USBD_HandleTypeDef *pdev)
{
 80065d0:	b508      	push	{r3, lr}
  HAL_PCD_Start(pdev->pData);
 80065d2:	f8d0 02c4 	ldr.w	r0, [r0, #708]	; 0x2c4
 80065d6:	f000 fdc6 	bl	8007166 <HAL_PCD_Start>
  return USBD_OK;
}
 80065da:	2000      	movs	r0, #0
 80065dc:	bd08      	pop	{r3, pc}

080065de <USBD_LL_OpenEP>:
  */
USBD_StatusTypeDef USBD_LL_OpenEP(USBD_HandleTypeDef *pdev,
                                  uint8_t ep_addr,
                                  uint8_t ep_type,
                                  uint16_t ep_mps)
{
 80065de:	b508      	push	{r3, lr}
 80065e0:	4694      	mov	ip, r2
 80065e2:	461a      	mov	r2, r3
  HAL_PCD_EP_Open(pdev->pData,
 80065e4:	4663      	mov	r3, ip
 80065e6:	f8d0 02c4 	ldr.w	r0, [r0, #708]	; 0x2c4
 80065ea:	f001 f86b 	bl	80076c4 <HAL_PCD_EP_Open>
                  ep_addr,
                  ep_mps,
                  ep_type);
  
  return USBD_OK;
}
 80065ee:	2000      	movs	r0, #0
 80065f0:	bd08      	pop	{r3, pc}

080065f2 <USBD_LL_CloseEP>:
  * @param  pdev: Device handle
  * @param  ep_addr: Endpoint Number
  * @retval USBD Status
  */
USBD_StatusTypeDef USBD_LL_CloseEP(USBD_HandleTypeDef *pdev, uint8_t ep_addr)
{
 80065f2:	b508      	push	{r3, lr}
  HAL_PCD_EP_Close(pdev->pData, ep_addr);
 80065f4:	f8d0 02c4 	ldr.w	r0, [r0, #708]	; 0x2c4
 80065f8:	f001 f8a9 	bl	800774e <HAL_PCD_EP_Close>
  return USBD_OK;
}
 80065fc:	2000      	movs	r0, #0
 80065fe:	bd08      	pop	{r3, pc}

08006600 <USBD_LL_StallEP>:
  * @param  pdev: Device handle
  * @param  ep_addr: Endpoint Number
  * @retval USBD Status
  */
USBD_StatusTypeDef USBD_LL_StallEP(USBD_HandleTypeDef *pdev, uint8_t ep_addr)
{
 8006600:	b508      	push	{r3, lr}
  HAL_PCD_EP_SetStall(pdev->pData, ep_addr);
 8006602:	f8d0 02c4 	ldr.w	r0, [r0, #708]	; 0x2c4
 8006606:	f001 f92a 	bl	800785e <HAL_PCD_EP_SetStall>
  return USBD_OK;
}
 800660a:	2000      	movs	r0, #0
 800660c:	bd08      	pop	{r3, pc}

0800660e <USBD_LL_ClearStallEP>:
  * @param  pdev: Device handle
  * @param  ep_addr: Endpoint Number
  * @retval USBD Status
  */
USBD_StatusTypeDef USBD_LL_ClearStallEP(USBD_HandleTypeDef *pdev, uint8_t ep_addr)
{
 800660e:	b508      	push	{r3, lr}
  HAL_PCD_EP_ClrStall(pdev->pData, ep_addr);
 8006610:	f8d0 02c4 	ldr.w	r0, [r0, #708]	; 0x2c4
 8006614:	f001 f966 	bl	80078e4 <HAL_PCD_EP_ClrStall>
  return USBD_OK; 
}
 8006618:	2000      	movs	r0, #0
 800661a:	bd08      	pop	{r3, pc}

0800661c <USBD_LL_IsStallEP>:
  * @param  ep_addr: Endpoint Number
  * @retval Stall (1: Yes, 0: No)
  */
uint8_t USBD_LL_IsStallEP(USBD_HandleTypeDef *pdev, uint8_t ep_addr)
{
  PCD_HandleTypeDef *hpcd = pdev->pData;
 800661c:	f8d0 32c4 	ldr.w	r3, [r0, #708]	; 0x2c4
  
  if((ep_addr & 0x80) == 0x80)
 8006620:	f011 0f80 	tst.w	r1, #128	; 0x80
 8006624:	d108      	bne.n	8006638 <USBD_LL_IsStallEP+0x1c>
  {
    return hpcd->IN_ep[ep_addr & 0x7F].is_stall;
  }
  else
  {
    return hpcd->OUT_ep[ep_addr & 0x7F].is_stall;
 8006626:	f001 017f 	and.w	r1, r1, #127	; 0x7f
 800662a:	ebc1 01c1 	rsb	r1, r1, r1, lsl #3
 800662e:	eb03 0381 	add.w	r3, r3, r1, lsl #2
 8006632:	f893 01fe 	ldrb.w	r0, [r3, #510]	; 0x1fe
  }
}
 8006636:	4770      	bx	lr
    return hpcd->IN_ep[ep_addr & 0x7F].is_stall;
 8006638:	f001 017f 	and.w	r1, r1, #127	; 0x7f
 800663c:	ebc1 01c1 	rsb	r1, r1, r1, lsl #3
 8006640:	eb03 0381 	add.w	r3, r3, r1, lsl #2
 8006644:	f893 003e 	ldrb.w	r0, [r3, #62]	; 0x3e
 8006648:	4770      	bx	lr

0800664a <USBD_LL_SetUSBAddress>:
  * @param  pdev: Device handle
  * @param  ep_addr: Endpoint Number
  * @retval USBD Status
  */
USBD_StatusTypeDef USBD_LL_SetUSBAddress(USBD_HandleTypeDef *pdev, uint8_t dev_addr)
{
 800664a:	b508      	push	{r3, lr}
  HAL_PCD_SetAddress(pdev->pData, dev_addr);
 800664c:	f8d0 02c4 	ldr.w	r0, [r0, #708]	; 0x2c4
 8006650:	f001 f824 	bl	800769c <HAL_PCD_SetAddress>
  return USBD_OK; 
}
 8006654:	2000      	movs	r0, #0
 8006656:	bd08      	pop	{r3, pc}

08006658 <USBD_LL_Transmit>:
  */
USBD_StatusTypeDef USBD_LL_Transmit(USBD_HandleTypeDef *pdev, 
                                    uint8_t ep_addr,
                                    uint8_t *pbuf,
                                    uint32_t size)
{
 8006658:	b508      	push	{r3, lr}
  HAL_PCD_EP_Transmit(pdev->pData, ep_addr, pbuf, size);
 800665a:	f8d0 02c4 	ldr.w	r0, [r0, #708]	; 0x2c4
 800665e:	f001 f8db 	bl	8007818 <HAL_PCD_EP_Transmit>
  return USBD_OK;
}
 8006662:	2000      	movs	r0, #0
 8006664:	bd08      	pop	{r3, pc}

08006666 <USBD_LL_PrepareReceive>:
  */
USBD_StatusTypeDef USBD_LL_PrepareReceive(USBD_HandleTypeDef *pdev, 
                                          uint8_t ep_addr,
                                          uint8_t *pbuf,
                                          uint32_t size)
{
 8006666:	b508      	push	{r3, lr}
  HAL_PCD_EP_Receive(pdev->pData, ep_addr, pbuf, size);
 8006668:	f8d0 02c4 	ldr.w	r0, [r0, #708]	; 0x2c4
 800666c:	f001 f8a8 	bl	80077c0 <HAL_PCD_EP_Receive>
  return USBD_OK;
}
 8006670:	2000      	movs	r0, #0
 8006672:	bd08      	pop	{r3, pc}

08006674 <USBD_LL_GetRxDataSize>:
  * @param  pdev: Device handle
  * @param  ep_addr: Endpoint Number
  * @retval Recived Data Size
  */
uint32_t USBD_LL_GetRxDataSize(USBD_HandleTypeDef *pdev, uint8_t ep_addr)
{
 8006674:	b508      	push	{r3, lr}
  return HAL_PCD_EP_GetRxCount(pdev->pData, ep_addr);
 8006676:	f8d0 02c4 	ldr.w	r0, [r0, #708]	; 0x2c4
 800667a:	f001 f8c4 	bl	8007806 <HAL_PCD_EP_GetRxCount>
}
 800667e:	bd08      	pop	{r3, pc}

08006680 <USBD_VCP_DeviceDescriptor>:
  * @param  length: Pointer to data length variable
  * @retval Pointer to descriptor buffer
  */
uint8_t *USBD_VCP_DeviceDescriptor(USBD_SpeedTypeDef speed, uint16_t *length)
{
  *length = sizeof(USBD_DeviceDesc);
 8006680:	2312      	movs	r3, #18
 8006682:	800b      	strh	r3, [r1, #0]
  return (uint8_t*)USBD_DeviceDesc;
}
 8006684:	4800      	ldr	r0, [pc, #0]	; (8006688 <USBD_VCP_DeviceDescriptor+0x8>)
 8006686:	4770      	bx	lr
 8006688:	20000024 	.word	0x20000024

0800668c <USBD_VCP_LangIDStrDescriptor>:
  * @param  length: Pointer to data length variable
  * @retval Pointer to descriptor buffer
  */
uint8_t *USBD_VCP_LangIDStrDescriptor(USBD_SpeedTypeDef speed, uint16_t *length)
{
  *length = sizeof(USBD_LangIDDesc);  
 800668c:	2304      	movs	r3, #4
 800668e:	800b      	strh	r3, [r1, #0]
  return (uint8_t*)USBD_LangIDDesc;
}
 8006690:	4800      	ldr	r0, [pc, #0]	; (8006694 <USBD_VCP_LangIDStrDescriptor+0x8>)
 8006692:	4770      	bx	lr
 8006694:	20000038 	.word	0x20000038

08006698 <IntToUnicode>:
  */
static void IntToUnicode (uint32_t value , uint8_t *pbuf , uint8_t len)
{
  uint8_t idx = 0;
  
  for( idx = 0 ; idx < len ; idx ++)
 8006698:	2300      	movs	r3, #0
 800669a:	4293      	cmp	r3, r2
 800669c:	d21e      	bcs.n	80066dc <IntToUnicode+0x44>
{
 800669e:	b500      	push	{lr}
 80066a0:	e010      	b.n	80066c4 <IntToUnicode+0x2c>
    {
      pbuf[ 2* idx] = (value >> 28) + '0';
    }
    else
    {
      pbuf[2* idx] = (value >> 28) + 'A' - 10; 
 80066a2:	f10c 0c37 	add.w	ip, ip, #55	; 0x37
 80066a6:	f801 c013 	strb.w	ip, [r1, r3, lsl #1]
    }
    
    value = value << 4;
 80066aa:	0100      	lsls	r0, r0, #4
    
    pbuf[ 2* idx + 1] = 0;
 80066ac:	ea4f 0c43 	mov.w	ip, r3, lsl #1
 80066b0:	f10c 0c01 	add.w	ip, ip, #1
 80066b4:	f04f 0e00 	mov.w	lr, #0
 80066b8:	f801 e00c 	strb.w	lr, [r1, ip]
  for( idx = 0 ; idx < len ; idx ++)
 80066bc:	3301      	adds	r3, #1
 80066be:	b2db      	uxtb	r3, r3
 80066c0:	4293      	cmp	r3, r2
 80066c2:	d209      	bcs.n	80066d8 <IntToUnicode+0x40>
    if( ((value >> 28)) < 0xA )
 80066c4:	ea4f 7c10 	mov.w	ip, r0, lsr #28
 80066c8:	f1b0 4f20 	cmp.w	r0, #2684354560	; 0xa0000000
 80066cc:	d2e9      	bcs.n	80066a2 <IntToUnicode+0xa>
      pbuf[ 2* idx] = (value >> 28) + '0';
 80066ce:	f10c 0c30 	add.w	ip, ip, #48	; 0x30
 80066d2:	f801 c013 	strb.w	ip, [r1, r3, lsl #1]
 80066d6:	e7e8      	b.n	80066aa <IntToUnicode+0x12>
  }
}
 80066d8:	f85d fb04 	ldr.w	pc, [sp], #4
 80066dc:	4770      	bx	lr
	...

080066e0 <Get_SerialNum>:
{
 80066e0:	b538      	push	{r3, r4, r5, lr}
  deviceserial0 = *(uint32_t*)DEVICE_ID1;
 80066e2:	4b0b      	ldr	r3, [pc, #44]	; (8006710 <Get_SerialNum+0x30>)
 80066e4:	f8d3 0a10 	ldr.w	r0, [r3, #2576]	; 0xa10
  deviceserial1 = *(uint32_t*)DEVICE_ID2;
 80066e8:	f8d3 4a14 	ldr.w	r4, [r3, #2580]	; 0xa14
  deviceserial2 = *(uint32_t*)DEVICE_ID3;
 80066ec:	f8d3 3a18 	ldr.w	r3, [r3, #2584]	; 0xa18
  if (deviceserial0 != 0)
 80066f0:	18c0      	adds	r0, r0, r3
 80066f2:	d100      	bne.n	80066f6 <Get_SerialNum+0x16>
}
 80066f4:	bd38      	pop	{r3, r4, r5, pc}
    IntToUnicode (deviceserial0, &USBD_StringSerial[2] ,8);
 80066f6:	4d07      	ldr	r5, [pc, #28]	; (8006714 <Get_SerialNum+0x34>)
 80066f8:	2208      	movs	r2, #8
 80066fa:	f105 011a 	add.w	r1, r5, #26
 80066fe:	f7ff ffcb 	bl	8006698 <IntToUnicode>
    IntToUnicode (deviceserial1, &USBD_StringSerial[18] ,4);
 8006702:	2204      	movs	r2, #4
 8006704:	f105 012a 	add.w	r1, r5, #42	; 0x2a
 8006708:	4620      	mov	r0, r4
 800670a:	f7ff ffc5 	bl	8006698 <IntToUnicode>
}
 800670e:	e7f1      	b.n	80066f4 <Get_SerialNum+0x14>
 8006710:	1fff7000 	.word	0x1fff7000
 8006714:	20000024 	.word	0x20000024

08006718 <USBD_VCP_SerialStrDescriptor>:
{
 8006718:	b508      	push	{r3, lr}
  *length = USB_SIZ_STRING_SERIAL;
 800671a:	231a      	movs	r3, #26
 800671c:	800b      	strh	r3, [r1, #0]
  Get_SerialNum();
 800671e:	f7ff ffdf 	bl	80066e0 <Get_SerialNum>
}
 8006722:	4801      	ldr	r0, [pc, #4]	; (8006728 <USBD_VCP_SerialStrDescriptor+0x10>)
 8006724:	bd08      	pop	{r3, pc}
 8006726:	bf00      	nop
 8006728:	2000003c 	.word	0x2000003c

0800672c <USBD_VCP_ProductStrDescriptor>:
{  
 800672c:	b510      	push	{r4, lr}
 800672e:	460a      	mov	r2, r1
  USBD_GetString((uint8_t *)USBD_PRODUCT_FS_STRING, USBD_StrDesc, length);
 8006730:	4c03      	ldr	r4, [pc, #12]	; (8006740 <USBD_VCP_ProductStrDescriptor+0x14>)
 8006732:	4621      	mov	r1, r4
 8006734:	4803      	ldr	r0, [pc, #12]	; (8006744 <USBD_VCP_ProductStrDescriptor+0x18>)
 8006736:	f005 fc2c 	bl	800bf92 <USBD_GetString>
}
 800673a:	4620      	mov	r0, r4
 800673c:	bd10      	pop	{r4, pc}
 800673e:	bf00      	nop
 8006740:	20002470 	.word	0x20002470
 8006744:	0800e1bc 	.word	0x0800e1bc

08006748 <USBD_VCP_ManufacturerStrDescriptor>:
{
 8006748:	b510      	push	{r4, lr}
 800674a:	460a      	mov	r2, r1
  USBD_GetString((uint8_t *)USBD_MANUFACTURER_STRING, USBD_StrDesc, length);
 800674c:	4c03      	ldr	r4, [pc, #12]	; (800675c <USBD_VCP_ManufacturerStrDescriptor+0x14>)
 800674e:	4621      	mov	r1, r4
 8006750:	4803      	ldr	r0, [pc, #12]	; (8006760 <USBD_VCP_ManufacturerStrDescriptor+0x18>)
 8006752:	f005 fc1e 	bl	800bf92 <USBD_GetString>
}
 8006756:	4620      	mov	r0, r4
 8006758:	bd10      	pop	{r4, pc}
 800675a:	bf00      	nop
 800675c:	20002470 	.word	0x20002470
 8006760:	0800e1e0 	.word	0x0800e1e0

08006764 <USBD_VCP_ConfigStrDescriptor>:
{ 
 8006764:	b510      	push	{r4, lr}
 8006766:	460a      	mov	r2, r1
  USBD_GetString((uint8_t *)USBD_CONFIGURATION_FS_STRING, USBD_StrDesc, length);
 8006768:	4c03      	ldr	r4, [pc, #12]	; (8006778 <USBD_VCP_ConfigStrDescriptor+0x14>)
 800676a:	4621      	mov	r1, r4
 800676c:	4803      	ldr	r0, [pc, #12]	; (800677c <USBD_VCP_ConfigStrDescriptor+0x18>)
 800676e:	f005 fc10 	bl	800bf92 <USBD_GetString>
}
 8006772:	4620      	mov	r0, r4
 8006774:	bd10      	pop	{r4, pc}
 8006776:	bf00      	nop
 8006778:	20002470 	.word	0x20002470
 800677c:	0800e1f4 	.word	0x0800e1f4

08006780 <USBD_VCP_InterfaceStrDescriptor>:
{
 8006780:	b510      	push	{r4, lr}
 8006782:	460a      	mov	r2, r1
  USBD_GetString((uint8_t *)USBD_INTERFACE_FS_STRING, USBD_StrDesc, length);
 8006784:	4c03      	ldr	r4, [pc, #12]	; (8006794 <USBD_VCP_InterfaceStrDescriptor+0x14>)
 8006786:	4621      	mov	r1, r4
 8006788:	4803      	ldr	r0, [pc, #12]	; (8006798 <USBD_VCP_InterfaceStrDescriptor+0x18>)
 800678a:	f005 fc02 	bl	800bf92 <USBD_GetString>
}
 800678e:	4620      	mov	r0, r4
 8006790:	bd10      	pop	{r4, pc}
 8006792:	bf00      	nop
 8006794:	20002470 	.word	0x20002470
 8006798:	0800e200 	.word	0x0800e200

0800679c <BSP_LED_Init>:
*          This parameter can be one of the following values:
*            @arg  LED1
* @retval None
*/
void BSP_LED_Init(Led_TypeDef Led)
{
 800679c:	b510      	push	{r4, lr}
 800679e:	b088      	sub	sp, #32
 80067a0:	4604      	mov	r4, r0
  GPIO_InitTypeDef  GPIO_InitStruct;
  
  /* Enable VddIO2 for GPIOG  */
  __HAL_RCC_PWR_CLK_ENABLE();
 80067a2:	4b1b      	ldr	r3, [pc, #108]	; (8006810 <BSP_LED_Init+0x74>)
 80067a4:	6d9a      	ldr	r2, [r3, #88]	; 0x58
 80067a6:	f042 5280 	orr.w	r2, r2, #268435456	; 0x10000000
 80067aa:	659a      	str	r2, [r3, #88]	; 0x58
 80067ac:	6d9b      	ldr	r3, [r3, #88]	; 0x58
 80067ae:	f003 5380 	and.w	r3, r3, #268435456	; 0x10000000
 80067b2:	9300      	str	r3, [sp, #0]
 80067b4:	9b00      	ldr	r3, [sp, #0]
  HAL_PWREx_EnableVddIO2();
 80067b6:	f001 f927 	bl	8007a08 <HAL_PWREx_EnableVddIO2>

  /* Enable the GPIO_LED clock */
  LEDx_GPIO_CLK_ENABLE(Led);
 80067ba:	b94c      	cbnz	r4, 80067d0 <BSP_LED_Init+0x34>
 80067bc:	4b14      	ldr	r3, [pc, #80]	; (8006810 <BSP_LED_Init+0x74>)
 80067be:	6cda      	ldr	r2, [r3, #76]	; 0x4c
 80067c0:	f042 0240 	orr.w	r2, r2, #64	; 0x40
 80067c4:	64da      	str	r2, [r3, #76]	; 0x4c
 80067c6:	6cdb      	ldr	r3, [r3, #76]	; 0x4c
 80067c8:	f003 0340 	and.w	r3, r3, #64	; 0x40
 80067cc:	9301      	str	r3, [sp, #4]
 80067ce:	9b01      	ldr	r3, [sp, #4]
 80067d0:	2c01      	cmp	r4, #1
 80067d2:	d011      	beq.n	80067f8 <BSP_LED_Init+0x5c>
  
  /* Configure the GPIO_LED pin */
  GPIO_InitStruct.Pin = GPIO_PIN[Led];
 80067d4:	4b0f      	ldr	r3, [pc, #60]	; (8006814 <BSP_LED_Init+0x78>)
 80067d6:	f853 3024 	ldr.w	r3, [r3, r4, lsl #2]
 80067da:	9303      	str	r3, [sp, #12]
  GPIO_InitStruct.Mode = GPIO_MODE_OUTPUT_PP;
 80067dc:	2301      	movs	r3, #1
 80067de:	9304      	str	r3, [sp, #16]
  GPIO_InitStruct.Pull = GPIO_NOPULL;
 80067e0:	2300      	movs	r3, #0
 80067e2:	9305      	str	r3, [sp, #20]
  GPIO_InitStruct.Speed = GPIO_SPEED_FAST;
 80067e4:	2302      	movs	r3, #2
 80067e6:	9306      	str	r3, [sp, #24]
  
  HAL_GPIO_Init(GPIO_PORT[Led], &GPIO_InitStruct);
 80067e8:	a903      	add	r1, sp, #12
 80067ea:	4b0b      	ldr	r3, [pc, #44]	; (8006818 <BSP_LED_Init+0x7c>)
 80067ec:	f853 0024 	ldr.w	r0, [r3, r4, lsl #2]
 80067f0:	f000 fa0e 	bl	8006c10 <HAL_GPIO_Init>
}
 80067f4:	b008      	add	sp, #32
 80067f6:	bd10      	pop	{r4, pc}
  LEDx_GPIO_CLK_ENABLE(Led);
 80067f8:	4b05      	ldr	r3, [pc, #20]	; (8006810 <BSP_LED_Init+0x74>)
 80067fa:	6cda      	ldr	r2, [r3, #76]	; 0x4c
 80067fc:	f042 0201 	orr.w	r2, r2, #1
 8006800:	64da      	str	r2, [r3, #76]	; 0x4c
 8006802:	6cdb      	ldr	r3, [r3, #76]	; 0x4c
 8006804:	f003 0301 	and.w	r3, r3, #1
 8006808:	9302      	str	r3, [sp, #8]
 800680a:	9b02      	ldr	r3, [sp, #8]
 800680c:	e7e2      	b.n	80067d4 <BSP_LED_Init+0x38>
 800680e:	bf00      	nop
 8006810:	40021000 	.word	0x40021000
 8006814:	0800df28 	.word	0x0800df28
 8006818:	20000074 	.word	0x20000074

0800681c <BSP_LED_Toggle>:
*            @arg  LED3
*            @arg  LED4
* @retval None
*/
void BSP_LED_Toggle(Led_TypeDef Led)
{
 800681c:	b508      	push	{r3, lr}
  HAL_GPIO_TogglePin(GPIO_PORT[Led], GPIO_PIN[Led]);
 800681e:	4b04      	ldr	r3, [pc, #16]	; (8006830 <BSP_LED_Toggle+0x14>)
 8006820:	f833 1020 	ldrh.w	r1, [r3, r0, lsl #2]
 8006824:	4b03      	ldr	r3, [pc, #12]	; (8006834 <BSP_LED_Toggle+0x18>)
 8006826:	f853 0020 	ldr.w	r0, [r3, r0, lsl #2]
 800682a:	f000 fb81 	bl	8006f30 <HAL_GPIO_TogglePin>
}
 800682e:	bd08      	pop	{r3, pc}
 8006830:	0800df28 	.word	0x0800df28
 8006834:	20000074 	.word	0x20000074

08006838 <SPI2_MspInit>:
  return ret;
}


static void SPI2_MspInit(SPI_HandleTypeDef* spiHandle)
{
 8006838:	b500      	push	{lr}
 800683a:	b089      	sub	sp, #36	; 0x24
  GPIO_InitTypeDef GPIO_InitStruct;
  /* USER CODE BEGIN SPI2_MspInit 0 */

  /* USER CODE END SPI2_MspInit 0 */
    /* Enable Peripheral clock */
    __HAL_RCC_SPI2_CLK_ENABLE();
 800683c:	4b11      	ldr	r3, [pc, #68]	; (8006884 <SPI2_MspInit+0x4c>)
 800683e:	6d9a      	ldr	r2, [r3, #88]	; 0x58
 8006840:	f442 4280 	orr.w	r2, r2, #16384	; 0x4000
 8006844:	659a      	str	r2, [r3, #88]	; 0x58
 8006846:	6d9a      	ldr	r2, [r3, #88]	; 0x58
 8006848:	f402 4280 	and.w	r2, r2, #16384	; 0x4000
 800684c:	9201      	str	r2, [sp, #4]
 800684e:	9a01      	ldr	r2, [sp, #4]
    __HAL_RCC_GPIOB_CLK_ENABLE();
 8006850:	6cda      	ldr	r2, [r3, #76]	; 0x4c
 8006852:	f042 0202 	orr.w	r2, r2, #2
 8006856:	64da      	str	r2, [r3, #76]	; 0x4c
 8006858:	6cdb      	ldr	r3, [r3, #76]	; 0x4c
 800685a:	f003 0302 	and.w	r3, r3, #2
 800685e:	9302      	str	r3, [sp, #8]
 8006860:	9b02      	ldr	r3, [sp, #8]

    /**SPI2 GPIO Configuration
    PB15     ------> SPI2_MOSI
    PB13     ------> SPI2_SCK
    */
    GPIO_InitStruct.Pin = GPIO_PIN_15|GPIO_PIN_13;
 8006862:	f44f 4320 	mov.w	r3, #40960	; 0xa000
 8006866:	9303      	str	r3, [sp, #12]
    GPIO_InitStruct.Mode = GPIO_MODE_AF_PP;
 8006868:	2302      	movs	r3, #2
 800686a:	9304      	str	r3, [sp, #16]
    GPIO_InitStruct.Pull = GPIO_PULLUP;
 800686c:	2201      	movs	r2, #1
 800686e:	9205      	str	r2, [sp, #20]
    GPIO_InitStruct.Speed = GPIO_SPEED_FREQ_HIGH;
 8006870:	9306      	str	r3, [sp, #24]
    GPIO_InitStruct.Alternate = GPIO_AF5_SPI2;
 8006872:	2305      	movs	r3, #5
 8006874:	9307      	str	r3, [sp, #28]
    HAL_GPIO_Init(GPIOB, &GPIO_InitStruct);
 8006876:	a903      	add	r1, sp, #12
 8006878:	4803      	ldr	r0, [pc, #12]	; (8006888 <SPI2_MspInit+0x50>)
 800687a:	f000 f9c9 	bl	8006c10 <HAL_GPIO_Init>

  /* USER CODE BEGIN SPI2_MspInit 1 */

  /* USER CODE END SPI2_MspInit 1 */
}
 800687e:	b009      	add	sp, #36	; 0x24
 8006880:	f85d fb04 	ldr.w	pc, [sp], #4
 8006884:	40021000 	.word	0x40021000
 8006888:	48000400 	.word	0x48000400

0800688c <SPI1_MspInit>:
{
 800688c:	b500      	push	{lr}
 800688e:	b089      	sub	sp, #36	; 0x24
    __HAL_RCC_SPI1_CLK_ENABLE();
 8006890:	4b12      	ldr	r3, [pc, #72]	; (80068dc <SPI1_MspInit+0x50>)
 8006892:	6e1a      	ldr	r2, [r3, #96]	; 0x60
 8006894:	f442 5280 	orr.w	r2, r2, #4096	; 0x1000
 8006898:	661a      	str	r2, [r3, #96]	; 0x60
 800689a:	6e1a      	ldr	r2, [r3, #96]	; 0x60
 800689c:	f402 5280 	and.w	r2, r2, #4096	; 0x1000
 80068a0:	9201      	str	r2, [sp, #4]
 80068a2:	9a01      	ldr	r2, [sp, #4]
    __HAL_RCC_GPIOA_CLK_ENABLE();
 80068a4:	6cda      	ldr	r2, [r3, #76]	; 0x4c
 80068a6:	f042 0201 	orr.w	r2, r2, #1
 80068aa:	64da      	str	r2, [r3, #76]	; 0x4c
 80068ac:	6cdb      	ldr	r3, [r3, #76]	; 0x4c
 80068ae:	f003 0301 	and.w	r3, r3, #1
 80068b2:	9302      	str	r3, [sp, #8]
 80068b4:	9b02      	ldr	r3, [sp, #8]
    GPIO_InitStruct.Pin = GPIO_PIN_7|GPIO_PIN_6|GPIO_PIN_5;
 80068b6:	23e0      	movs	r3, #224	; 0xe0
 80068b8:	9303      	str	r3, [sp, #12]
    GPIO_InitStruct.Mode = GPIO_MODE_AF_PP;
 80068ba:	2302      	movs	r3, #2
 80068bc:	9304      	str	r3, [sp, #16]
    GPIO_InitStruct.Pull = GPIO_PULLUP;
 80068be:	2301      	movs	r3, #1
 80068c0:	9305      	str	r3, [sp, #20]
    GPIO_InitStruct.Speed = GPIO_SPEED_FREQ_VERY_HIGH;
 80068c2:	2303      	movs	r3, #3
 80068c4:	9306      	str	r3, [sp, #24]
    GPIO_InitStruct.Alternate = GPIO_AF5_SPI1;
 80068c6:	2305      	movs	r3, #5
 80068c8:	9307      	str	r3, [sp, #28]
    HAL_GPIO_Init(GPIOA, &GPIO_InitStruct);
 80068ca:	a903      	add	r1, sp, #12
 80068cc:	f04f 4090 	mov.w	r0, #1207959552	; 0x48000000
 80068d0:	f000 f99e 	bl	8006c10 <HAL_GPIO_Init>
}
 80068d4:	b009      	add	sp, #36	; 0x24
 80068d6:	f85d fb04 	ldr.w	pc, [sp], #4
 80068da:	bf00      	nop
 80068dc:	40021000 	.word	0x40021000

080068e0 <BSP_SPI2_Send>:
{
 80068e0:	b510      	push	{r4, lr}
 80068e2:	460c      	mov	r4, r1
  if(HAL_SPI_Transmit(&hbusspi2, pData, len, TIMEOUT_DURATION) == HAL_OK)
 80068e4:	f44f 737a 	mov.w	r3, #1000	; 0x3e8
 80068e8:	460a      	mov	r2, r1
 80068ea:	4601      	mov	r1, r0
 80068ec:	4804      	ldr	r0, [pc, #16]	; (8006900 <BSP_SPI2_Send+0x20>)
 80068ee:	f002 fa37 	bl	8008d60 <HAL_SPI_Transmit>
 80068f2:	b908      	cbnz	r0, 80068f8 <BSP_SPI2_Send+0x18>
      ret = len;
 80068f4:	4620      	mov	r0, r4
}
 80068f6:	bd10      	pop	{r4, pc}
  int32_t ret = BSP_ERROR_UNKNOWN_FAILURE;
 80068f8:	f06f 0005 	mvn.w	r0, #5
  return ret;
 80068fc:	e7fb      	b.n	80068f6 <BSP_SPI2_Send+0x16>
 80068fe:	bf00      	nop
 8006900:	20002570 	.word	0x20002570

08006904 <BSP_SPI1_SendRecv>:
{
 8006904:	b510      	push	{r4, lr}
 8006906:	b082      	sub	sp, #8
 8006908:	4614      	mov	r4, r2
  if(HAL_SPI_TransmitReceive(&hbusspi1, pTxData, pRxData, len, TIMEOUT_DURATION) == HAL_OK)
 800690a:	f44f 737a 	mov.w	r3, #1000	; 0x3e8
 800690e:	9300      	str	r3, [sp, #0]
 8006910:	4613      	mov	r3, r2
 8006912:	460a      	mov	r2, r1
 8006914:	4601      	mov	r1, r0
 8006916:	4805      	ldr	r0, [pc, #20]	; (800692c <BSP_SPI1_SendRecv+0x28>)
 8006918:	f002 fb3c 	bl	8008f94 <HAL_SPI_TransmitReceive>
 800691c:	b910      	cbnz	r0, 8006924 <BSP_SPI1_SendRecv+0x20>
      ret = len;
 800691e:	4620      	mov	r0, r4
}
 8006920:	b002      	add	sp, #8
 8006922:	bd10      	pop	{r4, pc}
  int32_t ret = BSP_ERROR_UNKNOWN_FAILURE;
 8006924:	f06f 0005 	mvn.w	r0, #5
  return ret;
 8006928:	e7fa      	b.n	8006920 <BSP_SPI1_SendRecv+0x1c>
 800692a:	bf00      	nop
 800692c:	200025d4 	.word	0x200025d4

08006930 <BSP_GetTick>:
int32_t BSP_GetTick(void) {
 8006930:	b508      	push	{r3, lr}
  return HAL_GetTick();
 8006932:	f000 f8fb 	bl	8006b2c <HAL_GetTick>
}
 8006936:	bd08      	pop	{r3, pc}

08006938 <MX_SPI1_Init>:
{
 8006938:	b508      	push	{r3, lr}
  hspi->Instance = SPI1;
 800693a:	4a0f      	ldr	r2, [pc, #60]	; (8006978 <MX_SPI1_Init+0x40>)
 800693c:	6002      	str	r2, [r0, #0]
  hspi->Init.Mode = SPI_MODE_MASTER;
 800693e:	f44f 7282 	mov.w	r2, #260	; 0x104
 8006942:	6042      	str	r2, [r0, #4]
  hspi->Init.Direction = SPI_DIRECTION_2LINES;
 8006944:	2200      	movs	r2, #0
 8006946:	6082      	str	r2, [r0, #8]
  hspi->Init.DataSize = SPI_DATASIZE_8BIT;
 8006948:	f44f 61e0 	mov.w	r1, #1792	; 0x700
 800694c:	60c1      	str	r1, [r0, #12]
  hspi->Init.CLKPolarity = SPI_POLARITY_LOW;
 800694e:	6102      	str	r2, [r0, #16]
  hspi->Init.CLKPhase = SPI_PHASE_1EDGE;
 8006950:	6142      	str	r2, [r0, #20]
  hspi->Init.NSS = SPI_NSS_SOFT;
 8006952:	f44f 7100 	mov.w	r1, #512	; 0x200
 8006956:	6181      	str	r1, [r0, #24]
  hspi->Init.BaudRatePrescaler = SPI_BAUDRATEPRESCALER_16;
 8006958:	2118      	movs	r1, #24
 800695a:	61c1      	str	r1, [r0, #28]
  hspi->Init.FirstBit = SPI_FIRSTBIT_MSB;
 800695c:	6202      	str	r2, [r0, #32]
  hspi->Init.TIMode = SPI_TIMODE_DISABLE;
 800695e:	6242      	str	r2, [r0, #36]	; 0x24
  hspi->Init.CRCCalculation = SPI_CRCCALCULATION_DISABLE;
 8006960:	6282      	str	r2, [r0, #40]	; 0x28
  hspi->Init.CRCPolynomial = 7;
 8006962:	2107      	movs	r1, #7
 8006964:	62c1      	str	r1, [r0, #44]	; 0x2c
  hspi->Init.CRCLength = SPI_CRC_LENGTH_DATASIZE;
 8006966:	6302      	str	r2, [r0, #48]	; 0x30
  hspi->Init.NSSPMode = SPI_NSS_PULSE_ENABLE;
 8006968:	2208      	movs	r2, #8
 800696a:	6342      	str	r2, [r0, #52]	; 0x34
  if (HAL_SPI_Init(hspi) != HAL_OK)
 800696c:	f002 f96a 	bl	8008c44 <HAL_SPI_Init>
 8006970:	b100      	cbz	r0, 8006974 <MX_SPI1_Init+0x3c>
    ret = HAL_ERROR;
 8006972:	2001      	movs	r0, #1
}
 8006974:	bd08      	pop	{r3, pc}
 8006976:	bf00      	nop
 8006978:	40013000 	.word	0x40013000

0800697c <BSP_SPI1_Init>:
int32_t BSP_SPI1_Init(void) {
 800697c:	b510      	push	{r4, lr}
  hbusspi1.Instance  = SPI1;
 800697e:	480a      	ldr	r0, [pc, #40]	; (80069a8 <BSP_SPI1_Init+0x2c>)
 8006980:	4b0a      	ldr	r3, [pc, #40]	; (80069ac <BSP_SPI1_Init+0x30>)
 8006982:	f840 3f64 	str.w	r3, [r0, #100]!
  if (HAL_SPI_GetState(&hbusspi1) == HAL_SPI_STATE_RESET) 
 8006986:	f002 fd0a 	bl	800939e <HAL_SPI_GetState>
 800698a:	b108      	cbz	r0, 8006990 <BSP_SPI1_Init+0x14>
  int32_t ret = BSP_ERROR_NONE;
 800698c:	2000      	movs	r0, #0
}
 800698e:	bd10      	pop	{r4, pc}
    SPI1_MspInit(&hbusspi1);
 8006990:	4c07      	ldr	r4, [pc, #28]	; (80069b0 <BSP_SPI1_Init+0x34>)
 8006992:	4620      	mov	r0, r4
 8006994:	f7ff ff7a 	bl	800688c <SPI1_MspInit>
    if (MX_SPI1_Init(&hbusspi1) != HAL_OK)
 8006998:	4620      	mov	r0, r4
 800699a:	f7ff ffcd 	bl	8006938 <MX_SPI1_Init>
 800699e:	2800      	cmp	r0, #0
 80069a0:	d0f5      	beq.n	800698e <BSP_SPI1_Init+0x12>
      ret = BSP_ERROR_BUS_FAILURE;
 80069a2:	f06f 0007 	mvn.w	r0, #7
  return ret;
 80069a6:	e7f2      	b.n	800698e <BSP_SPI1_Init+0x12>
 80069a8:	20002570 	.word	0x20002570
 80069ac:	40013000 	.word	0x40013000
 80069b0:	200025d4 	.word	0x200025d4

080069b4 <MX_SPI2_Init>:
{
 80069b4:	b538      	push	{r3, r4, r5, lr}
 80069b6:	4604      	mov	r4, r0
  hspi->Instance = SPI2;
 80069b8:	4b19      	ldr	r3, [pc, #100]	; (8006a20 <MX_SPI2_Init+0x6c>)
 80069ba:	6003      	str	r3, [r0, #0]
  hspi->Init.Mode = SPI_MODE_MASTER;
 80069bc:	f44f 7382 	mov.w	r3, #260	; 0x104
 80069c0:	6043      	str	r3, [r0, #4]
  hspi->Init.Direction = SPI_DIRECTION_1LINE;
 80069c2:	f44f 4300 	mov.w	r3, #32768	; 0x8000
 80069c6:	6083      	str	r3, [r0, #8]
  hspi->Init.DataSize = SPI_DATASIZE_8BIT;
 80069c8:	f44f 63e0 	mov.w	r3, #1792	; 0x700
 80069cc:	60c3      	str	r3, [r0, #12]
  hspi->Init.CLKPolarity = SPI_POLARITY_HIGH;
 80069ce:	2302      	movs	r3, #2
 80069d0:	6103      	str	r3, [r0, #16]
  hspi->Init.CLKPhase = SPI_PHASE_2EDGE;
 80069d2:	2301      	movs	r3, #1
 80069d4:	6143      	str	r3, [r0, #20]
  hspi->Init.NSS = SPI_NSS_SOFT;
 80069d6:	f44f 7300 	mov.w	r3, #512	; 0x200
 80069da:	6183      	str	r3, [r0, #24]
  hspi->Init.BaudRatePrescaler = SPI_BAUDRATEPRESCALER_128;
 80069dc:	2330      	movs	r3, #48	; 0x30
 80069de:	61c3      	str	r3, [r0, #28]
  hspi->Init.FirstBit = SPI_FIRSTBIT_MSB;
 80069e0:	2300      	movs	r3, #0
 80069e2:	6203      	str	r3, [r0, #32]
  hspi->Init.TIMode = SPI_TIMODE_DISABLE;
 80069e4:	6243      	str	r3, [r0, #36]	; 0x24
  hspi->Init.CRCCalculation = SPI_CRCCALCULATION_DISABLE;
 80069e6:	6283      	str	r3, [r0, #40]	; 0x28
  hspi->Init.CRCPolynomial = 7;
 80069e8:	2207      	movs	r2, #7
 80069ea:	62c2      	str	r2, [r0, #44]	; 0x2c
  hspi->Init.CRCLength = SPI_CRC_LENGTH_DATASIZE;
 80069ec:	6303      	str	r3, [r0, #48]	; 0x30
  hspi->Init.NSSPMode = SPI_NSS_PULSE_DISABLE;
 80069ee:	6343      	str	r3, [r0, #52]	; 0x34
  if (HAL_SPI_Init(hspi) != HAL_OK)
 80069f0:	f002 f928 	bl	8008c44 <HAL_SPI_Init>
 80069f4:	4605      	mov	r5, r0
 80069f6:	b100      	cbz	r0, 80069fa <MX_SPI2_Init+0x46>
    ret = HAL_ERROR;
 80069f8:	2501      	movs	r5, #1
  HAL_Delay(5);
 80069fa:	2005      	movs	r0, #5
 80069fc:	f7ff f99e 	bl	8005d3c <HAL_Delay>
  SPI_1LINE_TX(hspi);
 8006a00:	6822      	ldr	r2, [r4, #0]
 8006a02:	6813      	ldr	r3, [r2, #0]
 8006a04:	f443 4380 	orr.w	r3, r3, #16384	; 0x4000
 8006a08:	6013      	str	r3, [r2, #0]
  HAL_Delay(5);
 8006a0a:	2005      	movs	r0, #5
 8006a0c:	f7ff f996 	bl	8005d3c <HAL_Delay>
  __HAL_SPI_ENABLE(hspi);
 8006a10:	6822      	ldr	r2, [r4, #0]
 8006a12:	6813      	ldr	r3, [r2, #0]
 8006a14:	f043 0340 	orr.w	r3, r3, #64	; 0x40
 8006a18:	6013      	str	r3, [r2, #0]
}
 8006a1a:	4628      	mov	r0, r5
 8006a1c:	bd38      	pop	{r3, r4, r5, pc}
 8006a1e:	bf00      	nop
 8006a20:	40003800 	.word	0x40003800

08006a24 <BSP_SPI2_Init>:
int32_t BSP_SPI2_Init(void) {
 8006a24:	b510      	push	{r4, lr}
  hbusspi2.Instance  = SPI2;
 8006a26:	480a      	ldr	r0, [pc, #40]	; (8006a50 <BSP_SPI2_Init+0x2c>)
 8006a28:	4b0a      	ldr	r3, [pc, #40]	; (8006a54 <BSP_SPI2_Init+0x30>)
 8006a2a:	6003      	str	r3, [r0, #0]
  if (HAL_SPI_GetState(&hbusspi2) == HAL_SPI_STATE_RESET)
 8006a2c:	f002 fcb7 	bl	800939e <HAL_SPI_GetState>
 8006a30:	b108      	cbz	r0, 8006a36 <BSP_SPI2_Init+0x12>
  int32_t ret = BSP_ERROR_NONE;
 8006a32:	2000      	movs	r0, #0
}
 8006a34:	bd10      	pop	{r4, pc}
    SPI2_MspInit(&hbusspi2);
 8006a36:	4c06      	ldr	r4, [pc, #24]	; (8006a50 <BSP_SPI2_Init+0x2c>)
 8006a38:	4620      	mov	r0, r4
 8006a3a:	f7ff fefd 	bl	8006838 <SPI2_MspInit>
    if (MX_SPI2_Init(&hbusspi2) != HAL_OK)
 8006a3e:	4620      	mov	r0, r4
 8006a40:	f7ff ffb8 	bl	80069b4 <MX_SPI2_Init>
 8006a44:	2800      	cmp	r0, #0
 8006a46:	d0f5      	beq.n	8006a34 <BSP_SPI2_Init+0x10>
      ret = BSP_ERROR_BUS_FAILURE;
 8006a48:	f06f 0007 	mvn.w	r0, #7
  return ret;
 8006a4c:	e7f2      	b.n	8006a34 <BSP_SPI2_Init+0x10>
 8006a4e:	bf00      	nop
 8006a50:	20002570 	.word	0x20002570
 8006a54:	40003800 	.word	0x40003800

08006a58 <SystemInit>:

void SystemInit(void)
{
  /* FPU settings ------------------------------------------------------------*/
  #if (__FPU_PRESENT == 1) && (__FPU_USED == 1)
    SCB->CPACR |= ((3UL << 10*2)|(3UL << 11*2));  /* set CP10 and CP11 Full Access */
 8006a58:	490f      	ldr	r1, [pc, #60]	; (8006a98 <SystemInit+0x40>)
 8006a5a:	f8d1 3088 	ldr.w	r3, [r1, #136]	; 0x88
 8006a5e:	f443 0370 	orr.w	r3, r3, #15728640	; 0xf00000
 8006a62:	f8c1 3088 	str.w	r3, [r1, #136]	; 0x88
  #endif

  /* Reset the RCC clock configuration to the default reset state ------------*/
  /* Set MSION bit */
  RCC->CR |= RCC_CR_MSION;
 8006a66:	4b0d      	ldr	r3, [pc, #52]	; (8006a9c <SystemInit+0x44>)
 8006a68:	681a      	ldr	r2, [r3, #0]
 8006a6a:	f042 0201 	orr.w	r2, r2, #1
 8006a6e:	601a      	str	r2, [r3, #0]

  /* Reset CFGR register */
  RCC->CFGR = 0x00000000U;
 8006a70:	2000      	movs	r0, #0
 8006a72:	6098      	str	r0, [r3, #8]

  /* Reset HSEON, CSSON , HSION, and PLLON bits */
  RCC->CR &= 0xEAF6FFFFU;
 8006a74:	681a      	ldr	r2, [r3, #0]
 8006a76:	f022 52a8 	bic.w	r2, r2, #352321536	; 0x15000000
 8006a7a:	f422 2210 	bic.w	r2, r2, #589824	; 0x90000
 8006a7e:	601a      	str	r2, [r3, #0]

  /* Reset PLLCFGR register */
  RCC->PLLCFGR = 0x00001000U;
 8006a80:	f44f 5280 	mov.w	r2, #4096	; 0x1000
 8006a84:	60da      	str	r2, [r3, #12]

  /* Reset HSEBYP bit */
  RCC->CR &= 0xFFFBFFFFU;
 8006a86:	681a      	ldr	r2, [r3, #0]
 8006a88:	f422 2280 	bic.w	r2, r2, #262144	; 0x40000
 8006a8c:	601a      	str	r2, [r3, #0]

  /* Disable all interrupts */
  RCC->CIER = 0x00000000U;
 8006a8e:	6198      	str	r0, [r3, #24]

  /* Configure the Vector Table location add offset address ------------------*/
#ifdef VECT_TAB_SRAM
  SCB->VTOR = SRAM_BASE | VECT_TAB_OFFSET; /* Vector Table Relocation in Internal SRAM */
#else
  SCB->VTOR = FLASH_BASE | VECT_TAB_OFFSET; /* Vector Table Relocation in Internal FLASH */
 8006a90:	4b03      	ldr	r3, [pc, #12]	; (8006aa0 <SystemInit+0x48>)
 8006a92:	608b      	str	r3, [r1, #8]
#endif
}
 8006a94:	4770      	bx	lr
 8006a96:	bf00      	nop
 8006a98:	e000ed00 	.word	0xe000ed00
 8006a9c:	40021000 	.word	0x40021000
 8006aa0:	08004000 	.word	0x08004000

08006aa4 <HAL_MspInit>:
__weak void HAL_MspInit(void)
{
  /* NOTE : This function should not be modified, when the callback is needed,
            the HAL_MspInit could be implemented in the user file
   */
}
 8006aa4:	4770      	bx	lr
	...

08006aa8 <HAL_InitTick>:
__weak HAL_StatusTypeDef HAL_InitTick(uint32_t TickPriority)
{
  HAL_StatusTypeDef  status = HAL_OK;

  /* Check uwTickFreq for MisraC 2012 (even if uwTickFreq is a enum type that doesn't take the value zero)*/
  if ((uint32_t)uwTickFreq != 0U)
 8006aa8:	4b10      	ldr	r3, [pc, #64]	; (8006aec <HAL_InitTick+0x44>)
 8006aaa:	781b      	ldrb	r3, [r3, #0]
 8006aac:	b90b      	cbnz	r3, 8006ab2 <HAL_InitTick+0xa>
      status = HAL_ERROR;
    }
  }
  else
  {
    status = HAL_ERROR;
 8006aae:	2001      	movs	r0, #1
  }

  /* Return function status */
  return status;
}
 8006ab0:	4770      	bx	lr
{
 8006ab2:	b510      	push	{r4, lr}
 8006ab4:	4604      	mov	r4, r0
    if (HAL_SYSTICK_Config(SystemCoreClock / (1000U / (uint32_t)uwTickFreq)) == 0U)
 8006ab6:	f44f 707a 	mov.w	r0, #1000	; 0x3e8
 8006aba:	fbb0 f3f3 	udiv	r3, r0, r3
 8006abe:	4a0c      	ldr	r2, [pc, #48]	; (8006af0 <HAL_InitTick+0x48>)
 8006ac0:	6810      	ldr	r0, [r2, #0]
 8006ac2:	fbb0 f0f3 	udiv	r0, r0, r3
 8006ac6:	f000 f88f 	bl	8006be8 <HAL_SYSTICK_Config>
 8006aca:	b968      	cbnz	r0, 8006ae8 <HAL_InitTick+0x40>
      if (TickPriority < (1UL << __NVIC_PRIO_BITS))
 8006acc:	2c0f      	cmp	r4, #15
 8006ace:	d901      	bls.n	8006ad4 <HAL_InitTick+0x2c>
        status = HAL_ERROR;
 8006ad0:	2001      	movs	r0, #1
 8006ad2:	e00a      	b.n	8006aea <HAL_InitTick+0x42>
        HAL_NVIC_SetPriority(SysTick_IRQn, TickPriority, 0U);
 8006ad4:	2200      	movs	r2, #0
 8006ad6:	4621      	mov	r1, r4
 8006ad8:	f04f 30ff 	mov.w	r0, #4294967295
 8006adc:	f000 f83e 	bl	8006b5c <HAL_NVIC_SetPriority>
        uwTickPrio = TickPriority;
 8006ae0:	4b02      	ldr	r3, [pc, #8]	; (8006aec <HAL_InitTick+0x44>)
 8006ae2:	605c      	str	r4, [r3, #4]
  HAL_StatusTypeDef  status = HAL_OK;
 8006ae4:	2000      	movs	r0, #0
 8006ae6:	e000      	b.n	8006aea <HAL_InitTick+0x42>
      status = HAL_ERROR;
 8006ae8:	2001      	movs	r0, #1
}
 8006aea:	bd10      	pop	{r4, pc}
 8006aec:	20000080 	.word	0x20000080
 8006af0:	2000007c 	.word	0x2000007c

08006af4 <HAL_Init>:
{
 8006af4:	b510      	push	{r4, lr}
  HAL_NVIC_SetPriorityGrouping(NVIC_PRIORITYGROUP_4);
 8006af6:	2003      	movs	r0, #3
 8006af8:	f000 f81e 	bl	8006b38 <HAL_NVIC_SetPriorityGrouping>
  if (HAL_InitTick(TICK_INT_PRIORITY) != HAL_OK)
 8006afc:	200f      	movs	r0, #15
 8006afe:	f7ff ffd3 	bl	8006aa8 <HAL_InitTick>
 8006b02:	b110      	cbz	r0, 8006b0a <HAL_Init+0x16>
    status = HAL_ERROR;
 8006b04:	2401      	movs	r4, #1
}
 8006b06:	4620      	mov	r0, r4
 8006b08:	bd10      	pop	{r4, pc}
 8006b0a:	4604      	mov	r4, r0
    HAL_MspInit();
 8006b0c:	f7ff ffca 	bl	8006aa4 <HAL_MspInit>
 8006b10:	e7f9      	b.n	8006b06 <HAL_Init+0x12>
	...

08006b14 <HAL_IncTick>:
  *      implementations in user file.
  * @retval None
  */
__weak void HAL_IncTick(void)
{
  uwTick += (uint32_t)uwTickFreq;
 8006b14:	4b03      	ldr	r3, [pc, #12]	; (8006b24 <HAL_IncTick+0x10>)
 8006b16:	781b      	ldrb	r3, [r3, #0]
 8006b18:	4a03      	ldr	r2, [pc, #12]	; (8006b28 <HAL_IncTick+0x14>)
 8006b1a:	6811      	ldr	r1, [r2, #0]
 8006b1c:	440b      	add	r3, r1
 8006b1e:	6013      	str	r3, [r2, #0]
}
 8006b20:	4770      	bx	lr
 8006b22:	bf00      	nop
 8006b24:	20000080 	.word	0x20000080
 8006b28:	20002638 	.word	0x20002638

08006b2c <HAL_GetTick>:
  *       implementations in user file.
  * @retval tick value
  */
__weak uint32_t HAL_GetTick(void)
{
  return uwTick;
 8006b2c:	4b01      	ldr	r3, [pc, #4]	; (8006b34 <HAL_GetTick+0x8>)
 8006b2e:	6818      	ldr	r0, [r3, #0]
}
 8006b30:	4770      	bx	lr
 8006b32:	bf00      	nop
 8006b34:	20002638 	.word	0x20002638

08006b38 <HAL_NVIC_SetPriorityGrouping>:
__STATIC_INLINE void __NVIC_SetPriorityGrouping(uint32_t PriorityGroup)
{
  uint32_t reg_value;
  uint32_t PriorityGroupTmp = (PriorityGroup & (uint32_t)0x07UL);             /* only values 0..7 are used          */

  reg_value  =  SCB->AIRCR;                                                   /* read old register configuration    */
 8006b38:	4a07      	ldr	r2, [pc, #28]	; (8006b58 <HAL_NVIC_SetPriorityGrouping+0x20>)
 8006b3a:	68d3      	ldr	r3, [r2, #12]
  reg_value &= ~((uint32_t)(SCB_AIRCR_VECTKEY_Msk | SCB_AIRCR_PRIGROUP_Msk)); /* clear bits to change               */
 8006b3c:	f423 63e0 	bic.w	r3, r3, #1792	; 0x700
 8006b40:	041b      	lsls	r3, r3, #16
 8006b42:	0c1b      	lsrs	r3, r3, #16
  reg_value  =  (reg_value                                   |
                ((uint32_t)0x5FAUL << SCB_AIRCR_VECTKEY_Pos) |
                (PriorityGroupTmp << SCB_AIRCR_PRIGROUP_Pos)  );              /* Insert write key and priority group */
 8006b44:	0200      	lsls	r0, r0, #8
 8006b46:	f400 60e0 	and.w	r0, r0, #1792	; 0x700
                ((uint32_t)0x5FAUL << SCB_AIRCR_VECTKEY_Pos) |
 8006b4a:	4303      	orrs	r3, r0
  reg_value  =  (reg_value                                   |
 8006b4c:	f043 63bf 	orr.w	r3, r3, #100139008	; 0x5f80000
 8006b50:	f443 3300 	orr.w	r3, r3, #131072	; 0x20000
  SCB->AIRCR =  reg_value;
 8006b54:	60d3      	str	r3, [r2, #12]
  /* Check the parameters */
  assert_param(IS_NVIC_PRIORITY_GROUP(PriorityGroup));

  /* Set the PRIGROUP[10:8] bits according to the PriorityGroup parameter value */
  NVIC_SetPriorityGrouping(PriorityGroup);
}
 8006b56:	4770      	bx	lr
 8006b58:	e000ed00 	.word	0xe000ed00

08006b5c <HAL_NVIC_SetPriority>:
  *         This parameter can be a value between 0 and 15
  *         A lower priority value indicates a higher priority.
  * @retval None
  */
void HAL_NVIC_SetPriority(IRQn_Type IRQn, uint32_t PreemptPriority, uint32_t SubPriority)
{
 8006b5c:	b500      	push	{lr}
  \details Reads the priority grouping field from the NVIC Interrupt Controller.
  \return                Priority grouping field (SCB->AIRCR [10:8] PRIGROUP field).
 */
__STATIC_INLINE uint32_t __NVIC_GetPriorityGrouping(void)
{
  return ((uint32_t)((SCB->AIRCR & SCB_AIRCR_PRIGROUP_Msk) >> SCB_AIRCR_PRIGROUP_Pos));
 8006b5e:	4b19      	ldr	r3, [pc, #100]	; (8006bc4 <HAL_NVIC_SetPriority+0x68>)
 8006b60:	68db      	ldr	r3, [r3, #12]
 8006b62:	f3c3 2302 	ubfx	r3, r3, #8, #3
{
  uint32_t PriorityGroupTmp = (PriorityGroup & (uint32_t)0x07UL);   /* only values 0..7 are used          */
  uint32_t PreemptPriorityBits;
  uint32_t SubPriorityBits;

  PreemptPriorityBits = ((7UL - PriorityGroupTmp) > (uint32_t)(__NVIC_PRIO_BITS)) ? (uint32_t)(__NVIC_PRIO_BITS) : (uint32_t)(7UL - PriorityGroupTmp);
 8006b66:	f1c3 0c07 	rsb	ip, r3, #7
 8006b6a:	f1bc 0f04 	cmp.w	ip, #4
 8006b6e:	bf28      	it	cs
 8006b70:	f04f 0c04 	movcs.w	ip, #4
  SubPriorityBits     = ((PriorityGroupTmp + (uint32_t)(__NVIC_PRIO_BITS)) < (uint32_t)7UL) ? (uint32_t)0UL : (uint32_t)((PriorityGroupTmp - 7UL) + (uint32_t)(__NVIC_PRIO_BITS));
 8006b74:	f103 0e04 	add.w	lr, r3, #4
 8006b78:	f1be 0f06 	cmp.w	lr, #6
 8006b7c:	d918      	bls.n	8006bb0 <HAL_NVIC_SetPriority+0x54>
 8006b7e:	3b03      	subs	r3, #3

  return (
           ((PreemptPriority & (uint32_t)((1UL << (PreemptPriorityBits)) - 1UL)) << SubPriorityBits) |
 8006b80:	f04f 3eff 	mov.w	lr, #4294967295
 8006b84:	fa0e fc0c 	lsl.w	ip, lr, ip
 8006b88:	ea21 010c 	bic.w	r1, r1, ip
 8006b8c:	4099      	lsls	r1, r3
           ((SubPriority     & (uint32_t)((1UL << (SubPriorityBits    )) - 1UL)))
 8006b8e:	fa0e fe03 	lsl.w	lr, lr, r3
 8006b92:	ea22 020e 	bic.w	r2, r2, lr
           ((PreemptPriority & (uint32_t)((1UL << (PreemptPriorityBits)) - 1UL)) << SubPriorityBits) |
 8006b96:	430a      	orrs	r2, r1
  if ((int32_t)(IRQn) >= 0)
 8006b98:	2800      	cmp	r0, #0
 8006b9a:	db0b      	blt.n	8006bb4 <HAL_NVIC_SetPriority+0x58>
    NVIC->IP[((uint32_t)IRQn)]               = (uint8_t)((priority << (8U - __NVIC_PRIO_BITS)) & (uint32_t)0xFFUL);
 8006b9c:	0112      	lsls	r2, r2, #4
 8006b9e:	b2d2      	uxtb	r2, r2
 8006ba0:	f100 4060 	add.w	r0, r0, #3758096384	; 0xe0000000
 8006ba4:	f500 4061 	add.w	r0, r0, #57600	; 0xe100
 8006ba8:	f880 2300 	strb.w	r2, [r0, #768]	; 0x300
  assert_param(IS_NVIC_PREEMPTION_PRIORITY(PreemptPriority));

  prioritygroup = NVIC_GetPriorityGrouping();

  NVIC_SetPriority(IRQn, NVIC_EncodePriority(prioritygroup, PreemptPriority, SubPriority));
}
 8006bac:	f85d fb04 	ldr.w	pc, [sp], #4
  SubPriorityBits     = ((PriorityGroupTmp + (uint32_t)(__NVIC_PRIO_BITS)) < (uint32_t)7UL) ? (uint32_t)0UL : (uint32_t)((PriorityGroupTmp - 7UL) + (uint32_t)(__NVIC_PRIO_BITS));
 8006bb0:	2300      	movs	r3, #0
 8006bb2:	e7e5      	b.n	8006b80 <HAL_NVIC_SetPriority+0x24>
    SCB->SHP[(((uint32_t)IRQn) & 0xFUL)-4UL] = (uint8_t)((priority << (8U - __NVIC_PRIO_BITS)) & (uint32_t)0xFFUL);
 8006bb4:	f000 000f 	and.w	r0, r0, #15
 8006bb8:	0112      	lsls	r2, r2, #4
 8006bba:	b2d2      	uxtb	r2, r2
 8006bbc:	4b02      	ldr	r3, [pc, #8]	; (8006bc8 <HAL_NVIC_SetPriority+0x6c>)
 8006bbe:	541a      	strb	r2, [r3, r0]
 8006bc0:	e7f4      	b.n	8006bac <HAL_NVIC_SetPriority+0x50>
 8006bc2:	bf00      	nop
 8006bc4:	e000ed00 	.word	0xe000ed00
 8006bc8:	e000ed14 	.word	0xe000ed14

08006bcc <HAL_NVIC_EnableIRQ>:
  if ((int32_t)(IRQn) >= 0)
 8006bcc:	2800      	cmp	r0, #0
 8006bce:	db07      	blt.n	8006be0 <HAL_NVIC_EnableIRQ+0x14>
    NVIC->ISER[(((uint32_t)IRQn) >> 5UL)] = (uint32_t)(1UL << (((uint32_t)IRQn) & 0x1FUL));
 8006bd0:	f000 021f 	and.w	r2, r0, #31
 8006bd4:	0940      	lsrs	r0, r0, #5
 8006bd6:	2301      	movs	r3, #1
 8006bd8:	4093      	lsls	r3, r2
 8006bda:	4a02      	ldr	r2, [pc, #8]	; (8006be4 <HAL_NVIC_EnableIRQ+0x18>)
 8006bdc:	f842 3020 	str.w	r3, [r2, r0, lsl #2]
  /* Check the parameters */
  assert_param(IS_NVIC_DEVICE_IRQ(IRQn));
  
  /* Enable interrupt */
  NVIC_EnableIRQ(IRQn);
}
 8006be0:	4770      	bx	lr
 8006be2:	bf00      	nop
 8006be4:	e000e100 	.word	0xe000e100

08006be8 <HAL_SYSTICK_Config>:
           function <b>SysTick_Config</b> is not included. In this case, the file <b><i>device</i>.h</b>
           must contain a vendor-specific implementation of this function.
 */
__STATIC_INLINE uint32_t SysTick_Config(uint32_t ticks)
{
  if ((ticks - 1UL) > SysTick_LOAD_RELOAD_Msk)
 8006be8:	3801      	subs	r0, #1
 8006bea:	f1b0 7f80 	cmp.w	r0, #16777216	; 0x1000000
 8006bee:	d20b      	bcs.n	8006c08 <HAL_SYSTICK_Config+0x20>
  {
    return (1UL);                                                   /* Reload value impossible */
  }

  SysTick->LOAD  = (uint32_t)(ticks - 1UL);                         /* set reload register */
 8006bf0:	f04f 23e0 	mov.w	r3, #3758153728	; 0xe000e000
 8006bf4:	6158      	str	r0, [r3, #20]
    SCB->SHP[(((uint32_t)IRQn) & 0xFUL)-4UL] = (uint8_t)((priority << (8U - __NVIC_PRIO_BITS)) & (uint32_t)0xFFUL);
 8006bf6:	4a05      	ldr	r2, [pc, #20]	; (8006c0c <HAL_SYSTICK_Config+0x24>)
 8006bf8:	21f0      	movs	r1, #240	; 0xf0
 8006bfa:	f882 1023 	strb.w	r1, [r2, #35]	; 0x23
  NVIC_SetPriority (SysTick_IRQn, (1UL << __NVIC_PRIO_BITS) - 1UL); /* set Priority for Systick Interrupt */
  SysTick->VAL   = 0UL;                                             /* Load the SysTick Counter Value */
 8006bfe:	2000      	movs	r0, #0
 8006c00:	6198      	str	r0, [r3, #24]
  SysTick->CTRL  = SysTick_CTRL_CLKSOURCE_Msk |
 8006c02:	2207      	movs	r2, #7
 8006c04:	611a      	str	r2, [r3, #16]
                   SysTick_CTRL_TICKINT_Msk   |
                   SysTick_CTRL_ENABLE_Msk;                         /* Enable SysTick IRQ and SysTick Timer */
  return (0UL);                                                     /* Function successful */
 8006c06:	4770      	bx	lr
    return (1UL);                                                   /* Reload value impossible */
 8006c08:	2001      	movs	r0, #1
  *                  - 1  Function failed.
  */
uint32_t HAL_SYSTICK_Config(uint32_t TicksNumb)
{
   return SysTick_Config(TicksNumb);
}
 8006c0a:	4770      	bx	lr
 8006c0c:	e000ed00 	.word	0xe000ed00

08006c10 <HAL_GPIO_Init>:
  * @param  GPIO_Init pointer to a GPIO_InitTypeDef structure that contains
  *         the configuration information for the specified GPIO peripheral.
  * @retval None
  */
void HAL_GPIO_Init(GPIO_TypeDef  *GPIOx, GPIO_InitTypeDef *GPIO_Init)
{
 8006c10:	b5f0      	push	{r4, r5, r6, r7, lr}
 8006c12:	b083      	sub	sp, #12
  uint32_t position = 0x00u;
 8006c14:	2300      	movs	r3, #0
  assert_param(IS_GPIO_PIN(GPIO_Init->Pin));
  assert_param(IS_GPIO_MODE(GPIO_Init->Mode));
  assert_param(IS_GPIO_PULL(GPIO_Init->Pull));

  /* Configure the port pins */
  while (((GPIO_Init->Pin) >> position) != 0x00u)
 8006c16:	e03f      	b.n	8006c98 <HAL_GPIO_Init+0x88>

      /* In case of Analog mode, check if ADC control mode is selected */
      if((GPIO_Init->Mode & GPIO_MODE_ANALOG) == GPIO_MODE_ANALOG)
      {
        /* Configure the IO Output Type */
        temp = GPIOx->ASCR;
 8006c18:	6ac5      	ldr	r5, [r0, #44]	; 0x2c
        temp &= ~(GPIO_ASCR_ASC0 << position) ;
 8006c1a:	ea25 050c 	bic.w	r5, r5, ip
        temp |= (((GPIO_Init->Mode & ANALOG_MODE) >> 3) << position);
 8006c1e:	f3c4 04c0 	ubfx	r4, r4, #3, #1
 8006c22:	409c      	lsls	r4, r3
 8006c24:	432c      	orrs	r4, r5
        GPIOx->ASCR = temp;
 8006c26:	62c4      	str	r4, [r0, #44]	; 0x2c
 8006c28:	e062      	b.n	8006cf0 <HAL_GPIO_Init+0xe0>
        /* Enable SYSCFG Clock */
        __HAL_RCC_SYSCFG_CLK_ENABLE();

        temp = SYSCFG->EXTICR[position >> 2u];
        temp &= ~(0x0FuL << (4u * (position & 0x03u)));
        temp |= (GPIO_GET_INDEX(GPIOx) << (4u * (position & 0x03u)));
 8006c2a:	2406      	movs	r4, #6
 8006c2c:	e000      	b.n	8006c30 <HAL_GPIO_Init+0x20>
 8006c2e:	2400      	movs	r4, #0
 8006c30:	40b4      	lsls	r4, r6
 8006c32:	433c      	orrs	r4, r7
        SYSCFG->EXTICR[position >> 2u] = temp;
 8006c34:	3502      	adds	r5, #2
 8006c36:	4e68      	ldr	r6, [pc, #416]	; (8006dd8 <HAL_GPIO_Init+0x1c8>)
 8006c38:	f846 4025 	str.w	r4, [r6, r5, lsl #2]

        /* Clear EXTI line configuration */
        temp = EXTI->IMR1;
 8006c3c:	4c67      	ldr	r4, [pc, #412]	; (8006ddc <HAL_GPIO_Init+0x1cc>)
 8006c3e:	6825      	ldr	r5, [r4, #0]
        temp &= ~(iocurrent);
 8006c40:	43d4      	mvns	r4, r2
 8006c42:	ea25 0602 	bic.w	r6, r5, r2
        if((GPIO_Init->Mode & GPIO_MODE_IT) == GPIO_MODE_IT)
 8006c46:	684f      	ldr	r7, [r1, #4]
 8006c48:	f417 3f80 	tst.w	r7, #65536	; 0x10000
 8006c4c:	d001      	beq.n	8006c52 <HAL_GPIO_Init+0x42>
        {
          temp |= iocurrent;
 8006c4e:	ea42 0605 	orr.w	r6, r2, r5
        }
        EXTI->IMR1 = temp;
 8006c52:	4d62      	ldr	r5, [pc, #392]	; (8006ddc <HAL_GPIO_Init+0x1cc>)
 8006c54:	602e      	str	r6, [r5, #0]

        temp = EXTI->EMR1;
 8006c56:	686d      	ldr	r5, [r5, #4]
        temp &= ~(iocurrent);
 8006c58:	ea04 0605 	and.w	r6, r4, r5
        if((GPIO_Init->Mode & GPIO_MODE_EVT) == GPIO_MODE_EVT)
 8006c5c:	684f      	ldr	r7, [r1, #4]
 8006c5e:	f417 3f00 	tst.w	r7, #131072	; 0x20000
 8006c62:	d001      	beq.n	8006c68 <HAL_GPIO_Init+0x58>
        {
          temp |= iocurrent;
 8006c64:	ea42 0605 	orr.w	r6, r2, r5
        }
        EXTI->EMR1 = temp;
 8006c68:	4d5c      	ldr	r5, [pc, #368]	; (8006ddc <HAL_GPIO_Init+0x1cc>)
 8006c6a:	606e      	str	r6, [r5, #4]

        /* Clear Rising Falling edge configuration */
        temp = EXTI->RTSR1;
 8006c6c:	68ad      	ldr	r5, [r5, #8]
        temp &= ~(iocurrent);
 8006c6e:	ea04 0605 	and.w	r6, r4, r5
        if((GPIO_Init->Mode & RISING_EDGE) == RISING_EDGE)
 8006c72:	684f      	ldr	r7, [r1, #4]
 8006c74:	f417 1f80 	tst.w	r7, #1048576	; 0x100000
 8006c78:	d001      	beq.n	8006c7e <HAL_GPIO_Init+0x6e>
        {
          temp |= iocurrent;
 8006c7a:	ea42 0605 	orr.w	r6, r2, r5
        }
        EXTI->RTSR1 = temp;
 8006c7e:	4d57      	ldr	r5, [pc, #348]	; (8006ddc <HAL_GPIO_Init+0x1cc>)
 8006c80:	60ae      	str	r6, [r5, #8]

        temp = EXTI->FTSR1;
 8006c82:	68ed      	ldr	r5, [r5, #12]
        temp &= ~(iocurrent);
 8006c84:	402c      	ands	r4, r5
        if((GPIO_Init->Mode & FALLING_EDGE) == FALLING_EDGE)
 8006c86:	684e      	ldr	r6, [r1, #4]
 8006c88:	f416 1f00 	tst.w	r6, #2097152	; 0x200000
 8006c8c:	d001      	beq.n	8006c92 <HAL_GPIO_Init+0x82>
        {
          temp |= iocurrent;
 8006c8e:	ea42 0405 	orr.w	r4, r2, r5
        }
        EXTI->FTSR1 = temp;
 8006c92:	4a52      	ldr	r2, [pc, #328]	; (8006ddc <HAL_GPIO_Init+0x1cc>)
 8006c94:	60d4      	str	r4, [r2, #12]
      }
    }

    position++;
 8006c96:	3301      	adds	r3, #1
  while (((GPIO_Init->Pin) >> position) != 0x00u)
 8006c98:	680a      	ldr	r2, [r1, #0]
 8006c9a:	fa32 f403 	lsrs.w	r4, r2, r3
 8006c9e:	f000 8098 	beq.w	8006dd2 <HAL_GPIO_Init+0x1c2>
    iocurrent = (GPIO_Init->Pin) & (1uL << position);
 8006ca2:	f04f 0c01 	mov.w	ip, #1
 8006ca6:	fa0c fc03 	lsl.w	ip, ip, r3
    if (iocurrent != 0x00u)
 8006caa:	ea1c 0202 	ands.w	r2, ip, r2
 8006cae:	d0f2      	beq.n	8006c96 <HAL_GPIO_Init+0x86>
      if((GPIO_Init->Mode == GPIO_MODE_OUTPUT_PP) || (GPIO_Init->Mode == GPIO_MODE_AF_PP) ||
 8006cb0:	684c      	ldr	r4, [r1, #4]
 8006cb2:	1e65      	subs	r5, r4, #1
 8006cb4:	2d01      	cmp	r5, #1
 8006cb6:	d903      	bls.n	8006cc0 <HAL_GPIO_Init+0xb0>
 8006cb8:	2c11      	cmp	r4, #17
 8006cba:	d001      	beq.n	8006cc0 <HAL_GPIO_Init+0xb0>
         (GPIO_Init->Mode == GPIO_MODE_OUTPUT_OD) || (GPIO_Init->Mode == GPIO_MODE_AF_OD))
 8006cbc:	2c12      	cmp	r4, #18
 8006cbe:	d112      	bne.n	8006ce6 <HAL_GPIO_Init+0xd6>
        temp = GPIOx->OSPEEDR;
 8006cc0:	6885      	ldr	r5, [r0, #8]
        temp &= ~(GPIO_OSPEEDR_OSPEED0 << (position * 2u));
 8006cc2:	005e      	lsls	r6, r3, #1
 8006cc4:	2403      	movs	r4, #3
 8006cc6:	40b4      	lsls	r4, r6
 8006cc8:	ea25 0504 	bic.w	r5, r5, r4
        temp |= (GPIO_Init->Speed << (position * 2u));
 8006ccc:	68cc      	ldr	r4, [r1, #12]
 8006cce:	40b4      	lsls	r4, r6
 8006cd0:	432c      	orrs	r4, r5
        GPIOx->OSPEEDR = temp;
 8006cd2:	6084      	str	r4, [r0, #8]
        temp = GPIOx->OTYPER;
 8006cd4:	6845      	ldr	r5, [r0, #4]
        temp &= ~(GPIO_OTYPER_OT0 << position) ;
 8006cd6:	ea25 050c 	bic.w	r5, r5, ip
        temp |= (((GPIO_Init->Mode & GPIO_OUTPUT_TYPE) >> 4u) << position);
 8006cda:	684c      	ldr	r4, [r1, #4]
 8006cdc:	f3c4 1400 	ubfx	r4, r4, #4, #1
 8006ce0:	409c      	lsls	r4, r3
 8006ce2:	432c      	orrs	r4, r5
        GPIOx->OTYPER = temp;
 8006ce4:	6044      	str	r4, [r0, #4]
      if((GPIO_Init->Mode & GPIO_MODE_ANALOG) == GPIO_MODE_ANALOG)
 8006ce6:	684c      	ldr	r4, [r1, #4]
 8006ce8:	f004 0503 	and.w	r5, r4, #3
 8006cec:	2d03      	cmp	r5, #3
 8006cee:	d093      	beq.n	8006c18 <HAL_GPIO_Init+0x8>
      temp = GPIOx->PUPDR;
 8006cf0:	68c5      	ldr	r5, [r0, #12]
      temp &= ~(GPIO_PUPDR_PUPD0 << (position * 2u));
 8006cf2:	ea4f 0e43 	mov.w	lr, r3, lsl #1
 8006cf6:	2403      	movs	r4, #3
 8006cf8:	fa04 f40e 	lsl.w	r4, r4, lr
 8006cfc:	ea6f 0c04 	mvn.w	ip, r4
 8006d00:	ea25 0504 	bic.w	r5, r5, r4
      temp |= ((GPIO_Init->Pull) << (position * 2u));
 8006d04:	688c      	ldr	r4, [r1, #8]
 8006d06:	fa04 f40e 	lsl.w	r4, r4, lr
 8006d0a:	432c      	orrs	r4, r5
      GPIOx->PUPDR = temp;
 8006d0c:	60c4      	str	r4, [r0, #12]
      if((GPIO_Init->Mode == GPIO_MODE_AF_PP) || (GPIO_Init->Mode == GPIO_MODE_AF_OD))
 8006d0e:	684c      	ldr	r4, [r1, #4]
 8006d10:	2c02      	cmp	r4, #2
 8006d12:	d001      	beq.n	8006d18 <HAL_GPIO_Init+0x108>
 8006d14:	2c12      	cmp	r4, #18
 8006d16:	d10f      	bne.n	8006d38 <HAL_GPIO_Init+0x128>
        temp = GPIOx->AFR[position >> 3u];
 8006d18:	08dd      	lsrs	r5, r3, #3
 8006d1a:	3508      	adds	r5, #8
 8006d1c:	f850 7025 	ldr.w	r7, [r0, r5, lsl #2]
        temp &= ~(0xFu << ((position & 0x07u) * 4u));
 8006d20:	f003 0607 	and.w	r6, r3, #7
 8006d24:	00b6      	lsls	r6, r6, #2
 8006d26:	240f      	movs	r4, #15
 8006d28:	40b4      	lsls	r4, r6
 8006d2a:	ea27 0704 	bic.w	r7, r7, r4
        temp |= ((GPIO_Init->Alternate) << ((position & 0x07u) * 4u));
 8006d2e:	690c      	ldr	r4, [r1, #16]
 8006d30:	40b4      	lsls	r4, r6
 8006d32:	433c      	orrs	r4, r7
        GPIOx->AFR[position >> 3u] = temp;
 8006d34:	f840 4025 	str.w	r4, [r0, r5, lsl #2]
      temp = GPIOx->MODER;
 8006d38:	6804      	ldr	r4, [r0, #0]
      temp &= ~(GPIO_MODER_MODE0 << (position * 2u));
 8006d3a:	ea0c 0c04 	and.w	ip, ip, r4
      temp |= ((GPIO_Init->Mode & GPIO_MODE) << (position * 2u));
 8006d3e:	684c      	ldr	r4, [r1, #4]
 8006d40:	f004 0403 	and.w	r4, r4, #3
 8006d44:	fa04 f40e 	lsl.w	r4, r4, lr
 8006d48:	ea44 040c 	orr.w	r4, r4, ip
      GPIOx->MODER = temp;
 8006d4c:	6004      	str	r4, [r0, #0]
      if((GPIO_Init->Mode & EXTI_MODE) == EXTI_MODE)
 8006d4e:	684c      	ldr	r4, [r1, #4]
 8006d50:	f014 5f80 	tst.w	r4, #268435456	; 0x10000000
 8006d54:	d09f      	beq.n	8006c96 <HAL_GPIO_Init+0x86>
        __HAL_RCC_SYSCFG_CLK_ENABLE();
 8006d56:	4c22      	ldr	r4, [pc, #136]	; (8006de0 <HAL_GPIO_Init+0x1d0>)
 8006d58:	6e25      	ldr	r5, [r4, #96]	; 0x60
 8006d5a:	f045 0501 	orr.w	r5, r5, #1
 8006d5e:	6625      	str	r5, [r4, #96]	; 0x60
 8006d60:	6e24      	ldr	r4, [r4, #96]	; 0x60
 8006d62:	f004 0401 	and.w	r4, r4, #1
 8006d66:	9401      	str	r4, [sp, #4]
 8006d68:	9c01      	ldr	r4, [sp, #4]
        temp = SYSCFG->EXTICR[position >> 2u];
 8006d6a:	089d      	lsrs	r5, r3, #2
 8006d6c:	1cae      	adds	r6, r5, #2
 8006d6e:	4c1a      	ldr	r4, [pc, #104]	; (8006dd8 <HAL_GPIO_Init+0x1c8>)
 8006d70:	f854 7026 	ldr.w	r7, [r4, r6, lsl #2]
        temp &= ~(0x0FuL << (4u * (position & 0x03u)));
 8006d74:	f003 0603 	and.w	r6, r3, #3
 8006d78:	00b6      	lsls	r6, r6, #2
 8006d7a:	240f      	movs	r4, #15
 8006d7c:	40b4      	lsls	r4, r6
 8006d7e:	ea27 0704 	bic.w	r7, r7, r4
        temp |= (GPIO_GET_INDEX(GPIOx) << (4u * (position & 0x03u)));
 8006d82:	f1b0 4f90 	cmp.w	r0, #1207959552	; 0x48000000
 8006d86:	f43f af52 	beq.w	8006c2e <HAL_GPIO_Init+0x1e>
 8006d8a:	4c16      	ldr	r4, [pc, #88]	; (8006de4 <HAL_GPIO_Init+0x1d4>)
 8006d8c:	42a0      	cmp	r0, r4
 8006d8e:	d016      	beq.n	8006dbe <HAL_GPIO_Init+0x1ae>
 8006d90:	f504 6480 	add.w	r4, r4, #1024	; 0x400
 8006d94:	42a0      	cmp	r0, r4
 8006d96:	d014      	beq.n	8006dc2 <HAL_GPIO_Init+0x1b2>
 8006d98:	f504 6480 	add.w	r4, r4, #1024	; 0x400
 8006d9c:	42a0      	cmp	r0, r4
 8006d9e:	d012      	beq.n	8006dc6 <HAL_GPIO_Init+0x1b6>
 8006da0:	f504 6480 	add.w	r4, r4, #1024	; 0x400
 8006da4:	42a0      	cmp	r0, r4
 8006da6:	d010      	beq.n	8006dca <HAL_GPIO_Init+0x1ba>
 8006da8:	f504 6480 	add.w	r4, r4, #1024	; 0x400
 8006dac:	42a0      	cmp	r0, r4
 8006dae:	d00e      	beq.n	8006dce <HAL_GPIO_Init+0x1be>
 8006db0:	f504 6480 	add.w	r4, r4, #1024	; 0x400
 8006db4:	42a0      	cmp	r0, r4
 8006db6:	f43f af38 	beq.w	8006c2a <HAL_GPIO_Init+0x1a>
 8006dba:	2407      	movs	r4, #7
 8006dbc:	e738      	b.n	8006c30 <HAL_GPIO_Init+0x20>
 8006dbe:	2401      	movs	r4, #1
 8006dc0:	e736      	b.n	8006c30 <HAL_GPIO_Init+0x20>
 8006dc2:	2402      	movs	r4, #2
 8006dc4:	e734      	b.n	8006c30 <HAL_GPIO_Init+0x20>
 8006dc6:	2403      	movs	r4, #3
 8006dc8:	e732      	b.n	8006c30 <HAL_GPIO_Init+0x20>
 8006dca:	2404      	movs	r4, #4
 8006dcc:	e730      	b.n	8006c30 <HAL_GPIO_Init+0x20>
 8006dce:	2405      	movs	r4, #5
 8006dd0:	e72e      	b.n	8006c30 <HAL_GPIO_Init+0x20>
  }
}
 8006dd2:	b003      	add	sp, #12
 8006dd4:	bdf0      	pop	{r4, r5, r6, r7, pc}
 8006dd6:	bf00      	nop
 8006dd8:	40010000 	.word	0x40010000
 8006ddc:	40010400 	.word	0x40010400
 8006de0:	40021000 	.word	0x40021000
 8006de4:	48000400 	.word	0x48000400

08006de8 <HAL_GPIO_DeInit>:
  *         This parameter can be any combination of GPIO_Pin_x where x can be (0..15).
  * @retval None
  */
void HAL_GPIO_DeInit(GPIO_TypeDef  *GPIOx, uint32_t GPIO_Pin)
{
  uint32_t position = 0x00u;
 8006de8:	2300      	movs	r3, #0
  /* Check the parameters */
  assert_param(IS_GPIO_ALL_INSTANCE(GPIOx));
  assert_param(IS_GPIO_PIN(GPIO_Pin));

  /* Configure the port pins */
  while ((GPIO_Pin >> position) != 0x00u)
 8006dea:	fa31 f203 	lsrs.w	r2, r1, r3
 8006dee:	f000 808b 	beq.w	8006f08 <HAL_GPIO_DeInit+0x120>
{
 8006df2:	b5f0      	push	{r4, r5, r6, r7, lr}
 8006df4:	e032      	b.n	8006e5c <HAL_GPIO_DeInit+0x74>
      /*------------------------- EXTI Mode Configuration --------------------*/
      /* Clear the External Interrupt or Event for the current IO */

      tmp = SYSCFG->EXTICR[position >> 2u];
      tmp &= (0x0FuL << (4u * (position & 0x03u)));
      if (tmp == (GPIO_GET_INDEX(GPIOx) << (4u * (position & 0x03u))))
 8006df6:	2506      	movs	r5, #6
 8006df8:	e000      	b.n	8006dfc <HAL_GPIO_DeInit+0x14>
 8006dfa:	2500      	movs	r5, #0
 8006dfc:	fa05 f50c 	lsl.w	r5, r5, ip
 8006e00:	42a5      	cmp	r5, r4
 8006e02:	d065      	beq.n	8006ed0 <HAL_GPIO_DeInit+0xe8>
        SYSCFG->EXTICR[position >> 2u] &= ~tmp;
      }

      /*------------------------- GPIO Mode Configuration --------------------*/
      /* Configure IO in Analog Mode */
      GPIOx->MODER |= (GPIO_MODER_MODE0 << (position * 2u));
 8006e04:	6804      	ldr	r4, [r0, #0]
 8006e06:	005d      	lsls	r5, r3, #1
 8006e08:	f04f 0c03 	mov.w	ip, #3
 8006e0c:	fa0c fc05 	lsl.w	ip, ip, r5
 8006e10:	ea44 040c 	orr.w	r4, r4, ip
 8006e14:	6004      	str	r4, [r0, #0]

      /* Configure the default Alternate Function in current IO */
      GPIOx->AFR[position >> 3u] &= ~(0xFu << ((position & 0x07u) * 4u)) ;
 8006e16:	ea4f 0ed3 	mov.w	lr, r3, lsr #3
 8006e1a:	f10e 0e08 	add.w	lr, lr, #8
 8006e1e:	f850 402e 	ldr.w	r4, [r0, lr, lsl #2]
 8006e22:	f003 0607 	and.w	r6, r3, #7
 8006e26:	00b6      	lsls	r6, r6, #2
 8006e28:	250f      	movs	r5, #15
 8006e2a:	40b5      	lsls	r5, r6
 8006e2c:	ea24 0405 	bic.w	r4, r4, r5
 8006e30:	f840 402e 	str.w	r4, [r0, lr, lsl #2]

      /* Configure the default value for IO Speed */
      GPIOx->OSPEEDR &= ~(GPIO_OSPEEDR_OSPEED0 << (position * 2u));
 8006e34:	6884      	ldr	r4, [r0, #8]
 8006e36:	ea24 040c 	bic.w	r4, r4, ip
 8006e3a:	6084      	str	r4, [r0, #8]

      /* Configure the default value IO Output Type */
      GPIOx->OTYPER  &= ~(GPIO_OTYPER_OT0 << position) ;
 8006e3c:	6844      	ldr	r4, [r0, #4]
 8006e3e:	ea24 0402 	bic.w	r4, r4, r2
 8006e42:	6044      	str	r4, [r0, #4]

      /* Deactivate the Pull-up and Pull-down resistor for the current IO */
      GPIOx->PUPDR &= ~(GPIO_PUPDR_PUPD0 << (position * 2u));
 8006e44:	68c4      	ldr	r4, [r0, #12]
 8006e46:	ea24 040c 	bic.w	r4, r4, ip
 8006e4a:	60c4      	str	r4, [r0, #12]

#if defined(STM32L471xx) || defined(STM32L475xx) || defined(STM32L476xx) || defined(STM32L485xx) || defined(STM32L486xx)
      /* Deactivate the Control bit of Analog mode for the current IO */
      GPIOx->ASCR &= ~(GPIO_ASCR_ASC0<< position);
 8006e4c:	6ac4      	ldr	r4, [r0, #44]	; 0x2c
 8006e4e:	ea24 0202 	bic.w	r2, r4, r2
 8006e52:	62c2      	str	r2, [r0, #44]	; 0x2c
#endif /* STM32L471xx || STM32L475xx || STM32L476xx || STM32L485xx || STM32L486xx */
    }

    position++;
 8006e54:	3301      	adds	r3, #1
  while ((GPIO_Pin >> position) != 0x00u)
 8006e56:	fa31 f203 	lsrs.w	r2, r1, r3
 8006e5a:	d054      	beq.n	8006f06 <HAL_GPIO_DeInit+0x11e>
    iocurrent = (GPIO_Pin) & (1uL << position);
 8006e5c:	2201      	movs	r2, #1
 8006e5e:	409a      	lsls	r2, r3
    if (iocurrent != 0x00u)
 8006e60:	ea12 0701 	ands.w	r7, r2, r1
 8006e64:	d0f6      	beq.n	8006e54 <HAL_GPIO_DeInit+0x6c>
      tmp = SYSCFG->EXTICR[position >> 2u];
 8006e66:	ea4f 0e93 	mov.w	lr, r3, lsr #2
 8006e6a:	f10e 0502 	add.w	r5, lr, #2
 8006e6e:	4c27      	ldr	r4, [pc, #156]	; (8006f0c <HAL_GPIO_DeInit+0x124>)
 8006e70:	f854 4025 	ldr.w	r4, [r4, r5, lsl #2]
      tmp &= (0x0FuL << (4u * (position & 0x03u)));
 8006e74:	f003 0c03 	and.w	ip, r3, #3
 8006e78:	ea4f 0c8c 	mov.w	ip, ip, lsl #2
 8006e7c:	250f      	movs	r5, #15
 8006e7e:	fa05 f60c 	lsl.w	r6, r5, ip
 8006e82:	4034      	ands	r4, r6
      if (tmp == (GPIO_GET_INDEX(GPIOx) << (4u * (position & 0x03u))))
 8006e84:	f1b0 4f90 	cmp.w	r0, #1207959552	; 0x48000000
 8006e88:	d0b7      	beq.n	8006dfa <HAL_GPIO_DeInit+0x12>
 8006e8a:	4d21      	ldr	r5, [pc, #132]	; (8006f10 <HAL_GPIO_DeInit+0x128>)
 8006e8c:	42a8      	cmp	r0, r5
 8006e8e:	d015      	beq.n	8006ebc <HAL_GPIO_DeInit+0xd4>
 8006e90:	f505 6580 	add.w	r5, r5, #1024	; 0x400
 8006e94:	42a8      	cmp	r0, r5
 8006e96:	d013      	beq.n	8006ec0 <HAL_GPIO_DeInit+0xd8>
 8006e98:	f505 6580 	add.w	r5, r5, #1024	; 0x400
 8006e9c:	42a8      	cmp	r0, r5
 8006e9e:	d011      	beq.n	8006ec4 <HAL_GPIO_DeInit+0xdc>
 8006ea0:	f505 6580 	add.w	r5, r5, #1024	; 0x400
 8006ea4:	42a8      	cmp	r0, r5
 8006ea6:	d00f      	beq.n	8006ec8 <HAL_GPIO_DeInit+0xe0>
 8006ea8:	f505 6580 	add.w	r5, r5, #1024	; 0x400
 8006eac:	42a8      	cmp	r0, r5
 8006eae:	d00d      	beq.n	8006ecc <HAL_GPIO_DeInit+0xe4>
 8006eb0:	f505 6580 	add.w	r5, r5, #1024	; 0x400
 8006eb4:	42a8      	cmp	r0, r5
 8006eb6:	d09e      	beq.n	8006df6 <HAL_GPIO_DeInit+0xe>
 8006eb8:	2507      	movs	r5, #7
 8006eba:	e79f      	b.n	8006dfc <HAL_GPIO_DeInit+0x14>
 8006ebc:	2501      	movs	r5, #1
 8006ebe:	e79d      	b.n	8006dfc <HAL_GPIO_DeInit+0x14>
 8006ec0:	2502      	movs	r5, #2
 8006ec2:	e79b      	b.n	8006dfc <HAL_GPIO_DeInit+0x14>
 8006ec4:	2503      	movs	r5, #3
 8006ec6:	e799      	b.n	8006dfc <HAL_GPIO_DeInit+0x14>
 8006ec8:	2504      	movs	r5, #4
 8006eca:	e797      	b.n	8006dfc <HAL_GPIO_DeInit+0x14>
 8006ecc:	2505      	movs	r5, #5
 8006ece:	e795      	b.n	8006dfc <HAL_GPIO_DeInit+0x14>
        EXTI->IMR1 &= ~(iocurrent);
 8006ed0:	4c10      	ldr	r4, [pc, #64]	; (8006f14 <HAL_GPIO_DeInit+0x12c>)
 8006ed2:	6825      	ldr	r5, [r4, #0]
 8006ed4:	ea25 0507 	bic.w	r5, r5, r7
 8006ed8:	6025      	str	r5, [r4, #0]
        EXTI->EMR1 &= ~(iocurrent);
 8006eda:	6865      	ldr	r5, [r4, #4]
 8006edc:	ea25 0507 	bic.w	r5, r5, r7
 8006ee0:	6065      	str	r5, [r4, #4]
        EXTI->RTSR1 &= ~(iocurrent);
 8006ee2:	68a5      	ldr	r5, [r4, #8]
 8006ee4:	ea25 0507 	bic.w	r5, r5, r7
 8006ee8:	60a5      	str	r5, [r4, #8]
        EXTI->FTSR1 &= ~(iocurrent);
 8006eea:	68e5      	ldr	r5, [r4, #12]
 8006eec:	ea25 0507 	bic.w	r5, r5, r7
 8006ef0:	60e5      	str	r5, [r4, #12]
        SYSCFG->EXTICR[position >> 2u] &= ~tmp;
 8006ef2:	4f06      	ldr	r7, [pc, #24]	; (8006f0c <HAL_GPIO_DeInit+0x124>)
 8006ef4:	f10e 0402 	add.w	r4, lr, #2
 8006ef8:	f857 5024 	ldr.w	r5, [r7, r4, lsl #2]
 8006efc:	ea25 0506 	bic.w	r5, r5, r6
 8006f00:	f847 5024 	str.w	r5, [r7, r4, lsl #2]
 8006f04:	e77e      	b.n	8006e04 <HAL_GPIO_DeInit+0x1c>
  }
}
 8006f06:	bdf0      	pop	{r4, r5, r6, r7, pc}
 8006f08:	4770      	bx	lr
 8006f0a:	bf00      	nop
 8006f0c:	40010000 	.word	0x40010000
 8006f10:	48000400 	.word	0x48000400
 8006f14:	40010400 	.word	0x40010400

08006f18 <HAL_GPIO_ReadPin>:
  GPIO_PinState bitstatus;

  /* Check the parameters */
  assert_param(IS_GPIO_PIN(GPIO_Pin));

  if ((GPIOx->IDR & GPIO_Pin) != 0x00u)
 8006f18:	6903      	ldr	r3, [r0, #16]
 8006f1a:	4219      	tst	r1, r3
 8006f1c:	d001      	beq.n	8006f22 <HAL_GPIO_ReadPin+0xa>
  {
    bitstatus = GPIO_PIN_SET;
 8006f1e:	2001      	movs	r0, #1
 8006f20:	4770      	bx	lr
  }
  else
  {
    bitstatus = GPIO_PIN_RESET;
 8006f22:	2000      	movs	r0, #0
  }
  return bitstatus;
}
 8006f24:	4770      	bx	lr

08006f26 <HAL_GPIO_WritePin>:
{
  /* Check the parameters */
  assert_param(IS_GPIO_PIN(GPIO_Pin));
  assert_param(IS_GPIO_PIN_ACTION(PinState));

  if(PinState != GPIO_PIN_RESET)
 8006f26:	b10a      	cbz	r2, 8006f2c <HAL_GPIO_WritePin+0x6>
  {
    GPIOx->BSRR = (uint32_t)GPIO_Pin;
 8006f28:	6181      	str	r1, [r0, #24]
 8006f2a:	4770      	bx	lr
  }
  else
  {
    GPIOx->BRR = (uint32_t)GPIO_Pin;
 8006f2c:	6281      	str	r1, [r0, #40]	; 0x28
  }
}
 8006f2e:	4770      	bx	lr

08006f30 <HAL_GPIO_TogglePin>:

  /* Check the parameters */
  assert_param(IS_GPIO_PIN(GPIO_Pin));

  /* get current Ouput Data Register value */
  odr = GPIOx->ODR;
 8006f30:	6943      	ldr	r3, [r0, #20]

  /* Set selected pins that were at low level, and reset ones that were high */
  GPIOx->BSRR = ((odr & GPIO_Pin) << GPIO_NUMBER) | (~odr & GPIO_Pin);
 8006f32:	ea01 0203 	and.w	r2, r1, r3
 8006f36:	ea21 0103 	bic.w	r1, r1, r3
 8006f3a:	ea41 4102 	orr.w	r1, r1, r2, lsl #16
 8006f3e:	6181      	str	r1, [r0, #24]
}
 8006f40:	4770      	bx	lr
	...

08006f44 <HAL_GPIO_EXTI_IRQHandler>:
  * @brief  Handle EXTI interrupt request.
  * @param  GPIO_Pin Specifies the port pin connected to corresponding EXTI line.
  * @retval None
  */
void HAL_GPIO_EXTI_IRQHandler(uint16_t GPIO_Pin)
{
 8006f44:	b508      	push	{r3, lr}
  /* EXTI line interrupt detected */
  if(__HAL_GPIO_EXTI_GET_IT(GPIO_Pin) != 0x00u)
 8006f46:	4b05      	ldr	r3, [pc, #20]	; (8006f5c <HAL_GPIO_EXTI_IRQHandler+0x18>)
 8006f48:	695b      	ldr	r3, [r3, #20]
 8006f4a:	4203      	tst	r3, r0
 8006f4c:	d100      	bne.n	8006f50 <HAL_GPIO_EXTI_IRQHandler+0xc>
  {
    __HAL_GPIO_EXTI_CLEAR_IT(GPIO_Pin);
    HAL_GPIO_EXTI_Callback(GPIO_Pin);
  }
}
 8006f4e:	bd08      	pop	{r3, pc}
    __HAL_GPIO_EXTI_CLEAR_IT(GPIO_Pin);
 8006f50:	4b02      	ldr	r3, [pc, #8]	; (8006f5c <HAL_GPIO_EXTI_IRQHandler+0x18>)
 8006f52:	6158      	str	r0, [r3, #20]
    HAL_GPIO_EXTI_Callback(GPIO_Pin);
 8006f54:	f7ff f900 	bl	8006158 <HAL_GPIO_EXTI_Callback>
}
 8006f58:	e7f9      	b.n	8006f4e <HAL_GPIO_EXTI_IRQHandler+0xa>
 8006f5a:	bf00      	nop
 8006f5c:	40010400 	.word	0x40010400

08006f60 <PCD_WriteEmptyTxFifo>:
  * @param  hpcd PCD handle
  * @param  epnum endpoint number
  * @retval HAL status
  */
static HAL_StatusTypeDef PCD_WriteEmptyTxFifo(PCD_HandleTypeDef *hpcd, uint32_t epnum)
{
 8006f60:	e92d 43f8 	stmdb	sp!, {r3, r4, r5, r6, r7, r8, r9, lr}
  USB_OTG_GlobalTypeDef *USBx = hpcd->Instance;
 8006f64:	6807      	ldr	r7, [r0, #0]
  uint32_t len32b;
  uint32_t fifoemptymsk;

  ep = &hpcd->IN_ep[epnum];

  if (ep->xfer_count > ep->xfer_len)
 8006f66:	ebc1 03c1 	rsb	r3, r1, r1, lsl #3
 8006f6a:	eb00 0383 	add.w	r3, r0, r3, lsl #2
 8006f6e:	6d5a      	ldr	r2, [r3, #84]	; 0x54
 8006f70:	6d1b      	ldr	r3, [r3, #80]	; 0x50
 8006f72:	429a      	cmp	r2, r3
 8006f74:	d854      	bhi.n	8007020 <PCD_WriteEmptyTxFifo+0xc0>
 8006f76:	4680      	mov	r8, r0
 8006f78:	460c      	mov	r4, r1
  {
    return HAL_ERROR;
  }

  len = ep->xfer_len - ep->xfer_count;
 8006f7a:	1a9b      	subs	r3, r3, r2

  if (len > ep->maxpacket)
 8006f7c:	ebc1 02c1 	rsb	r2, r1, r1, lsl #3
 8006f80:	eb00 0282 	add.w	r2, r0, r2, lsl #2
 8006f84:	6c52      	ldr	r2, [r2, #68]	; 0x44
 8006f86:	429a      	cmp	r2, r3
 8006f88:	d300      	bcc.n	8006f8c <PCD_WriteEmptyTxFifo+0x2c>
  len = ep->xfer_len - ep->xfer_count;
 8006f8a:	461a      	mov	r2, r3
  {
    len = ep->maxpacket;
  }

  len32b = (len + 3U) / 4U;
 8006f8c:	f102 0903 	add.w	r9, r2, #3
 8006f90:	ea4f 0999 	mov.w	r9, r9, lsr #2

  while (((USBx_INEP(epnum)->DTXFSTS & USB_OTG_DTXFSTS_INEPTFSAV) >= len32b) &&
 8006f94:	e013      	b.n	8006fbe <PCD_WriteEmptyTxFifo+0x5e>

    if (len > ep->maxpacket)
    {
      len = ep->maxpacket;
    }
    len32b = (len + 3U) / 4U;
 8006f96:	f106 0903 	add.w	r9, r6, #3
 8006f9a:	ea4f 0999 	mov.w	r9, r9, lsr #2

    (void)USB_WritePacket(USBx, ep->xfer_buff, (uint8_t)epnum, (uint16_t)len);
 8006f9e:	ebc4 05c4 	rsb	r5, r4, r4, lsl #3
 8006fa2:	eb08 0585 	add.w	r5, r8, r5, lsl #2
 8006fa6:	b2b3      	uxth	r3, r6
 8006fa8:	b2e2      	uxtb	r2, r4
 8006faa:	6ca9      	ldr	r1, [r5, #72]	; 0x48
 8006fac:	4638      	mov	r0, r7
 8006fae:	f003 f9fc 	bl	800a3aa <USB_WritePacket>

    ep->xfer_buff  += len;
 8006fb2:	6cab      	ldr	r3, [r5, #72]	; 0x48
 8006fb4:	4433      	add	r3, r6
 8006fb6:	64ab      	str	r3, [r5, #72]	; 0x48
    ep->xfer_count += len;
 8006fb8:	6d6b      	ldr	r3, [r5, #84]	; 0x54
 8006fba:	4433      	add	r3, r6
 8006fbc:	656b      	str	r3, [r5, #84]	; 0x54
  while (((USBx_INEP(epnum)->DTXFSTS & USB_OTG_DTXFSTS_INEPTFSAV) >= len32b) &&
 8006fbe:	eb07 1344 	add.w	r3, r7, r4, lsl #5
 8006fc2:	f503 6310 	add.w	r3, r3, #2304	; 0x900
 8006fc6:	699b      	ldr	r3, [r3, #24]
 8006fc8:	b29b      	uxth	r3, r3
         (ep->xfer_count < ep->xfer_len) && (ep->xfer_len != 0U))
 8006fca:	454b      	cmp	r3, r9
 8006fcc:	d312      	bcc.n	8006ff4 <PCD_WriteEmptyTxFifo+0x94>
 8006fce:	ebc4 03c4 	rsb	r3, r4, r4, lsl #3
 8006fd2:	eb08 0383 	add.w	r3, r8, r3, lsl #2
 8006fd6:	6d5a      	ldr	r2, [r3, #84]	; 0x54
 8006fd8:	6d1b      	ldr	r3, [r3, #80]	; 0x50
  while (((USBx_INEP(epnum)->DTXFSTS & USB_OTG_DTXFSTS_INEPTFSAV) >= len32b) &&
 8006fda:	429a      	cmp	r2, r3
 8006fdc:	d20a      	bcs.n	8006ff4 <PCD_WriteEmptyTxFifo+0x94>
         (ep->xfer_count < ep->xfer_len) && (ep->xfer_len != 0U))
 8006fde:	b14b      	cbz	r3, 8006ff4 <PCD_WriteEmptyTxFifo+0x94>
    len = ep->xfer_len - ep->xfer_count;
 8006fe0:	1a9b      	subs	r3, r3, r2
    if (len > ep->maxpacket)
 8006fe2:	ebc4 02c4 	rsb	r2, r4, r4, lsl #3
 8006fe6:	eb08 0282 	add.w	r2, r8, r2, lsl #2
 8006fea:	6c56      	ldr	r6, [r2, #68]	; 0x44
 8006fec:	429e      	cmp	r6, r3
 8006fee:	d3d2      	bcc.n	8006f96 <PCD_WriteEmptyTxFifo+0x36>
    len = ep->xfer_len - ep->xfer_count;
 8006ff0:	461e      	mov	r6, r3
 8006ff2:	e7d0      	b.n	8006f96 <PCD_WriteEmptyTxFifo+0x36>
  }

  if (ep->xfer_len <= ep->xfer_count)
 8006ff4:	ebc4 03c4 	rsb	r3, r4, r4, lsl #3
 8006ff8:	eb08 0883 	add.w	r8, r8, r3, lsl #2
 8006ffc:	f8d8 2050 	ldr.w	r2, [r8, #80]	; 0x50
 8007000:	f8d8 3054 	ldr.w	r3, [r8, #84]	; 0x54
 8007004:	429a      	cmp	r2, r3
 8007006:	d80e      	bhi.n	8007026 <PCD_WriteEmptyTxFifo+0xc6>
  {
    fifoemptymsk = (uint32_t)(0x1UL << (epnum & EP_ADDR_MSK));
 8007008:	f004 040f 	and.w	r4, r4, #15
 800700c:	2201      	movs	r2, #1
 800700e:	40a2      	lsls	r2, r4
    USBx_DEVICE->DIEPEMPMSK &= ~fifoemptymsk;
 8007010:	f8d7 3834 	ldr.w	r3, [r7, #2100]	; 0x834
 8007014:	ea23 0302 	bic.w	r3, r3, r2
 8007018:	f8c7 3834 	str.w	r3, [r7, #2100]	; 0x834
  }

  return HAL_OK;
 800701c:	2000      	movs	r0, #0
 800701e:	e000      	b.n	8007022 <PCD_WriteEmptyTxFifo+0xc2>
    return HAL_ERROR;
 8007020:	2001      	movs	r0, #1
}
 8007022:	e8bd 83f8 	ldmia.w	sp!, {r3, r4, r5, r6, r7, r8, r9, pc}
  return HAL_OK;
 8007026:	2000      	movs	r0, #0
 8007028:	e7fb      	b.n	8007022 <PCD_WriteEmptyTxFifo+0xc2>

0800702a <HAL_PCD_Init>:
{
 800702a:	b570      	push	{r4, r5, r6, lr}
 800702c:	b08a      	sub	sp, #40	; 0x28
  if (hpcd == NULL)
 800702e:	2800      	cmp	r0, #0
 8007030:	f000 8097 	beq.w	8007162 <HAL_PCD_Init+0x138>
 8007034:	4605      	mov	r5, r0
  USBx = hpcd->Instance;
 8007036:	6804      	ldr	r4, [r0, #0]
  if (hpcd->State == HAL_PCD_STATE_RESET)
 8007038:	f890 33bd 	ldrb.w	r3, [r0, #957]	; 0x3bd
 800703c:	b33b      	cbz	r3, 800708e <HAL_PCD_Init+0x64>
  hpcd->State = HAL_PCD_STATE_BUSY;
 800703e:	2303      	movs	r3, #3
 8007040:	f885 33bd 	strb.w	r3, [r5, #957]	; 0x3bd
  if ((USBx->CID & (0x1U << 8)) == 0U)
 8007044:	6be3      	ldr	r3, [r4, #60]	; 0x3c
 8007046:	f413 7f80 	tst.w	r3, #256	; 0x100
 800704a:	d101      	bne.n	8007050 <HAL_PCD_Init+0x26>
    hpcd->Init.dma_enable = 0U;
 800704c:	2300      	movs	r3, #0
 800704e:	612b      	str	r3, [r5, #16]
  __HAL_PCD_DISABLE(hpcd);
 8007050:	6828      	ldr	r0, [r5, #0]
 8007052:	f002 ff69 	bl	8009f28 <USB_DisableGlobalInt>
  if (USB_CoreInit(hpcd->Instance, hpcd->Init) != HAL_OK)
 8007056:	462c      	mov	r4, r5
 8007058:	f854 6b10 	ldr.w	r6, [r4], #16
 800705c:	46ec      	mov	ip, sp
 800705e:	cc0f      	ldmia	r4!, {r0, r1, r2, r3}
 8007060:	e8ac 000f 	stmia.w	ip!, {r0, r1, r2, r3}
 8007064:	cc0f      	ldmia	r4!, {r0, r1, r2, r3}
 8007066:	e8ac 000f 	stmia.w	ip!, {r0, r1, r2, r3}
 800706a:	e894 0003 	ldmia.w	r4, {r0, r1}
 800706e:	e88c 0003 	stmia.w	ip, {r0, r1}
 8007072:	1d2b      	adds	r3, r5, #4
 8007074:	cb0e      	ldmia	r3, {r1, r2, r3}
 8007076:	4630      	mov	r0, r6
 8007078:	f002 fec2 	bl	8009e00 <USB_CoreInit>
 800707c:	4604      	mov	r4, r0
 800707e:	b158      	cbz	r0, 8007098 <HAL_PCD_Init+0x6e>
    hpcd->State = HAL_PCD_STATE_ERROR;
 8007080:	2302      	movs	r3, #2
 8007082:	f885 33bd 	strb.w	r3, [r5, #957]	; 0x3bd
    return HAL_ERROR;
 8007086:	2401      	movs	r4, #1
}
 8007088:	4620      	mov	r0, r4
 800708a:	b00a      	add	sp, #40	; 0x28
 800708c:	bd70      	pop	{r4, r5, r6, pc}
    hpcd->Lock = HAL_UNLOCKED;
 800708e:	f880 33bc 	strb.w	r3, [r0, #956]	; 0x3bc
    HAL_PCD_MspInit(hpcd);
 8007092:	f7ff f86f 	bl	8006174 <HAL_PCD_MspInit>
 8007096:	e7d2      	b.n	800703e <HAL_PCD_Init+0x14>
  (void)USB_SetCurrentMode(hpcd->Instance, USB_DEVICE_MODE);
 8007098:	2100      	movs	r1, #0
 800709a:	6828      	ldr	r0, [r5, #0]
 800709c:	f002 ff4a 	bl	8009f34 <USB_SetCurrentMode>
  for (i = 0U; i < hpcd->Init.dev_endpoints; i++)
 80070a0:	4623      	mov	r3, r4
 80070a2:	e016      	b.n	80070d2 <HAL_PCD_Init+0xa8>
    hpcd->IN_ep[i].is_in = 1U;
 80070a4:	ebc3 02c3 	rsb	r2, r3, r3, lsl #3
 80070a8:	eb05 0282 	add.w	r2, r5, r2, lsl #2
 80070ac:	2101      	movs	r1, #1
 80070ae:	f882 103d 	strb.w	r1, [r2, #61]	; 0x3d
    hpcd->IN_ep[i].num = i;
 80070b2:	f882 303c 	strb.w	r3, [r2, #60]	; 0x3c
    hpcd->IN_ep[i].tx_fifo_num = i;
 80070b6:	f8a2 3042 	strh.w	r3, [r2, #66]	; 0x42
    hpcd->IN_ep[i].type = EP_TYPE_CTRL;
 80070ba:	2100      	movs	r1, #0
 80070bc:	f882 103f 	strb.w	r1, [r2, #63]	; 0x3f
    hpcd->IN_ep[i].maxpacket = 0U;
 80070c0:	6451      	str	r1, [r2, #68]	; 0x44
    hpcd->IN_ep[i].xfer_buff = 0U;
 80070c2:	6491      	str	r1, [r2, #72]	; 0x48
    hpcd->IN_ep[i].xfer_len = 0U;
 80070c4:	ebc3 02c3 	rsb	r2, r3, r3, lsl #3
 80070c8:	eb05 0282 	add.w	r2, r5, r2, lsl #2
 80070cc:	6511      	str	r1, [r2, #80]	; 0x50
  for (i = 0U; i < hpcd->Init.dev_endpoints; i++)
 80070ce:	3301      	adds	r3, #1
 80070d0:	b2db      	uxtb	r3, r3
 80070d2:	6869      	ldr	r1, [r5, #4]
 80070d4:	428b      	cmp	r3, r1
 80070d6:	d3e5      	bcc.n	80070a4 <HAL_PCD_Init+0x7a>
 80070d8:	e016      	b.n	8007108 <HAL_PCD_Init+0xde>
    hpcd->OUT_ep[i].is_in = 0U;
 80070da:	ebc4 03c4 	rsb	r3, r4, r4, lsl #3
 80070de:	eb05 0383 	add.w	r3, r5, r3, lsl #2
 80070e2:	2200      	movs	r2, #0
 80070e4:	f883 21fd 	strb.w	r2, [r3, #509]	; 0x1fd
    hpcd->OUT_ep[i].num = i;
 80070e8:	f883 41fc 	strb.w	r4, [r3, #508]	; 0x1fc
    hpcd->OUT_ep[i].type = EP_TYPE_CTRL;
 80070ec:	f883 21ff 	strb.w	r2, [r3, #511]	; 0x1ff
    hpcd->OUT_ep[i].maxpacket = 0U;
 80070f0:	f8c3 2204 	str.w	r2, [r3, #516]	; 0x204
    hpcd->OUT_ep[i].xfer_buff = 0U;
 80070f4:	f8c3 2208 	str.w	r2, [r3, #520]	; 0x208
    hpcd->OUT_ep[i].xfer_len = 0U;
 80070f8:	ebc4 03c4 	rsb	r3, r4, r4, lsl #3
 80070fc:	eb05 0383 	add.w	r3, r5, r3, lsl #2
 8007100:	f8c3 2210 	str.w	r2, [r3, #528]	; 0x210
  for (i = 0U; i < hpcd->Init.dev_endpoints; i++)
 8007104:	3401      	adds	r4, #1
 8007106:	b2e4      	uxtb	r4, r4
 8007108:	42a1      	cmp	r1, r4
 800710a:	d8e6      	bhi.n	80070da <HAL_PCD_Init+0xb0>
  if (USB_DevInit(hpcd->Instance, hpcd->Init) != HAL_OK)
 800710c:	462c      	mov	r4, r5
 800710e:	f854 6b10 	ldr.w	r6, [r4], #16
 8007112:	46ec      	mov	ip, sp
 8007114:	cc0f      	ldmia	r4!, {r0, r1, r2, r3}
 8007116:	e8ac 000f 	stmia.w	ip!, {r0, r1, r2, r3}
 800711a:	cc0f      	ldmia	r4!, {r0, r1, r2, r3}
 800711c:	e8ac 000f 	stmia.w	ip!, {r0, r1, r2, r3}
 8007120:	e894 0003 	ldmia.w	r4, {r0, r1}
 8007124:	e88c 0003 	stmia.w	ip, {r0, r1}
 8007128:	1d2b      	adds	r3, r5, #4
 800712a:	cb0e      	ldmia	r3, {r1, r2, r3}
 800712c:	4630      	mov	r0, r6
 800712e:	f002 ff47 	bl	8009fc0 <USB_DevInit>
 8007132:	4604      	mov	r4, r0
 8007134:	b960      	cbnz	r0, 8007150 <HAL_PCD_Init+0x126>
  hpcd->USB_Address = 0U;
 8007136:	2300      	movs	r3, #0
 8007138:	f885 3038 	strb.w	r3, [r5, #56]	; 0x38
  hpcd->State = HAL_PCD_STATE_READY;
 800713c:	2301      	movs	r3, #1
 800713e:	f885 33bd 	strb.w	r3, [r5, #957]	; 0x3bd
  if (hpcd->Init.lpm_enable == 1U)
 8007142:	6a6b      	ldr	r3, [r5, #36]	; 0x24
 8007144:	2b01      	cmp	r3, #1
 8007146:	d008      	beq.n	800715a <HAL_PCD_Init+0x130>
  (void)USB_DevDisconnect(hpcd->Instance);
 8007148:	6828      	ldr	r0, [r5, #0]
 800714a:	f003 faa1 	bl	800a690 <USB_DevDisconnect>
  return HAL_OK;
 800714e:	e79b      	b.n	8007088 <HAL_PCD_Init+0x5e>
    hpcd->State = HAL_PCD_STATE_ERROR;
 8007150:	2302      	movs	r3, #2
 8007152:	f885 33bd 	strb.w	r3, [r5, #957]	; 0x3bd
    return HAL_ERROR;
 8007156:	2401      	movs	r4, #1
 8007158:	e796      	b.n	8007088 <HAL_PCD_Init+0x5e>
    (void)HAL_PCDEx_ActivateLPM(hpcd);
 800715a:	4628      	mov	r0, r5
 800715c:	f000 fc27 	bl	80079ae <HAL_PCDEx_ActivateLPM>
 8007160:	e7f2      	b.n	8007148 <HAL_PCD_Init+0x11e>
    return HAL_ERROR;
 8007162:	2401      	movs	r4, #1
 8007164:	e790      	b.n	8007088 <HAL_PCD_Init+0x5e>

08007166 <HAL_PCD_Start>:
  USB_OTG_GlobalTypeDef *USBx = hpcd->Instance;
 8007166:	6802      	ldr	r2, [r0, #0]
  __HAL_LOCK(hpcd);
 8007168:	f890 33bc 	ldrb.w	r3, [r0, #956]	; 0x3bc
 800716c:	2b01      	cmp	r3, #1
 800716e:	d016      	beq.n	800719e <HAL_PCD_Start+0x38>
{
 8007170:	b510      	push	{r4, lr}
 8007172:	4604      	mov	r4, r0
  __HAL_LOCK(hpcd);
 8007174:	2301      	movs	r3, #1
 8007176:	f880 33bc 	strb.w	r3, [r0, #956]	; 0x3bc
  if (hpcd->Init.battery_charging_enable == 1U)
 800717a:	6a83      	ldr	r3, [r0, #40]	; 0x28
 800717c:	2b01      	cmp	r3, #1
 800717e:	d009      	beq.n	8007194 <HAL_PCD_Start+0x2e>
  __HAL_PCD_ENABLE(hpcd);
 8007180:	6820      	ldr	r0, [r4, #0]
 8007182:	f002 fecb 	bl	8009f1c <USB_EnableGlobalInt>
  (void)USB_DevConnect(hpcd->Instance);
 8007186:	6820      	ldr	r0, [r4, #0]
 8007188:	f003 fa74 	bl	800a674 <USB_DevConnect>
  __HAL_UNLOCK(hpcd);
 800718c:	2000      	movs	r0, #0
 800718e:	f884 03bc 	strb.w	r0, [r4, #956]	; 0x3bc
}
 8007192:	bd10      	pop	{r4, pc}
    USBx->GCCFG |= USB_OTG_GCCFG_PWRDWN;
 8007194:	6b93      	ldr	r3, [r2, #56]	; 0x38
 8007196:	f443 3380 	orr.w	r3, r3, #65536	; 0x10000
 800719a:	6393      	str	r3, [r2, #56]	; 0x38
 800719c:	e7f0      	b.n	8007180 <HAL_PCD_Start+0x1a>
  __HAL_LOCK(hpcd);
 800719e:	2002      	movs	r0, #2
}
 80071a0:	4770      	bx	lr
	...

080071a4 <PCD_EP_OutXfrComplete_int>:
  * @param  hpcd PCD handle
  * @param  epnum endpoint number
  * @retval HAL status
  */
static HAL_StatusTypeDef PCD_EP_OutXfrComplete_int(PCD_HandleTypeDef *hpcd, uint32_t epnum)
{
 80071a4:	b538      	push	{r3, r4, r5, lr}
  USB_OTG_GlobalTypeDef *USBx = hpcd->Instance;
 80071a6:	6803      	ldr	r3, [r0, #0]
  uint32_t USBx_BASE = (uint32_t)USBx;
  uint32_t gSNPSiD = *(__IO uint32_t *)(&USBx->CID + 0x1U);
 80071a8:	6c1c      	ldr	r4, [r3, #64]	; 0x40
  uint32_t DoepintReg = USBx_OUTEP(epnum)->DOEPINT;
 80071aa:	eb03 1341 	add.w	r3, r3, r1, lsl #5
 80071ae:	f503 6330 	add.w	r3, r3, #2816	; 0xb00
 80071b2:	689d      	ldr	r5, [r3, #8]

  if (gSNPSiD == USB_OTG_CORE_ID_310A)
 80071b4:	4a0b      	ldr	r2, [pc, #44]	; (80071e4 <PCD_EP_OutXfrComplete_int+0x40>)
 80071b6:	4294      	cmp	r4, r2
 80071b8:	d10f      	bne.n	80071da <PCD_EP_OutXfrComplete_int+0x36>
  {
    /* StupPktRcvd = 1 this is a setup packet */
    if ((DoepintReg & USB_OTG_DOEPINT_STPKTRX) == USB_OTG_DOEPINT_STPKTRX)
 80071ba:	f415 4f00 	tst.w	r5, #32768	; 0x8000
 80071be:	d003      	beq.n	80071c8 <PCD_EP_OutXfrComplete_int+0x24>
    {
      CLEAR_OUT_EP_INTR(epnum, USB_OTG_DOEPINT_STPKTRX);
 80071c0:	f44f 4200 	mov.w	r2, #32768	; 0x8000
 80071c4:	609a      	str	r2, [r3, #8]
 80071c6:	e00b      	b.n	80071e0 <PCD_EP_OutXfrComplete_int+0x3c>
    }
    else
    {
      if ((DoepintReg & USB_OTG_DOEPINT_OTEPSPR) == USB_OTG_DOEPINT_OTEPSPR)
 80071c8:	f015 0f20 	tst.w	r5, #32
 80071cc:	d001      	beq.n	80071d2 <PCD_EP_OutXfrComplete_int+0x2e>
      {
        CLEAR_OUT_EP_INTR(epnum, USB_OTG_DOEPINT_OTEPSPR);
 80071ce:	2220      	movs	r2, #32
 80071d0:	609a      	str	r2, [r3, #8]
      }

#if (USE_HAL_PCD_REGISTER_CALLBACKS == 1U)
      hpcd->DataOutStageCallback(hpcd, (uint8_t)epnum);
#else
      HAL_PCD_DataOutStageCallback(hpcd, (uint8_t)epnum);
 80071d2:	b2c9      	uxtb	r1, r1
 80071d4:	f7ff f980 	bl	80064d8 <HAL_PCD_DataOutStageCallback>
 80071d8:	e002      	b.n	80071e0 <PCD_EP_OutXfrComplete_int+0x3c>
  else
  {
#if (USE_HAL_PCD_REGISTER_CALLBACKS == 1U)
    hpcd->DataOutStageCallback(hpcd, (uint8_t)epnum);
#else
    HAL_PCD_DataOutStageCallback(hpcd, (uint8_t)epnum);
 80071da:	b2c9      	uxtb	r1, r1
 80071dc:	f7ff f97c 	bl	80064d8 <HAL_PCD_DataOutStageCallback>
#endif /* USE_HAL_PCD_REGISTER_CALLBACKS */
  }

  return HAL_OK;
}
 80071e0:	2000      	movs	r0, #0
 80071e2:	bd38      	pop	{r3, r4, r5, pc}
 80071e4:	4f54310a 	.word	0x4f54310a

080071e8 <PCD_EP_OutSetupPacket_int>:
  * @param  hpcd PCD handle
  * @param  epnum endpoint number
  * @retval HAL status
  */
static HAL_StatusTypeDef PCD_EP_OutSetupPacket_int(PCD_HandleTypeDef *hpcd, uint32_t epnum)
{
 80071e8:	b510      	push	{r4, lr}
  USB_OTG_GlobalTypeDef *USBx = hpcd->Instance;
 80071ea:	6803      	ldr	r3, [r0, #0]
  uint32_t USBx_BASE = (uint32_t)USBx;
  uint32_t gSNPSiD = *(__IO uint32_t *)(&USBx->CID + 0x1U);
 80071ec:	6c1c      	ldr	r4, [r3, #64]	; 0x40
  uint32_t DoepintReg = USBx_OUTEP(epnum)->DOEPINT;
 80071ee:	eb03 1341 	add.w	r3, r3, r1, lsl #5
 80071f2:	f8d3 1b08 	ldr.w	r1, [r3, #2824]	; 0xb08

  if ((gSNPSiD > USB_OTG_CORE_ID_300A) &&
 80071f6:	4a07      	ldr	r2, [pc, #28]	; (8007214 <PCD_EP_OutSetupPacket_int+0x2c>)
 80071f8:	4294      	cmp	r4, r2
 80071fa:	d907      	bls.n	800720c <PCD_EP_OutSetupPacket_int+0x24>
 80071fc:	f503 6330 	add.w	r3, r3, #2816	; 0xb00
 8007200:	f411 4f00 	tst.w	r1, #32768	; 0x8000
 8007204:	d002      	beq.n	800720c <PCD_EP_OutSetupPacket_int+0x24>
      ((DoepintReg & USB_OTG_DOEPINT_STPKTRX) == USB_OTG_DOEPINT_STPKTRX))
  {
    CLEAR_OUT_EP_INTR(epnum, USB_OTG_DOEPINT_STPKTRX);
 8007206:	f44f 4200 	mov.w	r2, #32768	; 0x8000
 800720a:	609a      	str	r2, [r3, #8]

  /* Inform the upper layer that a setup packet is available */
#if (USE_HAL_PCD_REGISTER_CALLBACKS == 1U)
  hpcd->SetupStageCallback(hpcd);
#else
  HAL_PCD_SetupStageCallback(hpcd);
 800720c:	f7ff f95c 	bl	80064c8 <HAL_PCD_SetupStageCallback>
#endif /* USE_HAL_PCD_REGISTER_CALLBACKS */

  return HAL_OK;
}
 8007210:	2000      	movs	r0, #0
 8007212:	bd10      	pop	{r4, pc}
 8007214:	4f54300a 	.word	0x4f54300a

08007218 <HAL_PCD_IRQHandler>:
{
 8007218:	e92d 4ff8 	stmdb	sp!, {r3, r4, r5, r6, r7, r8, r9, sl, fp, lr}
 800721c:	4604      	mov	r4, r0
  USB_OTG_GlobalTypeDef *USBx = hpcd->Instance;
 800721e:	6805      	ldr	r5, [r0, #0]
  if (USB_GetMode(hpcd->Instance) == USB_OTG_MODE_DEVICE)
 8007220:	4628      	mov	r0, r5
 8007222:	f003 fa72 	bl	800a70a <USB_GetMode>
 8007226:	b108      	cbz	r0, 800722c <HAL_PCD_IRQHandler+0x14>
}
 8007228:	e8bd 8ff8 	ldmia.w	sp!, {r3, r4, r5, r6, r7, r8, r9, sl, fp, pc}
 800722c:	4606      	mov	r6, r0
    if (__HAL_PCD_IS_INVALID_INTERRUPT(hpcd))
 800722e:	6820      	ldr	r0, [r4, #0]
 8007230:	f003 fa3c 	bl	800a6ac <USB_ReadInterrupts>
 8007234:	2800      	cmp	r0, #0
 8007236:	d0f7      	beq.n	8007228 <HAL_PCD_IRQHandler+0x10>
    if (__HAL_PCD_GET_FLAG(hpcd, USB_OTG_GINTSTS_MMIS))
 8007238:	6820      	ldr	r0, [r4, #0]
 800723a:	f003 fa37 	bl	800a6ac <USB_ReadInterrupts>
 800723e:	f010 0f02 	tst.w	r0, #2
 8007242:	d004      	beq.n	800724e <HAL_PCD_IRQHandler+0x36>
      __HAL_PCD_CLEAR_FLAG(hpcd, USB_OTG_GINTSTS_MMIS);
 8007244:	6822      	ldr	r2, [r4, #0]
 8007246:	6953      	ldr	r3, [r2, #20]
 8007248:	f003 0302 	and.w	r3, r3, #2
 800724c:	6153      	str	r3, [r2, #20]
    if (__HAL_PCD_GET_FLAG(hpcd, USB_OTG_GINTSTS_RXFLVL))
 800724e:	6820      	ldr	r0, [r4, #0]
 8007250:	f003 fa2c 	bl	800a6ac <USB_ReadInterrupts>
 8007254:	f010 0f10 	tst.w	r0, #16
 8007258:	d014      	beq.n	8007284 <HAL_PCD_IRQHandler+0x6c>
      USB_MASK_INTERRUPT(hpcd->Instance, USB_OTG_GINTSTS_RXFLVL);
 800725a:	6822      	ldr	r2, [r4, #0]
 800725c:	6993      	ldr	r3, [r2, #24]
 800725e:	f023 0310 	bic.w	r3, r3, #16
 8007262:	6193      	str	r3, [r2, #24]
      temp = USBx->GRXSTSP;
 8007264:	6a2f      	ldr	r7, [r5, #32]
      ep = &hpcd->OUT_ep[temp & USB_OTG_GRXSTSP_EPNUM];
 8007266:	f007 080f 	and.w	r8, r7, #15
      if (((temp & USB_OTG_GRXSTSP_PKTSTS) >> 17) ==  STS_DATA_UPDT)
 800726a:	f3c7 4343 	ubfx	r3, r7, #17, #4
 800726e:	2b02      	cmp	r3, #2
 8007270:	f000 8085 	beq.w	800737e <HAL_PCD_IRQHandler+0x166>
      else if (((temp & USB_OTG_GRXSTSP_PKTSTS) >> 17) ==  STS_SETUP_UPDT)
 8007274:	2b06      	cmp	r3, #6
 8007276:	f000 80a1 	beq.w	80073bc <HAL_PCD_IRQHandler+0x1a4>
      USB_UNMASK_INTERRUPT(hpcd->Instance, USB_OTG_GINTSTS_RXFLVL);
 800727a:	6822      	ldr	r2, [r4, #0]
 800727c:	6993      	ldr	r3, [r2, #24]
 800727e:	f043 0310 	orr.w	r3, r3, #16
 8007282:	6193      	str	r3, [r2, #24]
    if (__HAL_PCD_GET_FLAG(hpcd, USB_OTG_GINTSTS_OEPINT))
 8007284:	6820      	ldr	r0, [r4, #0]
 8007286:	f003 fa11 	bl	800a6ac <USB_ReadInterrupts>
 800728a:	f410 2f00 	tst.w	r0, #524288	; 0x80000
 800728e:	f040 80a7 	bne.w	80073e0 <HAL_PCD_IRQHandler+0x1c8>
    if (__HAL_PCD_GET_FLAG(hpcd, USB_OTG_GINTSTS_IEPINT))
 8007292:	6820      	ldr	r0, [r4, #0]
 8007294:	f003 fa0a 	bl	800a6ac <USB_ReadInterrupts>
 8007298:	f410 2f80 	tst.w	r0, #262144	; 0x40000
 800729c:	f040 80e9 	bne.w	8007472 <HAL_PCD_IRQHandler+0x25a>
    if (__HAL_PCD_GET_FLAG(hpcd, USB_OTG_GINTSTS_WKUINT))
 80072a0:	6820      	ldr	r0, [r4, #0]
 80072a2:	f003 fa03 	bl	800a6ac <USB_ReadInterrupts>
 80072a6:	2800      	cmp	r0, #0
 80072a8:	f2c0 8139 	blt.w	800751e <HAL_PCD_IRQHandler+0x306>
    if (__HAL_PCD_GET_FLAG(hpcd, USB_OTG_GINTSTS_USBSUSP))
 80072ac:	6820      	ldr	r0, [r4, #0]
 80072ae:	f003 f9fd 	bl	800a6ac <USB_ReadInterrupts>
 80072b2:	f410 6f00 	tst.w	r0, #2048	; 0x800
 80072b6:	d00a      	beq.n	80072ce <HAL_PCD_IRQHandler+0xb6>
      if ((USBx_DEVICE->DSTS & USB_OTG_DSTS_SUSPSTS) == USB_OTG_DSTS_SUSPSTS)
 80072b8:	f8d5 3808 	ldr.w	r3, [r5, #2056]	; 0x808
 80072bc:	f013 0f01 	tst.w	r3, #1
 80072c0:	f040 8147 	bne.w	8007552 <HAL_PCD_IRQHandler+0x33a>
      __HAL_PCD_CLEAR_FLAG(hpcd, USB_OTG_GINTSTS_USBSUSP);
 80072c4:	6822      	ldr	r2, [r4, #0]
 80072c6:	6953      	ldr	r3, [r2, #20]
 80072c8:	f403 6300 	and.w	r3, r3, #2048	; 0x800
 80072cc:	6153      	str	r3, [r2, #20]
    if (__HAL_PCD_GET_FLAG(hpcd, USB_OTG_GINTSTS_LPMINT))
 80072ce:	6820      	ldr	r0, [r4, #0]
 80072d0:	f003 f9ec 	bl	800a6ac <USB_ReadInterrupts>
 80072d4:	f010 6f00 	tst.w	r0, #134217728	; 0x8000000
 80072d8:	d015      	beq.n	8007306 <HAL_PCD_IRQHandler+0xee>
      __HAL_PCD_CLEAR_FLAG(hpcd, USB_OTG_GINTSTS_LPMINT);
 80072da:	6822      	ldr	r2, [r4, #0]
 80072dc:	6953      	ldr	r3, [r2, #20]
 80072de:	f003 6300 	and.w	r3, r3, #134217728	; 0x8000000
 80072e2:	6153      	str	r3, [r2, #20]
      if (hpcd->LPM_State == LPM_L0)
 80072e4:	f894 33f4 	ldrb.w	r3, [r4, #1012]	; 0x3f4
 80072e8:	2b00      	cmp	r3, #0
 80072ea:	f040 8136 	bne.w	800755a <HAL_PCD_IRQHandler+0x342>
        hpcd->LPM_State = LPM_L1;
 80072ee:	2101      	movs	r1, #1
 80072f0:	f884 13f4 	strb.w	r1, [r4, #1012]	; 0x3f4
        hpcd->BESL = (hpcd->Instance->GLPMCFG & USB_OTG_GLPMCFG_BESL) >> 2U;
 80072f4:	6823      	ldr	r3, [r4, #0]
 80072f6:	6d5b      	ldr	r3, [r3, #84]	; 0x54
 80072f8:	f3c3 0383 	ubfx	r3, r3, #2, #4
 80072fc:	f8c4 33f8 	str.w	r3, [r4, #1016]	; 0x3f8
        HAL_PCDEx_LPM_Callback(hpcd, PCD_LPM_L1_ACTIVE);
 8007300:	4620      	mov	r0, r4
 8007302:	f000 fb67 	bl	80079d4 <HAL_PCDEx_LPM_Callback>
    if (__HAL_PCD_GET_FLAG(hpcd, USB_OTG_GINTSTS_USBRST))
 8007306:	6820      	ldr	r0, [r4, #0]
 8007308:	f003 f9d0 	bl	800a6ac <USB_ReadInterrupts>
 800730c:	f410 5f80 	tst.w	r0, #4096	; 0x1000
 8007310:	f040 8127 	bne.w	8007562 <HAL_PCD_IRQHandler+0x34a>
    if (__HAL_PCD_GET_FLAG(hpcd, USB_OTG_GINTSTS_ENUMDNE))
 8007314:	6820      	ldr	r0, [r4, #0]
 8007316:	f003 f9c9 	bl	800a6ac <USB_ReadInterrupts>
 800731a:	f410 5f00 	tst.w	r0, #8192	; 0x2000
 800731e:	f040 817b 	bne.w	8007618 <HAL_PCD_IRQHandler+0x400>
    if (__HAL_PCD_GET_FLAG(hpcd, USB_OTG_GINTSTS_SOF))
 8007322:	6820      	ldr	r0, [r4, #0]
 8007324:	f003 f9c2 	bl	800a6ac <USB_ReadInterrupts>
 8007328:	f010 0f08 	tst.w	r0, #8
 800732c:	f040 818c 	bne.w	8007648 <HAL_PCD_IRQHandler+0x430>
    if (__HAL_PCD_GET_FLAG(hpcd, USB_OTG_GINTSTS_IISOIXFR))
 8007330:	6820      	ldr	r0, [r4, #0]
 8007332:	f003 f9bb 	bl	800a6ac <USB_ReadInterrupts>
 8007336:	f410 1f80 	tst.w	r0, #1048576	; 0x100000
 800733a:	f040 818e 	bne.w	800765a <HAL_PCD_IRQHandler+0x442>
    if (__HAL_PCD_GET_FLAG(hpcd, USB_OTG_GINTSTS_PXFR_INCOMPISOOUT))
 800733e:	6820      	ldr	r0, [r4, #0]
 8007340:	f003 f9b4 	bl	800a6ac <USB_ReadInterrupts>
 8007344:	f410 1f00 	tst.w	r0, #2097152	; 0x200000
 8007348:	f040 8191 	bne.w	800766e <HAL_PCD_IRQHandler+0x456>
    if (__HAL_PCD_GET_FLAG(hpcd, USB_OTG_GINTSTS_SRQINT))
 800734c:	6820      	ldr	r0, [r4, #0]
 800734e:	f003 f9ad 	bl	800a6ac <USB_ReadInterrupts>
 8007352:	f010 4f80 	tst.w	r0, #1073741824	; 0x40000000
 8007356:	f040 8194 	bne.w	8007682 <HAL_PCD_IRQHandler+0x46a>
    if (__HAL_PCD_GET_FLAG(hpcd, USB_OTG_GINTSTS_OTGINT))
 800735a:	6820      	ldr	r0, [r4, #0]
 800735c:	f003 f9a6 	bl	800a6ac <USB_ReadInterrupts>
 8007360:	f010 0f04 	tst.w	r0, #4
 8007364:	f43f af60 	beq.w	8007228 <HAL_PCD_IRQHandler+0x10>
      temp = hpcd->Instance->GOTGINT;
 8007368:	6823      	ldr	r3, [r4, #0]
 800736a:	685d      	ldr	r5, [r3, #4]
      if ((temp & USB_OTG_GOTGINT_SEDET) == USB_OTG_GOTGINT_SEDET)
 800736c:	f015 0f04 	tst.w	r5, #4
 8007370:	f040 8190 	bne.w	8007694 <HAL_PCD_IRQHandler+0x47c>
      hpcd->Instance->GOTGINT |= temp;
 8007374:	6822      	ldr	r2, [r4, #0]
 8007376:	6853      	ldr	r3, [r2, #4]
 8007378:	432b      	orrs	r3, r5
 800737a:	6053      	str	r3, [r2, #4]
 800737c:	e754      	b.n	8007228 <HAL_PCD_IRQHandler+0x10>
        if ((temp & USB_OTG_GRXSTSP_BCNT) != 0U)
 800737e:	f647 73f0 	movw	r3, #32752	; 0x7ff0
 8007382:	421f      	tst	r7, r3
 8007384:	f43f af79 	beq.w	800727a <HAL_PCD_IRQHandler+0x62>
                               (uint16_t)((temp & USB_OTG_GRXSTSP_BCNT) >> 4));
 8007388:	ea4f 1b17 	mov.w	fp, r7, lsr #4
          (void)USB_ReadPacket(USBx, ep->xfer_buff,
 800738c:	ebc8 09c8 	rsb	r9, r8, r8, lsl #3
 8007390:	eb04 0989 	add.w	r9, r4, r9, lsl #2
 8007394:	f3c7 120a 	ubfx	r2, r7, #4, #11
 8007398:	f8d9 1208 	ldr.w	r1, [r9, #520]	; 0x208
 800739c:	4628      	mov	r0, r5
 800739e:	f003 f8ef 	bl	800a580 <USB_ReadPacket>
          ep->xfer_buff += (temp & USB_OTG_GRXSTSP_BCNT) >> 4;
 80073a2:	f3cb 020a 	ubfx	r2, fp, #0, #11
 80073a6:	f8d9 3208 	ldr.w	r3, [r9, #520]	; 0x208
 80073aa:	4413      	add	r3, r2
 80073ac:	f8c9 3208 	str.w	r3, [r9, #520]	; 0x208
          ep->xfer_count += (temp & USB_OTG_GRXSTSP_BCNT) >> 4;
 80073b0:	f8d9 3214 	ldr.w	r3, [r9, #532]	; 0x214
 80073b4:	4413      	add	r3, r2
 80073b6:	f8c9 3214 	str.w	r3, [r9, #532]	; 0x214
 80073ba:	e75e      	b.n	800727a <HAL_PCD_IRQHandler+0x62>
        (void)USB_ReadPacket(USBx, (uint8_t *)hpcd->Setup, 8U);
 80073bc:	2208      	movs	r2, #8
 80073be:	f504 7171 	add.w	r1, r4, #964	; 0x3c4
 80073c2:	4628      	mov	r0, r5
 80073c4:	f003 f8dc 	bl	800a580 <USB_ReadPacket>
        ep->xfer_count += (temp & USB_OTG_GRXSTSP_BCNT) >> 4;
 80073c8:	f3c7 170a 	ubfx	r7, r7, #4, #11
 80073cc:	ebc8 02c8 	rsb	r2, r8, r8, lsl #3
 80073d0:	eb04 0282 	add.w	r2, r4, r2, lsl #2
 80073d4:	f8d2 3214 	ldr.w	r3, [r2, #532]	; 0x214
 80073d8:	443b      	add	r3, r7
 80073da:	f8c2 3214 	str.w	r3, [r2, #532]	; 0x214
 80073de:	e74c      	b.n	800727a <HAL_PCD_IRQHandler+0x62>
      ep_intr = USB_ReadDevAllOutEpInterrupt(hpcd->Instance);
 80073e0:	6820      	ldr	r0, [r4, #0]
 80073e2:	f003 f967 	bl	800a6b4 <USB_ReadDevAllOutEpInterrupt>
 80073e6:	4607      	mov	r7, r0
      epnum = 0U;
 80073e8:	46b0      	mov	r8, r6
      while (ep_intr != 0U)
 80073ea:	e016      	b.n	800741a <HAL_PCD_IRQHandler+0x202>
            CLEAR_OUT_EP_INTR(epnum, USB_OTG_DOEPINT_XFRC);
 80073ec:	eb05 1348 	add.w	r3, r5, r8, lsl #5
 80073f0:	2201      	movs	r2, #1
 80073f2:	f8c3 2b08 	str.w	r2, [r3, #2824]	; 0xb08
            (void)PCD_EP_OutXfrComplete_int(hpcd, epnum);
 80073f6:	4641      	mov	r1, r8
 80073f8:	4620      	mov	r0, r4
 80073fa:	f7ff fed3 	bl	80071a4 <PCD_EP_OutXfrComplete_int>
 80073fe:	e01b      	b.n	8007438 <HAL_PCD_IRQHandler+0x220>
            CLEAR_OUT_EP_INTR(epnum, USB_OTG_DOEPINT_STUP);
 8007400:	eb05 1348 	add.w	r3, r5, r8, lsl #5
 8007404:	2208      	movs	r2, #8
 8007406:	f8c3 2b08 	str.w	r2, [r3, #2824]	; 0xb08
            (void)PCD_EP_OutSetupPacket_int(hpcd, epnum);
 800740a:	4641      	mov	r1, r8
 800740c:	4620      	mov	r0, r4
 800740e:	f7ff feeb 	bl	80071e8 <PCD_EP_OutSetupPacket_int>
 8007412:	e014      	b.n	800743e <HAL_PCD_IRQHandler+0x226>
        epnum++;
 8007414:	f108 0801 	add.w	r8, r8, #1
        ep_intr >>= 1U;
 8007418:	087f      	lsrs	r7, r7, #1
      while (ep_intr != 0U)
 800741a:	2f00      	cmp	r7, #0
 800741c:	f43f af39 	beq.w	8007292 <HAL_PCD_IRQHandler+0x7a>
        if ((ep_intr & 0x1U) != 0U)
 8007420:	f017 0f01 	tst.w	r7, #1
 8007424:	d0f6      	beq.n	8007414 <HAL_PCD_IRQHandler+0x1fc>
          epint = USB_ReadDevOutEPInterrupt(hpcd->Instance, (uint8_t)epnum);
 8007426:	fa5f f188 	uxtb.w	r1, r8
 800742a:	6820      	ldr	r0, [r4, #0]
 800742c:	f003 f952 	bl	800a6d4 <USB_ReadDevOutEPInterrupt>
 8007430:	4681      	mov	r9, r0
          if ((epint & USB_OTG_DOEPINT_XFRC) == USB_OTG_DOEPINT_XFRC)
 8007432:	f010 0f01 	tst.w	r0, #1
 8007436:	d1d9      	bne.n	80073ec <HAL_PCD_IRQHandler+0x1d4>
          if ((epint & USB_OTG_DOEPINT_STUP) == USB_OTG_DOEPINT_STUP)
 8007438:	f019 0f08 	tst.w	r9, #8
 800743c:	d1e0      	bne.n	8007400 <HAL_PCD_IRQHandler+0x1e8>
          if ((epint & USB_OTG_DOEPINT_OTEPDIS) == USB_OTG_DOEPINT_OTEPDIS)
 800743e:	f019 0f10 	tst.w	r9, #16
 8007442:	d004      	beq.n	800744e <HAL_PCD_IRQHandler+0x236>
            CLEAR_OUT_EP_INTR(epnum, USB_OTG_DOEPINT_OTEPDIS);
 8007444:	eb05 1348 	add.w	r3, r5, r8, lsl #5
 8007448:	2210      	movs	r2, #16
 800744a:	f8c3 2b08 	str.w	r2, [r3, #2824]	; 0xb08
          if ((epint & USB_OTG_DOEPINT_OTEPSPR) == USB_OTG_DOEPINT_OTEPSPR)
 800744e:	f019 0f20 	tst.w	r9, #32
 8007452:	d004      	beq.n	800745e <HAL_PCD_IRQHandler+0x246>
            CLEAR_OUT_EP_INTR(epnum, USB_OTG_DOEPINT_OTEPSPR);
 8007454:	eb05 1348 	add.w	r3, r5, r8, lsl #5
 8007458:	2220      	movs	r2, #32
 800745a:	f8c3 2b08 	str.w	r2, [r3, #2824]	; 0xb08
          if ((epint & USB_OTG_DOEPINT_NAK) == USB_OTG_DOEPINT_NAK)
 800745e:	f419 5f00 	tst.w	r9, #8192	; 0x2000
 8007462:	d0d7      	beq.n	8007414 <HAL_PCD_IRQHandler+0x1fc>
            CLEAR_OUT_EP_INTR(epnum, USB_OTG_DOEPINT_NAK);
 8007464:	eb05 1348 	add.w	r3, r5, r8, lsl #5
 8007468:	f44f 5200 	mov.w	r2, #8192	; 0x2000
 800746c:	f8c3 2b08 	str.w	r2, [r3, #2824]	; 0xb08
 8007470:	e7d0      	b.n	8007414 <HAL_PCD_IRQHandler+0x1fc>
      ep_intr = USB_ReadDevAllInEpInterrupt(hpcd->Instance);
 8007472:	6820      	ldr	r0, [r4, #0]
 8007474:	f003 f926 	bl	800a6c4 <USB_ReadDevAllInEpInterrupt>
 8007478:	4607      	mov	r7, r0
      epnum = 0U;
 800747a:	46b0      	mov	r8, r6
      while (ep_intr != 0U)
 800747c:	e019      	b.n	80074b2 <HAL_PCD_IRQHandler+0x29a>
            fifoemptymsk = (uint32_t)(0x1UL << (epnum & EP_ADDR_MSK));
 800747e:	f008 020f 	and.w	r2, r8, #15
 8007482:	2101      	movs	r1, #1
 8007484:	fa01 f202 	lsl.w	r2, r1, r2
            USBx_DEVICE->DIEPEMPMSK &= ~fifoemptymsk;
 8007488:	f8d5 3834 	ldr.w	r3, [r5, #2100]	; 0x834
 800748c:	ea23 0302 	bic.w	r3, r3, r2
 8007490:	f8c5 3834 	str.w	r3, [r5, #2100]	; 0x834
            CLEAR_IN_EP_INTR(epnum, USB_OTG_DIEPINT_XFRC);
 8007494:	eb05 1348 	add.w	r3, r5, r8, lsl #5
 8007498:	f8c3 1908 	str.w	r1, [r3, #2312]	; 0x908
            HAL_PCD_DataInStageCallback(hpcd, (uint8_t)epnum);
 800749c:	4651      	mov	r1, sl
 800749e:	4620      	mov	r0, r4
 80074a0:	f7ff f826 	bl	80064f0 <HAL_PCD_DataInStageCallback>
 80074a4:	e015      	b.n	80074d2 <HAL_PCD_IRQHandler+0x2ba>
          if ((epint & USB_OTG_DIEPINT_TXFE) == USB_OTG_DIEPINT_TXFE)
 80074a6:	f019 0f80 	tst.w	r9, #128	; 0x80
 80074aa:	d133      	bne.n	8007514 <HAL_PCD_IRQHandler+0x2fc>
        epnum++;
 80074ac:	f108 0801 	add.w	r8, r8, #1
        ep_intr >>= 1U;
 80074b0:	087f      	lsrs	r7, r7, #1
      while (ep_intr != 0U)
 80074b2:	2f00      	cmp	r7, #0
 80074b4:	f43f aef4 	beq.w	80072a0 <HAL_PCD_IRQHandler+0x88>
        if ((ep_intr & 0x1U) != 0U) /* In ITR */
 80074b8:	f017 0f01 	tst.w	r7, #1
 80074bc:	d0f6      	beq.n	80074ac <HAL_PCD_IRQHandler+0x294>
          epint = USB_ReadDevInEPInterrupt(hpcd->Instance, (uint8_t)epnum);
 80074be:	fa5f fa88 	uxtb.w	sl, r8
 80074c2:	4651      	mov	r1, sl
 80074c4:	6820      	ldr	r0, [r4, #0]
 80074c6:	f003 f90e 	bl	800a6e6 <USB_ReadDevInEPInterrupt>
 80074ca:	4681      	mov	r9, r0
          if ((epint & USB_OTG_DIEPINT_XFRC) == USB_OTG_DIEPINT_XFRC)
 80074cc:	f010 0f01 	tst.w	r0, #1
 80074d0:	d1d5      	bne.n	800747e <HAL_PCD_IRQHandler+0x266>
          if ((epint & USB_OTG_DIEPINT_TOC) == USB_OTG_DIEPINT_TOC)
 80074d2:	f019 0f08 	tst.w	r9, #8
 80074d6:	d004      	beq.n	80074e2 <HAL_PCD_IRQHandler+0x2ca>
            CLEAR_IN_EP_INTR(epnum, USB_OTG_DIEPINT_TOC);
 80074d8:	eb05 1348 	add.w	r3, r5, r8, lsl #5
 80074dc:	2208      	movs	r2, #8
 80074de:	f8c3 2908 	str.w	r2, [r3, #2312]	; 0x908
          if ((epint & USB_OTG_DIEPINT_ITTXFE) == USB_OTG_DIEPINT_ITTXFE)
 80074e2:	f019 0f10 	tst.w	r9, #16
 80074e6:	d004      	beq.n	80074f2 <HAL_PCD_IRQHandler+0x2da>
            CLEAR_IN_EP_INTR(epnum, USB_OTG_DIEPINT_ITTXFE);
 80074e8:	eb05 1348 	add.w	r3, r5, r8, lsl #5
 80074ec:	2210      	movs	r2, #16
 80074ee:	f8c3 2908 	str.w	r2, [r3, #2312]	; 0x908
          if ((epint & USB_OTG_DIEPINT_INEPNE) == USB_OTG_DIEPINT_INEPNE)
 80074f2:	f019 0f40 	tst.w	r9, #64	; 0x40
 80074f6:	d004      	beq.n	8007502 <HAL_PCD_IRQHandler+0x2ea>
            CLEAR_IN_EP_INTR(epnum, USB_OTG_DIEPINT_INEPNE);
 80074f8:	eb05 1348 	add.w	r3, r5, r8, lsl #5
 80074fc:	2240      	movs	r2, #64	; 0x40
 80074fe:	f8c3 2908 	str.w	r2, [r3, #2312]	; 0x908
          if ((epint & USB_OTG_DIEPINT_EPDISD) == USB_OTG_DIEPINT_EPDISD)
 8007502:	f019 0f02 	tst.w	r9, #2
 8007506:	d0ce      	beq.n	80074a6 <HAL_PCD_IRQHandler+0x28e>
            CLEAR_IN_EP_INTR(epnum, USB_OTG_DIEPINT_EPDISD);
 8007508:	eb05 1348 	add.w	r3, r5, r8, lsl #5
 800750c:	2202      	movs	r2, #2
 800750e:	f8c3 2908 	str.w	r2, [r3, #2312]	; 0x908
 8007512:	e7c8      	b.n	80074a6 <HAL_PCD_IRQHandler+0x28e>
            (void)PCD_WriteEmptyTxFifo(hpcd, epnum);
 8007514:	4641      	mov	r1, r8
 8007516:	4620      	mov	r0, r4
 8007518:	f7ff fd22 	bl	8006f60 <PCD_WriteEmptyTxFifo>
 800751c:	e7c6      	b.n	80074ac <HAL_PCD_IRQHandler+0x294>
      USBx_DEVICE->DCTL &= ~USB_OTG_DCTL_RWUSIG;
 800751e:	f8d5 3804 	ldr.w	r3, [r5, #2052]	; 0x804
 8007522:	f023 0301 	bic.w	r3, r3, #1
 8007526:	f8c5 3804 	str.w	r3, [r5, #2052]	; 0x804
      if (hpcd->LPM_State == LPM_L1)
 800752a:	f894 33f4 	ldrb.w	r3, [r4, #1012]	; 0x3f4
 800752e:	2b01      	cmp	r3, #1
 8007530:	d008      	beq.n	8007544 <HAL_PCD_IRQHandler+0x32c>
        HAL_PCD_ResumeCallback(hpcd);
 8007532:	4620      	mov	r0, r4
 8007534:	f7fe ffff 	bl	8006536 <HAL_PCD_ResumeCallback>
      __HAL_PCD_CLEAR_FLAG(hpcd, USB_OTG_GINTSTS_WKUINT);
 8007538:	6822      	ldr	r2, [r4, #0]
 800753a:	6953      	ldr	r3, [r2, #20]
 800753c:	f003 4300 	and.w	r3, r3, #2147483648	; 0x80000000
 8007540:	6153      	str	r3, [r2, #20]
 8007542:	e6b3      	b.n	80072ac <HAL_PCD_IRQHandler+0x94>
        hpcd->LPM_State = LPM_L0;
 8007544:	2100      	movs	r1, #0
 8007546:	f884 13f4 	strb.w	r1, [r4, #1012]	; 0x3f4
        HAL_PCDEx_LPM_Callback(hpcd, PCD_LPM_L0_ACTIVE);
 800754a:	4620      	mov	r0, r4
 800754c:	f000 fa42 	bl	80079d4 <HAL_PCDEx_LPM_Callback>
 8007550:	e7f2      	b.n	8007538 <HAL_PCD_IRQHandler+0x320>
        HAL_PCD_SuspendCallback(hpcd);
 8007552:	4620      	mov	r0, r4
 8007554:	f7fe ffe9 	bl	800652a <HAL_PCD_SuspendCallback>
 8007558:	e6b4      	b.n	80072c4 <HAL_PCD_IRQHandler+0xac>
        HAL_PCD_SuspendCallback(hpcd);
 800755a:	4620      	mov	r0, r4
 800755c:	f7fe ffe5 	bl	800652a <HAL_PCD_SuspendCallback>
 8007560:	e6d1      	b.n	8007306 <HAL_PCD_IRQHandler+0xee>
      USBx_DEVICE->DCTL &= ~USB_OTG_DCTL_RWUSIG;
 8007562:	f505 6700 	add.w	r7, r5, #2048	; 0x800
 8007566:	687b      	ldr	r3, [r7, #4]
 8007568:	f023 0301 	bic.w	r3, r3, #1
 800756c:	607b      	str	r3, [r7, #4]
      (void)USB_FlushTxFifo(hpcd->Instance, 0x10U);
 800756e:	2110      	movs	r1, #16
 8007570:	6820      	ldr	r0, [r4, #0]
 8007572:	f002 fcf7 	bl	8009f64 <USB_FlushTxFifo>
      for (i = 0U; i < hpcd->Init.dev_endpoints; i++)
 8007576:	e020      	b.n	80075ba <HAL_PCD_IRQHandler+0x3a2>
        USBx_INEP(i)->DIEPINT = 0xFB7FU;
 8007578:	eb05 1346 	add.w	r3, r5, r6, lsl #5
 800757c:	f64f 317f 	movw	r1, #64383	; 0xfb7f
 8007580:	f8c3 1908 	str.w	r1, [r3, #2312]	; 0x908
        USBx_INEP(i)->DIEPCTL &= ~USB_OTG_DIEPCTL_STALL;
 8007584:	f8d3 2900 	ldr.w	r2, [r3, #2304]	; 0x900
 8007588:	f422 1200 	bic.w	r2, r2, #2097152	; 0x200000
 800758c:	f8c3 2900 	str.w	r2, [r3, #2304]	; 0x900
        USBx_INEP(i)->DIEPCTL |= USB_OTG_DIEPCTL_SNAK;
 8007590:	f8d3 2900 	ldr.w	r2, [r3, #2304]	; 0x900
 8007594:	f042 6200 	orr.w	r2, r2, #134217728	; 0x8000000
 8007598:	f8c3 2900 	str.w	r2, [r3, #2304]	; 0x900
        USBx_OUTEP(i)->DOEPINT = 0xFB7FU;
 800759c:	f8c3 1b08 	str.w	r1, [r3, #2824]	; 0xb08
        USBx_OUTEP(i)->DOEPCTL &= ~USB_OTG_DOEPCTL_STALL;
 80075a0:	f8d3 2b00 	ldr.w	r2, [r3, #2816]	; 0xb00
 80075a4:	f422 1200 	bic.w	r2, r2, #2097152	; 0x200000
 80075a8:	f8c3 2b00 	str.w	r2, [r3, #2816]	; 0xb00
        USBx_OUTEP(i)->DOEPCTL |= USB_OTG_DOEPCTL_SNAK;
 80075ac:	f8d3 2b00 	ldr.w	r2, [r3, #2816]	; 0xb00
 80075b0:	f042 6200 	orr.w	r2, r2, #134217728	; 0x8000000
 80075b4:	f8c3 2b00 	str.w	r2, [r3, #2816]	; 0xb00
      for (i = 0U; i < hpcd->Init.dev_endpoints; i++)
 80075b8:	3601      	adds	r6, #1
 80075ba:	6863      	ldr	r3, [r4, #4]
 80075bc:	42b3      	cmp	r3, r6
 80075be:	d8db      	bhi.n	8007578 <HAL_PCD_IRQHandler+0x360>
      USBx_DEVICE->DAINTMSK |= 0x10001U;
 80075c0:	69fb      	ldr	r3, [r7, #28]
 80075c2:	f043 1301 	orr.w	r3, r3, #65537	; 0x10001
 80075c6:	61fb      	str	r3, [r7, #28]
      if (hpcd->Init.use_dedicated_ep1 != 0U)
 80075c8:	6b23      	ldr	r3, [r4, #48]	; 0x30
 80075ca:	b1d3      	cbz	r3, 8007602 <HAL_PCD_IRQHandler+0x3ea>
        USBx_DEVICE->DOUTEP1MSK |= USB_OTG_DOEPMSK_STUPM |
 80075cc:	f8d7 3084 	ldr.w	r3, [r7, #132]	; 0x84
 80075d0:	f043 030b 	orr.w	r3, r3, #11
 80075d4:	f8c7 3084 	str.w	r3, [r7, #132]	; 0x84
        USBx_DEVICE->DINEP1MSK |= USB_OTG_DIEPMSK_TOM |
 80075d8:	6c7b      	ldr	r3, [r7, #68]	; 0x44
 80075da:	f043 030b 	orr.w	r3, r3, #11
 80075de:	647b      	str	r3, [r7, #68]	; 0x44
      USBx_DEVICE->DCFG &= ~USB_OTG_DCFG_DAD;
 80075e0:	f8d5 3800 	ldr.w	r3, [r5, #2048]	; 0x800
 80075e4:	f423 63fe 	bic.w	r3, r3, #2032	; 0x7f0
 80075e8:	f8c5 3800 	str.w	r3, [r5, #2048]	; 0x800
      (void)USB_EP0_OutStart(hpcd->Instance, (uint8_t *)hpcd->Setup);
 80075ec:	f504 7171 	add.w	r1, r4, #964	; 0x3c4
 80075f0:	6820      	ldr	r0, [r4, #0]
 80075f2:	f003 f89f 	bl	800a734 <USB_EP0_OutStart>
      __HAL_PCD_CLEAR_FLAG(hpcd, USB_OTG_GINTSTS_USBRST);
 80075f6:	6822      	ldr	r2, [r4, #0]
 80075f8:	6953      	ldr	r3, [r2, #20]
 80075fa:	f403 5380 	and.w	r3, r3, #4096	; 0x1000
 80075fe:	6153      	str	r3, [r2, #20]
 8007600:	e688      	b.n	8007314 <HAL_PCD_IRQHandler+0xfc>
        USBx_DEVICE->DOEPMSK |= USB_OTG_DOEPMSK_STUPM |
 8007602:	697b      	ldr	r3, [r7, #20]
 8007604:	f443 5300 	orr.w	r3, r3, #8192	; 0x2000
 8007608:	f043 032b 	orr.w	r3, r3, #43	; 0x2b
 800760c:	617b      	str	r3, [r7, #20]
        USBx_DEVICE->DIEPMSK |= USB_OTG_DIEPMSK_TOM |
 800760e:	693b      	ldr	r3, [r7, #16]
 8007610:	f043 030b 	orr.w	r3, r3, #11
 8007614:	613b      	str	r3, [r7, #16]
 8007616:	e7e3      	b.n	80075e0 <HAL_PCD_IRQHandler+0x3c8>
      (void)USB_ActivateSetup(hpcd->Instance);
 8007618:	6820      	ldr	r0, [r4, #0]
 800761a:	f003 f87a 	bl	800a712 <USB_ActivateSetup>
      hpcd->Init.speed = USB_GetDevSpeed(hpcd->Instance);
 800761e:	6820      	ldr	r0, [r4, #0]
 8007620:	f002 fd80 	bl	800a124 <USB_GetDevSpeed>
 8007624:	60e0      	str	r0, [r4, #12]
      (void)USB_SetTurnaroundTime(hpcd->Instance,
 8007626:	6825      	ldr	r5, [r4, #0]
 8007628:	f000 fe5c 	bl	80082e4 <HAL_RCC_GetHCLKFreq>
 800762c:	4601      	mov	r1, r0
 800762e:	7b22      	ldrb	r2, [r4, #12]
 8007630:	4628      	mov	r0, r5
 8007632:	f002 fc01 	bl	8009e38 <USB_SetTurnaroundTime>
      HAL_PCD_ResetCallback(hpcd);
 8007636:	4620      	mov	r0, r4
 8007638:	f7fe ff6b 	bl	8006512 <HAL_PCD_ResetCallback>
      __HAL_PCD_CLEAR_FLAG(hpcd, USB_OTG_GINTSTS_ENUMDNE);
 800763c:	6822      	ldr	r2, [r4, #0]
 800763e:	6953      	ldr	r3, [r2, #20]
 8007640:	f403 5300 	and.w	r3, r3, #8192	; 0x2000
 8007644:	6153      	str	r3, [r2, #20]
 8007646:	e66c      	b.n	8007322 <HAL_PCD_IRQHandler+0x10a>
      HAL_PCD_SOFCallback(hpcd);
 8007648:	4620      	mov	r0, r4
 800764a:	f7fe ff5c 	bl	8006506 <HAL_PCD_SOFCallback>
      __HAL_PCD_CLEAR_FLAG(hpcd, USB_OTG_GINTSTS_SOF);
 800764e:	6822      	ldr	r2, [r4, #0]
 8007650:	6953      	ldr	r3, [r2, #20]
 8007652:	f003 0308 	and.w	r3, r3, #8
 8007656:	6153      	str	r3, [r2, #20]
 8007658:	e66a      	b.n	8007330 <HAL_PCD_IRQHandler+0x118>
      HAL_PCD_ISOINIncompleteCallback(hpcd, (uint8_t)epnum);
 800765a:	2100      	movs	r1, #0
 800765c:	4620      	mov	r0, r4
 800765e:	f7fe ff76 	bl	800654e <HAL_PCD_ISOINIncompleteCallback>
      __HAL_PCD_CLEAR_FLAG(hpcd, USB_OTG_GINTSTS_IISOIXFR);
 8007662:	6822      	ldr	r2, [r4, #0]
 8007664:	6953      	ldr	r3, [r2, #20]
 8007666:	f403 1380 	and.w	r3, r3, #1048576	; 0x100000
 800766a:	6153      	str	r3, [r2, #20]
 800766c:	e667      	b.n	800733e <HAL_PCD_IRQHandler+0x126>
      HAL_PCD_ISOOUTIncompleteCallback(hpcd, (uint8_t)epnum);
 800766e:	2100      	movs	r1, #0
 8007670:	4620      	mov	r0, r4
 8007672:	f7fe ff66 	bl	8006542 <HAL_PCD_ISOOUTIncompleteCallback>
      __HAL_PCD_CLEAR_FLAG(hpcd, USB_OTG_GINTSTS_PXFR_INCOMPISOOUT);
 8007676:	6822      	ldr	r2, [r4, #0]
 8007678:	6953      	ldr	r3, [r2, #20]
 800767a:	f403 1300 	and.w	r3, r3, #2097152	; 0x200000
 800767e:	6153      	str	r3, [r2, #20]
 8007680:	e664      	b.n	800734c <HAL_PCD_IRQHandler+0x134>
      HAL_PCD_ConnectCallback(hpcd);
 8007682:	4620      	mov	r0, r4
 8007684:	f7fe ff69 	bl	800655a <HAL_PCD_ConnectCallback>
      __HAL_PCD_CLEAR_FLAG(hpcd, USB_OTG_GINTSTS_SRQINT);
 8007688:	6822      	ldr	r2, [r4, #0]
 800768a:	6953      	ldr	r3, [r2, #20]
 800768c:	f003 4380 	and.w	r3, r3, #1073741824	; 0x40000000
 8007690:	6153      	str	r3, [r2, #20]
 8007692:	e662      	b.n	800735a <HAL_PCD_IRQHandler+0x142>
        HAL_PCD_DisconnectCallback(hpcd);
 8007694:	4620      	mov	r0, r4
 8007696:	f7fe ff66 	bl	8006566 <HAL_PCD_DisconnectCallback>
 800769a:	e66b      	b.n	8007374 <HAL_PCD_IRQHandler+0x15c>

0800769c <HAL_PCD_SetAddress>:
  __HAL_LOCK(hpcd);
 800769c:	f890 33bc 	ldrb.w	r3, [r0, #956]	; 0x3bc
 80076a0:	2b01      	cmp	r3, #1
 80076a2:	d00d      	beq.n	80076c0 <HAL_PCD_SetAddress+0x24>
{
 80076a4:	b510      	push	{r4, lr}
 80076a6:	4604      	mov	r4, r0
  __HAL_LOCK(hpcd);
 80076a8:	2301      	movs	r3, #1
 80076aa:	f880 33bc 	strb.w	r3, [r0, #956]	; 0x3bc
  hpcd->USB_Address = address;
 80076ae:	f880 1038 	strb.w	r1, [r0, #56]	; 0x38
  (void)USB_SetDevAddress(hpcd->Instance, address);
 80076b2:	6800      	ldr	r0, [r0, #0]
 80076b4:	f002 ffce 	bl	800a654 <USB_SetDevAddress>
  __HAL_UNLOCK(hpcd);
 80076b8:	2000      	movs	r0, #0
 80076ba:	f884 03bc 	strb.w	r0, [r4, #956]	; 0x3bc
}
 80076be:	bd10      	pop	{r4, pc}
  __HAL_LOCK(hpcd);
 80076c0:	2002      	movs	r0, #2
}
 80076c2:	4770      	bx	lr

080076c4 <HAL_PCD_EP_Open>:
{
 80076c4:	b538      	push	{r3, r4, r5, lr}
 80076c6:	4605      	mov	r5, r0
 80076c8:	468c      	mov	ip, r1
  if ((ep_addr & 0x80U) == 0x80U)
 80076ca:	f011 0f80 	tst.w	r1, #128	; 0x80
 80076ce:	d129      	bne.n	8007724 <HAL_PCD_EP_Open+0x60>
    ep = &hpcd->OUT_ep[ep_addr & EP_ADDR_MSK];
 80076d0:	f001 0e0f 	and.w	lr, r1, #15
 80076d4:	ebce 04ce 	rsb	r4, lr, lr, lsl #3
 80076d8:	00a4      	lsls	r4, r4, #2
 80076da:	f504 74fc 	add.w	r4, r4, #504	; 0x1f8
 80076de:	4404      	add	r4, r0
 80076e0:	1d21      	adds	r1, r4, #4
    ep->is_in = 0U;
 80076e2:	ebce 0ece 	rsb	lr, lr, lr, lsl #3
 80076e6:	eb00 0e8e 	add.w	lr, r0, lr, lsl #2
 80076ea:	2000      	movs	r0, #0
 80076ec:	f88e 01fd 	strb.w	r0, [lr, #509]	; 0x1fd
  ep->num = ep_addr & EP_ADDR_MSK;
 80076f0:	f00c 0c0f 	and.w	ip, ip, #15
 80076f4:	f881 c000 	strb.w	ip, [r1]
  ep->maxpacket = ep_mps;
 80076f8:	608a      	str	r2, [r1, #8]
  ep->type = ep_type;
 80076fa:	70cb      	strb	r3, [r1, #3]
  if (ep->is_in != 0U)
 80076fc:	784a      	ldrb	r2, [r1, #1]
 80076fe:	b10a      	cbz	r2, 8007704 <HAL_PCD_EP_Open+0x40>
    ep->tx_fifo_num = ep->num;
 8007700:	f8a1 c006 	strh.w	ip, [r1, #6]
  if (ep_type == EP_TYPE_BULK)
 8007704:	2b02      	cmp	r3, #2
 8007706:	d01d      	beq.n	8007744 <HAL_PCD_EP_Open+0x80>
  __HAL_LOCK(hpcd);
 8007708:	f895 33bc 	ldrb.w	r3, [r5, #956]	; 0x3bc
 800770c:	2b01      	cmp	r3, #1
 800770e:	d01c      	beq.n	800774a <HAL_PCD_EP_Open+0x86>
 8007710:	2301      	movs	r3, #1
 8007712:	f885 33bc 	strb.w	r3, [r5, #956]	; 0x3bc
  (void)USB_ActivateEndpoint(hpcd->Instance, ep);
 8007716:	6828      	ldr	r0, [r5, #0]
 8007718:	f002 fd12 	bl	800a140 <USB_ActivateEndpoint>
  __HAL_UNLOCK(hpcd);
 800771c:	2000      	movs	r0, #0
 800771e:	f885 03bc 	strb.w	r0, [r5, #956]	; 0x3bc
}
 8007722:	bd38      	pop	{r3, r4, r5, pc}
    ep = &hpcd->IN_ep[ep_addr & EP_ADDR_MSK];
 8007724:	f001 000f 	and.w	r0, r1, #15
 8007728:	ebc0 01c0 	rsb	r1, r0, r0, lsl #3
 800772c:	0089      	lsls	r1, r1, #2
 800772e:	3138      	adds	r1, #56	; 0x38
 8007730:	4429      	add	r1, r5
 8007732:	3104      	adds	r1, #4
    ep->is_in = 1U;
 8007734:	ebc0 00c0 	rsb	r0, r0, r0, lsl #3
 8007738:	eb05 0080 	add.w	r0, r5, r0, lsl #2
 800773c:	2401      	movs	r4, #1
 800773e:	f880 403d 	strb.w	r4, [r0, #61]	; 0x3d
 8007742:	e7d5      	b.n	80076f0 <HAL_PCD_EP_Open+0x2c>
    ep->data_pid_start = 0U;
 8007744:	2300      	movs	r3, #0
 8007746:	710b      	strb	r3, [r1, #4]
 8007748:	e7de      	b.n	8007708 <HAL_PCD_EP_Open+0x44>
  __HAL_LOCK(hpcd);
 800774a:	2002      	movs	r0, #2
 800774c:	e7e9      	b.n	8007722 <HAL_PCD_EP_Open+0x5e>

0800774e <HAL_PCD_EP_Close>:
{
 800774e:	b510      	push	{r4, lr}
 8007750:	4604      	mov	r4, r0
 8007752:	460a      	mov	r2, r1
  if ((ep_addr & 0x80U) == 0x80U)
 8007754:	f011 0f80 	tst.w	r1, #128	; 0x80
 8007758:	d120      	bne.n	800779c <HAL_PCD_EP_Close+0x4e>
    ep = &hpcd->OUT_ep[ep_addr & EP_ADDR_MSK];
 800775a:	f001 000f 	and.w	r0, r1, #15
 800775e:	ebc0 03c0 	rsb	r3, r0, r0, lsl #3
 8007762:	009b      	lsls	r3, r3, #2
 8007764:	f503 73fc 	add.w	r3, r3, #504	; 0x1f8
 8007768:	4423      	add	r3, r4
 800776a:	1d19      	adds	r1, r3, #4
    ep->is_in = 0U;
 800776c:	ebc0 00c0 	rsb	r0, r0, r0, lsl #3
 8007770:	eb04 0080 	add.w	r0, r4, r0, lsl #2
 8007774:	2300      	movs	r3, #0
 8007776:	f880 31fd 	strb.w	r3, [r0, #509]	; 0x1fd
  ep->num   = ep_addr & EP_ADDR_MSK;
 800777a:	f002 020f 	and.w	r2, r2, #15
 800777e:	700a      	strb	r2, [r1, #0]
  __HAL_LOCK(hpcd);
 8007780:	f894 33bc 	ldrb.w	r3, [r4, #956]	; 0x3bc
 8007784:	2b01      	cmp	r3, #1
 8007786:	d019      	beq.n	80077bc <HAL_PCD_EP_Close+0x6e>
 8007788:	2301      	movs	r3, #1
 800778a:	f884 33bc 	strb.w	r3, [r4, #956]	; 0x3bc
  (void)USB_DeactivateEndpoint(hpcd->Instance, ep);
 800778e:	6820      	ldr	r0, [r4, #0]
 8007790:	f002 fd24 	bl	800a1dc <USB_DeactivateEndpoint>
  __HAL_UNLOCK(hpcd);
 8007794:	2000      	movs	r0, #0
 8007796:	f884 03bc 	strb.w	r0, [r4, #956]	; 0x3bc
}
 800779a:	bd10      	pop	{r4, pc}
    ep = &hpcd->IN_ep[ep_addr & EP_ADDR_MSK];
 800779c:	f001 000f 	and.w	r0, r1, #15
 80077a0:	ebc0 03c0 	rsb	r3, r0, r0, lsl #3
 80077a4:	009b      	lsls	r3, r3, #2
 80077a6:	3338      	adds	r3, #56	; 0x38
 80077a8:	4423      	add	r3, r4
 80077aa:	1d19      	adds	r1, r3, #4
    ep->is_in = 1U;
 80077ac:	ebc0 00c0 	rsb	r0, r0, r0, lsl #3
 80077b0:	eb04 0080 	add.w	r0, r4, r0, lsl #2
 80077b4:	2301      	movs	r3, #1
 80077b6:	f880 303d 	strb.w	r3, [r0, #61]	; 0x3d
 80077ba:	e7de      	b.n	800777a <HAL_PCD_EP_Close+0x2c>
  __HAL_LOCK(hpcd);
 80077bc:	2002      	movs	r0, #2
 80077be:	e7ec      	b.n	800779a <HAL_PCD_EP_Close+0x4c>

080077c0 <HAL_PCD_EP_Receive>:
{
 80077c0:	b510      	push	{r4, lr}
  ep = &hpcd->OUT_ep[ep_addr & EP_ADDR_MSK];
 80077c2:	f001 040f 	and.w	r4, r1, #15
 80077c6:	ebc4 01c4 	rsb	r1, r4, r4, lsl #3
 80077ca:	0089      	lsls	r1, r1, #2
 80077cc:	f501 71fc 	add.w	r1, r1, #504	; 0x1f8
 80077d0:	4401      	add	r1, r0
 80077d2:	3104      	adds	r1, #4
  ep->xfer_buff = pBuf;
 80077d4:	ebc4 0cc4 	rsb	ip, r4, r4, lsl #3
 80077d8:	eb00 0c8c 	add.w	ip, r0, ip, lsl #2
 80077dc:	f8cc 2208 	str.w	r2, [ip, #520]	; 0x208
  ep->xfer_len = len;
 80077e0:	f8cc 3210 	str.w	r3, [ip, #528]	; 0x210
  ep->xfer_count = 0U;
 80077e4:	2300      	movs	r3, #0
 80077e6:	f8cc 3214 	str.w	r3, [ip, #532]	; 0x214
  ep->is_in = 0U;
 80077ea:	f88c 31fd 	strb.w	r3, [ip, #509]	; 0x1fd
  ep->num = ep_addr & EP_ADDR_MSK;
 80077ee:	f88c 41fc 	strb.w	r4, [ip, #508]	; 0x1fc
  if ((ep_addr & EP_ADDR_MSK) == 0U)
 80077f2:	b924      	cbnz	r4, 80077fe <HAL_PCD_EP_Receive+0x3e>
    (void)USB_EP0StartXfer(hpcd->Instance, ep);
 80077f4:	6800      	ldr	r0, [r0, #0]
 80077f6:	f002 fd61 	bl	800a2bc <USB_EP0StartXfer>
}
 80077fa:	2000      	movs	r0, #0
 80077fc:	bd10      	pop	{r4, pc}
    (void)USB_EPStartXfer(hpcd->Instance, ep);
 80077fe:	6800      	ldr	r0, [r0, #0]
 8007800:	f002 fde8 	bl	800a3d4 <USB_EPStartXfer>
 8007804:	e7f9      	b.n	80077fa <HAL_PCD_EP_Receive+0x3a>

08007806 <HAL_PCD_EP_GetRxCount>:
  return hpcd->OUT_ep[ep_addr & EP_ADDR_MSK].xfer_count;
 8007806:	f001 010f 	and.w	r1, r1, #15
 800780a:	ebc1 01c1 	rsb	r1, r1, r1, lsl #3
 800780e:	eb00 0081 	add.w	r0, r0, r1, lsl #2
}
 8007812:	f8d0 0214 	ldr.w	r0, [r0, #532]	; 0x214
 8007816:	4770      	bx	lr

08007818 <HAL_PCD_EP_Transmit>:
{
 8007818:	b510      	push	{r4, lr}
  ep = &hpcd->IN_ep[ep_addr & EP_ADDR_MSK];
 800781a:	f001 040f 	and.w	r4, r1, #15
 800781e:	ebc4 01c4 	rsb	r1, r4, r4, lsl #3
 8007822:	0089      	lsls	r1, r1, #2
 8007824:	3138      	adds	r1, #56	; 0x38
 8007826:	4401      	add	r1, r0
 8007828:	3104      	adds	r1, #4
  ep->xfer_buff = pBuf;
 800782a:	ebc4 0cc4 	rsb	ip, r4, r4, lsl #3
 800782e:	eb00 0c8c 	add.w	ip, r0, ip, lsl #2
 8007832:	f8cc 2048 	str.w	r2, [ip, #72]	; 0x48
  ep->xfer_len = len;
 8007836:	f8cc 3050 	str.w	r3, [ip, #80]	; 0x50
  ep->xfer_count = 0U;
 800783a:	2300      	movs	r3, #0
 800783c:	f8cc 3054 	str.w	r3, [ip, #84]	; 0x54
  ep->is_in = 1U;
 8007840:	2301      	movs	r3, #1
 8007842:	f88c 303d 	strb.w	r3, [ip, #61]	; 0x3d
  ep->num = ep_addr & EP_ADDR_MSK;
 8007846:	f88c 403c 	strb.w	r4, [ip, #60]	; 0x3c
  if ((ep_addr & EP_ADDR_MSK) == 0U)
 800784a:	b924      	cbnz	r4, 8007856 <HAL_PCD_EP_Transmit+0x3e>
    (void)USB_EP0StartXfer(hpcd->Instance, ep);
 800784c:	6800      	ldr	r0, [r0, #0]
 800784e:	f002 fd35 	bl	800a2bc <USB_EP0StartXfer>
}
 8007852:	2000      	movs	r0, #0
 8007854:	bd10      	pop	{r4, pc}
    (void)USB_EPStartXfer(hpcd->Instance, ep);
 8007856:	6800      	ldr	r0, [r0, #0]
 8007858:	f002 fdbc 	bl	800a3d4 <USB_EPStartXfer>
 800785c:	e7f9      	b.n	8007852 <HAL_PCD_EP_Transmit+0x3a>

0800785e <HAL_PCD_EP_SetStall>:
{
 800785e:	b538      	push	{r3, r4, r5, lr}
  if (((uint32_t)ep_addr & EP_ADDR_MSK) > hpcd->Init.dev_endpoints)
 8007860:	f001 050f 	and.w	r5, r1, #15
 8007864:	6842      	ldr	r2, [r0, #4]
 8007866:	4295      	cmp	r5, r2
 8007868:	d838      	bhi.n	80078dc <HAL_PCD_EP_SetStall+0x7e>
 800786a:	4604      	mov	r4, r0
 800786c:	460b      	mov	r3, r1
  if ((0x80U & ep_addr) == 0x80U)
 800786e:	f011 0f80 	tst.w	r1, #128	; 0x80
 8007872:	d11f      	bne.n	80078b4 <HAL_PCD_EP_SetStall+0x56>
    ep = &hpcd->OUT_ep[ep_addr];
 8007874:	ebc1 01c1 	rsb	r1, r1, r1, lsl #3
 8007878:	0089      	lsls	r1, r1, #2
 800787a:	f501 71fc 	add.w	r1, r1, #504	; 0x1f8
 800787e:	4401      	add	r1, r0
 8007880:	3104      	adds	r1, #4
    ep->is_in = 0U;
 8007882:	ebc3 03c3 	rsb	r3, r3, r3, lsl #3
 8007886:	eb00 0383 	add.w	r3, r0, r3, lsl #2
 800788a:	2200      	movs	r2, #0
 800788c:	f883 21fd 	strb.w	r2, [r3, #509]	; 0x1fd
  ep->is_stall = 1U;
 8007890:	2301      	movs	r3, #1
 8007892:	708b      	strb	r3, [r1, #2]
  ep->num = ep_addr & EP_ADDR_MSK;
 8007894:	700d      	strb	r5, [r1, #0]
  __HAL_LOCK(hpcd);
 8007896:	f894 33bc 	ldrb.w	r3, [r4, #956]	; 0x3bc
 800789a:	2b01      	cmp	r3, #1
 800789c:	d020      	beq.n	80078e0 <HAL_PCD_EP_SetStall+0x82>
 800789e:	2301      	movs	r3, #1
 80078a0:	f884 33bc 	strb.w	r3, [r4, #956]	; 0x3bc
  (void)USB_EPSetStall(hpcd->Instance, ep);
 80078a4:	6820      	ldr	r0, [r4, #0]
 80078a6:	f002 fe7a 	bl	800a59e <USB_EPSetStall>
  if ((ep_addr & EP_ADDR_MSK) == 0U)
 80078aa:	b18d      	cbz	r5, 80078d0 <HAL_PCD_EP_SetStall+0x72>
  __HAL_UNLOCK(hpcd);
 80078ac:	2000      	movs	r0, #0
 80078ae:	f884 03bc 	strb.w	r0, [r4, #956]	; 0x3bc
}
 80078b2:	bd38      	pop	{r3, r4, r5, pc}
    ep = &hpcd->IN_ep[ep_addr & EP_ADDR_MSK];
 80078b4:	ebc5 01c5 	rsb	r1, r5, r5, lsl #3
 80078b8:	0089      	lsls	r1, r1, #2
 80078ba:	3138      	adds	r1, #56	; 0x38
 80078bc:	4401      	add	r1, r0
 80078be:	3104      	adds	r1, #4
    ep->is_in = 1U;
 80078c0:	ebc5 03c5 	rsb	r3, r5, r5, lsl #3
 80078c4:	eb00 0383 	add.w	r3, r0, r3, lsl #2
 80078c8:	2201      	movs	r2, #1
 80078ca:	f883 203d 	strb.w	r2, [r3, #61]	; 0x3d
 80078ce:	e7df      	b.n	8007890 <HAL_PCD_EP_SetStall+0x32>
    (void)USB_EP0_OutStart(hpcd->Instance, (uint8_t *)hpcd->Setup);
 80078d0:	f504 7171 	add.w	r1, r4, #964	; 0x3c4
 80078d4:	6820      	ldr	r0, [r4, #0]
 80078d6:	f002 ff2d 	bl	800a734 <USB_EP0_OutStart>
 80078da:	e7e7      	b.n	80078ac <HAL_PCD_EP_SetStall+0x4e>
    return HAL_ERROR;
 80078dc:	2001      	movs	r0, #1
 80078de:	e7e8      	b.n	80078b2 <HAL_PCD_EP_SetStall+0x54>
  __HAL_LOCK(hpcd);
 80078e0:	2002      	movs	r0, #2
 80078e2:	e7e6      	b.n	80078b2 <HAL_PCD_EP_SetStall+0x54>

080078e4 <HAL_PCD_EP_ClrStall>:
  if (((uint32_t)ep_addr & 0x0FU) > hpcd->Init.dev_endpoints)
 80078e4:	f001 030f 	and.w	r3, r1, #15
 80078e8:	6842      	ldr	r2, [r0, #4]
 80078ea:	4293      	cmp	r3, r2
 80078ec:	d831      	bhi.n	8007952 <HAL_PCD_EP_ClrStall+0x6e>
{
 80078ee:	b510      	push	{r4, lr}
 80078f0:	4604      	mov	r4, r0
  if ((0x80U & ep_addr) == 0x80U)
 80078f2:	f011 0f80 	tst.w	r1, #128	; 0x80
 80078f6:	d11e      	bne.n	8007936 <HAL_PCD_EP_ClrStall+0x52>
    ep = &hpcd->OUT_ep[ep_addr & EP_ADDR_MSK];
 80078f8:	ebc3 01c3 	rsb	r1, r3, r3, lsl #3
 80078fc:	0089      	lsls	r1, r1, #2
 80078fe:	f501 71fc 	add.w	r1, r1, #504	; 0x1f8
 8007902:	4401      	add	r1, r0
 8007904:	3104      	adds	r1, #4
    ep->is_in = 0U;
 8007906:	ebc3 02c3 	rsb	r2, r3, r3, lsl #3
 800790a:	eb00 0282 	add.w	r2, r0, r2, lsl #2
 800790e:	2000      	movs	r0, #0
 8007910:	f882 01fd 	strb.w	r0, [r2, #509]	; 0x1fd
  ep->is_stall = 0U;
 8007914:	2200      	movs	r2, #0
 8007916:	708a      	strb	r2, [r1, #2]
  ep->num = ep_addr & EP_ADDR_MSK;
 8007918:	700b      	strb	r3, [r1, #0]
  __HAL_LOCK(hpcd);
 800791a:	f894 33bc 	ldrb.w	r3, [r4, #956]	; 0x3bc
 800791e:	2b01      	cmp	r3, #1
 8007920:	d019      	beq.n	8007956 <HAL_PCD_EP_ClrStall+0x72>
 8007922:	2301      	movs	r3, #1
 8007924:	f884 33bc 	strb.w	r3, [r4, #956]	; 0x3bc
  (void)USB_EPClearStall(hpcd->Instance, ep);
 8007928:	6820      	ldr	r0, [r4, #0]
 800792a:	f002 fe65 	bl	800a5f8 <USB_EPClearStall>
  __HAL_UNLOCK(hpcd);
 800792e:	2000      	movs	r0, #0
 8007930:	f884 03bc 	strb.w	r0, [r4, #956]	; 0x3bc
}
 8007934:	bd10      	pop	{r4, pc}
    ep = &hpcd->IN_ep[ep_addr & EP_ADDR_MSK];
 8007936:	ebc3 01c3 	rsb	r1, r3, r3, lsl #3
 800793a:	0089      	lsls	r1, r1, #2
 800793c:	3138      	adds	r1, #56	; 0x38
 800793e:	4401      	add	r1, r0
 8007940:	3104      	adds	r1, #4
    ep->is_in = 1U;
 8007942:	ebc3 02c3 	rsb	r2, r3, r3, lsl #3
 8007946:	eb00 0282 	add.w	r2, r0, r2, lsl #2
 800794a:	2001      	movs	r0, #1
 800794c:	f882 003d 	strb.w	r0, [r2, #61]	; 0x3d
 8007950:	e7e0      	b.n	8007914 <HAL_PCD_EP_ClrStall+0x30>
    return HAL_ERROR;
 8007952:	2001      	movs	r0, #1
}
 8007954:	4770      	bx	lr
  __HAL_LOCK(hpcd);
 8007956:	2002      	movs	r0, #2
 8007958:	e7ec      	b.n	8007934 <HAL_PCD_EP_ClrStall+0x50>

0800795a <HAL_PCDEx_SetTxFiFo>:
  * @param  fifo The number of Tx fifo
  * @param  size Fifo size
  * @retval HAL status
  */
HAL_StatusTypeDef HAL_PCDEx_SetTxFiFo(PCD_HandleTypeDef *hpcd, uint8_t fifo, uint16_t size)
{
 800795a:	b410      	push	{r4}
         --> Txn should be configured with the minimum space of 16 words
     The FIFO is used optimally when used TxFIFOs are allocated in the top
         of the FIFO.Ex: use EP1 and EP2 as IN instead of EP1 and EP3 as IN ones.
     When DMA is used 3n * FIFO locations should be reserved for internal DMA registers */

  Tx_Offset = hpcd->Instance->GRXFSIZ;
 800795c:	6804      	ldr	r4, [r0, #0]
 800795e:	6a60      	ldr	r0, [r4, #36]	; 0x24

  if (fifo == 0U)
 8007960:	b931      	cbnz	r1, 8007970 <HAL_PCDEx_SetTxFiFo+0x16>
  {
    hpcd->Instance->DIEPTXF0_HNPTXFSIZ = ((uint32_t)size << 16) | Tx_Offset;
 8007962:	ea40 4002 	orr.w	r0, r0, r2, lsl #16
 8007966:	62a0      	str	r0, [r4, #40]	; 0x28
    /* Multiply Tx_Size by 2 to get higher performance */
    hpcd->Instance->DIEPTXF[fifo - 1U] = ((uint32_t)size << 16) | Tx_Offset;
  }

  return HAL_OK;
}
 8007968:	2000      	movs	r0, #0
 800796a:	f85d 4b04 	ldr.w	r4, [sp], #4
 800796e:	4770      	bx	lr
 8007970:	468c      	mov	ip, r1
    Tx_Offset += (hpcd->Instance->DIEPTXF0_HNPTXFSIZ) >> 16;
 8007972:	6aa3      	ldr	r3, [r4, #40]	; 0x28
 8007974:	eb00 4013 	add.w	r0, r0, r3, lsr #16
    for (i = 0U; i < (fifo - 1U); i++)
 8007978:	2300      	movs	r3, #0
 800797a:	e008      	b.n	800798e <HAL_PCDEx_SetTxFiFo+0x34>
      Tx_Offset += (hpcd->Instance->DIEPTXF[i] >> 16);
 800797c:	f103 0140 	add.w	r1, r3, #64	; 0x40
 8007980:	eb04 0181 	add.w	r1, r4, r1, lsl #2
 8007984:	6849      	ldr	r1, [r1, #4]
 8007986:	eb00 4011 	add.w	r0, r0, r1, lsr #16
    for (i = 0U; i < (fifo - 1U); i++)
 800798a:	3301      	adds	r3, #1
 800798c:	b2db      	uxtb	r3, r3
 800798e:	f10c 31ff 	add.w	r1, ip, #4294967295
 8007992:	428b      	cmp	r3, r1
 8007994:	d3f2      	bcc.n	800797c <HAL_PCDEx_SetTxFiFo+0x22>
    hpcd->Instance->DIEPTXF[fifo - 1U] = ((uint32_t)size << 16) | Tx_Offset;
 8007996:	ea40 4002 	orr.w	r0, r0, r2, lsl #16
 800799a:	f10c 013f 	add.w	r1, ip, #63	; 0x3f
 800799e:	eb04 0481 	add.w	r4, r4, r1, lsl #2
 80079a2:	6060      	str	r0, [r4, #4]
 80079a4:	e7e0      	b.n	8007968 <HAL_PCDEx_SetTxFiFo+0xe>

080079a6 <HAL_PCDEx_SetRxFiFo>:
  * @param  size Size of Rx fifo
  * @retval HAL status
  */
HAL_StatusTypeDef HAL_PCDEx_SetRxFiFo(PCD_HandleTypeDef *hpcd, uint16_t size)
{
  hpcd->Instance->GRXFSIZ = size;
 80079a6:	6803      	ldr	r3, [r0, #0]
 80079a8:	6259      	str	r1, [r3, #36]	; 0x24

  return HAL_OK;
}
 80079aa:	2000      	movs	r0, #0
 80079ac:	4770      	bx	lr

080079ae <HAL_PCDEx_ActivateLPM>:
  * @brief  Activate LPM feature.
  * @param  hpcd PCD handle
  * @retval HAL status
  */
HAL_StatusTypeDef HAL_PCDEx_ActivateLPM(PCD_HandleTypeDef *hpcd)
{
 80079ae:	4603      	mov	r3, r0
  USB_OTG_GlobalTypeDef *USBx = hpcd->Instance;
 80079b0:	6802      	ldr	r2, [r0, #0]

  hpcd->lpm_active = 1U;
 80079b2:	2101      	movs	r1, #1
 80079b4:	f8c0 13fc 	str.w	r1, [r0, #1020]	; 0x3fc
  hpcd->LPM_State = LPM_L0;
 80079b8:	2000      	movs	r0, #0
 80079ba:	f883 03f4 	strb.w	r0, [r3, #1012]	; 0x3f4
  USBx->GINTMSK |= USB_OTG_GINTMSK_LPMINTM;
 80079be:	6993      	ldr	r3, [r2, #24]
 80079c0:	f043 6300 	orr.w	r3, r3, #134217728	; 0x8000000
 80079c4:	6193      	str	r3, [r2, #24]
  USBx->GLPMCFG |= (USB_OTG_GLPMCFG_LPMEN | USB_OTG_GLPMCFG_LPMACK | USB_OTG_GLPMCFG_ENBESL);
 80079c6:	6d53      	ldr	r3, [r2, #84]	; 0x54
 80079c8:	f043 5380 	orr.w	r3, r3, #268435456	; 0x10000000
 80079cc:	f043 0303 	orr.w	r3, r3, #3
 80079d0:	6553      	str	r3, [r2, #84]	; 0x54

  return HAL_OK;
}
 80079d2:	4770      	bx	lr

080079d4 <HAL_PCDEx_LPM_Callback>:
  UNUSED(msg);

  /* NOTE : This function should not be modified, when the callback is needed,
            the HAL_PCDEx_LPM_Callback could be implemented in the user file
   */
}
 80079d4:	4770      	bx	lr
	...

080079d8 <HAL_PWR_EnableBkUpAccess>:
  *        back-up domain.
  * @retval None
  */
void HAL_PWR_EnableBkUpAccess(void)
{
  SET_BIT(PWR->CR1, PWR_CR1_DBP);
 80079d8:	4a02      	ldr	r2, [pc, #8]	; (80079e4 <HAL_PWR_EnableBkUpAccess+0xc>)
 80079da:	6813      	ldr	r3, [r2, #0]
 80079dc:	f443 7380 	orr.w	r3, r3, #256	; 0x100
 80079e0:	6013      	str	r3, [r2, #0]
}
 80079e2:	4770      	bx	lr
 80079e4:	40007000 	.word	0x40007000

080079e8 <HAL_PWREx_GetVoltageRange>:
    else
    {
      return PWR_REGULATOR_VOLTAGE_SCALE1_BOOST;
    }
#else
  return  (PWR->CR1 & PWR_CR1_VOS);
 80079e8:	4b02      	ldr	r3, [pc, #8]	; (80079f4 <HAL_PWREx_GetVoltageRange+0xc>)
 80079ea:	6818      	ldr	r0, [r3, #0]
#endif
}
 80079ec:	f400 60c0 	and.w	r0, r0, #1536	; 0x600
 80079f0:	4770      	bx	lr
 80079f2:	bf00      	nop
 80079f4:	40007000 	.word	0x40007000

080079f8 <HAL_PWREx_EnableVddUSB>:
  * @note  Remove VDDUSB electrical and logical isolation, once VDDUSB supply is present.
  * @retval None
  */
void HAL_PWREx_EnableVddUSB(void)
{
  SET_BIT(PWR->CR2, PWR_CR2_USV);
 80079f8:	4a02      	ldr	r2, [pc, #8]	; (8007a04 <HAL_PWREx_EnableVddUSB+0xc>)
 80079fa:	6853      	ldr	r3, [r2, #4]
 80079fc:	f443 6380 	orr.w	r3, r3, #1024	; 0x400
 8007a00:	6053      	str	r3, [r2, #4]
}
 8007a02:	4770      	bx	lr
 8007a04:	40007000 	.word	0x40007000

08007a08 <HAL_PWREx_EnableVddIO2>:
  * @note  Remove VDDIO2 electrical and logical isolation, once VDDIO2 supply is present.
  * @retval None
  */
void HAL_PWREx_EnableVddIO2(void)
{
  SET_BIT(PWR->CR2, PWR_CR2_IOSV);
 8007a08:	4a02      	ldr	r2, [pc, #8]	; (8007a14 <HAL_PWREx_EnableVddIO2+0xc>)
 8007a0a:	6853      	ldr	r3, [r2, #4]
 8007a0c:	f443 7300 	orr.w	r3, r3, #512	; 0x200
 8007a10:	6053      	str	r3, [r2, #4]
}
 8007a12:	4770      	bx	lr
 8007a14:	40007000 	.word	0x40007000

08007a18 <RCC_SetFlashLatencyFromMSIRange>:
            voltage range.
  * @param  msirange  MSI range value from RCC_MSIRANGE_0 to RCC_MSIRANGE_11
  * @retval HAL status
  */
static HAL_StatusTypeDef RCC_SetFlashLatencyFromMSIRange(uint32_t msirange)
{
 8007a18:	b530      	push	{r4, r5, lr}
 8007a1a:	b083      	sub	sp, #12
 8007a1c:	4604      	mov	r4, r0
  uint32_t vos;
  uint32_t latency = FLASH_LATENCY_0;  /* default value 0WS */

  if(__HAL_RCC_PWR_IS_CLK_ENABLED())
 8007a1e:	4b20      	ldr	r3, [pc, #128]	; (8007aa0 <RCC_SetFlashLatencyFromMSIRange+0x88>)
 8007a20:	6d9b      	ldr	r3, [r3, #88]	; 0x58
 8007a22:	f013 5f80 	tst.w	r3, #268435456	; 0x10000000
 8007a26:	d00b      	beq.n	8007a40 <RCC_SetFlashLatencyFromMSIRange+0x28>
  {
    vos = HAL_PWREx_GetVoltageRange();
 8007a28:	f7ff ffde 	bl	80079e8 <HAL_PWREx_GetVoltageRange>
    __HAL_RCC_PWR_CLK_ENABLE();
    vos = HAL_PWREx_GetVoltageRange();
    __HAL_RCC_PWR_CLK_DISABLE();
  }

  if(vos == PWR_REGULATOR_VOLTAGE_SCALE1)
 8007a2c:	f5b0 7f00 	cmp.w	r0, #512	; 0x200
 8007a30:	d017      	beq.n	8007a62 <RCC_SetFlashLatencyFromMSIRange+0x4a>
        latency = FLASH_LATENCY_1; /* 1WS */
      }
      /* else MSI < 8Mhz default FLASH_LATENCY_0 0WS */
    }
#else
    if(msirange > RCC_MSIRANGE_8)
 8007a32:	2c80      	cmp	r4, #128	; 0x80
 8007a34:	d81f      	bhi.n	8007a76 <RCC_SetFlashLatencyFromMSIRange+0x5e>
      /* MSI > 16Mhz */
      latency = FLASH_LATENCY_3; /* 3WS */
    }
    else
    {
      if(msirange == RCC_MSIRANGE_8)
 8007a36:	d02d      	beq.n	8007a94 <RCC_SetFlashLatencyFromMSIRange+0x7c>
      {
        /* MSI 16Mhz */
        latency = FLASH_LATENCY_2; /* 2WS */
      }
      else if(msirange == RCC_MSIRANGE_7)
 8007a38:	2c70      	cmp	r4, #112	; 0x70
 8007a3a:	d02d      	beq.n	8007a98 <RCC_SetFlashLatencyFromMSIRange+0x80>
  uint32_t latency = FLASH_LATENCY_0;  /* default value 0WS */
 8007a3c:	2100      	movs	r1, #0
 8007a3e:	e01b      	b.n	8007a78 <RCC_SetFlashLatencyFromMSIRange+0x60>
    __HAL_RCC_PWR_CLK_ENABLE();
 8007a40:	4d17      	ldr	r5, [pc, #92]	; (8007aa0 <RCC_SetFlashLatencyFromMSIRange+0x88>)
 8007a42:	6dab      	ldr	r3, [r5, #88]	; 0x58
 8007a44:	f043 5380 	orr.w	r3, r3, #268435456	; 0x10000000
 8007a48:	65ab      	str	r3, [r5, #88]	; 0x58
 8007a4a:	6dab      	ldr	r3, [r5, #88]	; 0x58
 8007a4c:	f003 5380 	and.w	r3, r3, #268435456	; 0x10000000
 8007a50:	9301      	str	r3, [sp, #4]
 8007a52:	9b01      	ldr	r3, [sp, #4]
    vos = HAL_PWREx_GetVoltageRange();
 8007a54:	f7ff ffc8 	bl	80079e8 <HAL_PWREx_GetVoltageRange>
    __HAL_RCC_PWR_CLK_DISABLE();
 8007a58:	6dab      	ldr	r3, [r5, #88]	; 0x58
 8007a5a:	f023 5380 	bic.w	r3, r3, #268435456	; 0x10000000
 8007a5e:	65ab      	str	r3, [r5, #88]	; 0x58
 8007a60:	e7e4      	b.n	8007a2c <RCC_SetFlashLatencyFromMSIRange+0x14>
    if(msirange > RCC_MSIRANGE_8)
 8007a62:	2c80      	cmp	r4, #128	; 0x80
 8007a64:	d903      	bls.n	8007a6e <RCC_SetFlashLatencyFromMSIRange+0x56>
      if(msirange > RCC_MSIRANGE_10)
 8007a66:	2ca0      	cmp	r4, #160	; 0xa0
 8007a68:	d903      	bls.n	8007a72 <RCC_SetFlashLatencyFromMSIRange+0x5a>
        latency = FLASH_LATENCY_2; /* 2WS */
 8007a6a:	2102      	movs	r1, #2
 8007a6c:	e004      	b.n	8007a78 <RCC_SetFlashLatencyFromMSIRange+0x60>
  uint32_t latency = FLASH_LATENCY_0;  /* default value 0WS */
 8007a6e:	2100      	movs	r1, #0
 8007a70:	e002      	b.n	8007a78 <RCC_SetFlashLatencyFromMSIRange+0x60>
        latency = FLASH_LATENCY_1; /* 1WS */
 8007a72:	2101      	movs	r1, #1
 8007a74:	e000      	b.n	8007a78 <RCC_SetFlashLatencyFromMSIRange+0x60>
      latency = FLASH_LATENCY_3; /* 3WS */
 8007a76:	2103      	movs	r1, #3
      /* else MSI < 8Mhz default FLASH_LATENCY_0 0WS */
    }
#endif
  }

  __HAL_FLASH_SET_LATENCY(latency);
 8007a78:	4a0a      	ldr	r2, [pc, #40]	; (8007aa4 <RCC_SetFlashLatencyFromMSIRange+0x8c>)
 8007a7a:	6813      	ldr	r3, [r2, #0]
 8007a7c:	f023 0307 	bic.w	r3, r3, #7
 8007a80:	430b      	orrs	r3, r1
 8007a82:	6013      	str	r3, [r2, #0]

  /* Check that the new number of wait states is taken into account to access the Flash
     memory by reading the FLASH_ACR register */
  if(__HAL_FLASH_GET_LATENCY() != latency)
 8007a84:	6813      	ldr	r3, [r2, #0]
 8007a86:	f003 0307 	and.w	r3, r3, #7
 8007a8a:	428b      	cmp	r3, r1
 8007a8c:	d106      	bne.n	8007a9c <RCC_SetFlashLatencyFromMSIRange+0x84>
  {
    return HAL_ERROR;
  }

  return HAL_OK;
 8007a8e:	2000      	movs	r0, #0
}
 8007a90:	b003      	add	sp, #12
 8007a92:	bd30      	pop	{r4, r5, pc}
        latency = FLASH_LATENCY_2; /* 2WS */
 8007a94:	2102      	movs	r1, #2
 8007a96:	e7ef      	b.n	8007a78 <RCC_SetFlashLatencyFromMSIRange+0x60>
        latency = FLASH_LATENCY_1; /* 1WS */
 8007a98:	2101      	movs	r1, #1
 8007a9a:	e7ed      	b.n	8007a78 <RCC_SetFlashLatencyFromMSIRange+0x60>
    return HAL_ERROR;
 8007a9c:	2001      	movs	r0, #1
 8007a9e:	e7f7      	b.n	8007a90 <RCC_SetFlashLatencyFromMSIRange+0x78>
 8007aa0:	40021000 	.word	0x40021000
 8007aa4:	40022000 	.word	0x40022000

08007aa8 <HAL_RCC_GetSysClockFreq>:
  sysclk_source = __HAL_RCC_GET_SYSCLK_SOURCE();
 8007aa8:	4a28      	ldr	r2, [pc, #160]	; (8007b4c <HAL_RCC_GetSysClockFreq+0xa4>)
 8007aaa:	6893      	ldr	r3, [r2, #8]
  pll_oscsource = __HAL_RCC_GET_PLL_OSCSOURCE();
 8007aac:	68d2      	ldr	r2, [r2, #12]
 8007aae:	f002 0203 	and.w	r2, r2, #3
  if((sysclk_source == RCC_CFGR_SWS_MSI) ||
 8007ab2:	f013 030c 	ands.w	r3, r3, #12
 8007ab6:	d00a      	beq.n	8007ace <HAL_RCC_GetSysClockFreq+0x26>
 8007ab8:	2b0c      	cmp	r3, #12
 8007aba:	d006      	beq.n	8007aca <HAL_RCC_GetSysClockFreq+0x22>
  else if(sysclk_source == RCC_CFGR_SWS_HSI)
 8007abc:	2b04      	cmp	r3, #4
 8007abe:	d01f      	beq.n	8007b00 <HAL_RCC_GetSysClockFreq+0x58>
  else if(sysclk_source == RCC_CFGR_SWS_HSE)
 8007ac0:	2b08      	cmp	r3, #8
 8007ac2:	d020      	beq.n	8007b06 <HAL_RCC_GetSysClockFreq+0x5e>
  uint32_t msirange = 0U, sysclockfreq = 0U;
 8007ac4:	2000      	movs	r0, #0
 8007ac6:	4602      	mov	r2, r0
 8007ac8:	e010      	b.n	8007aec <HAL_RCC_GetSysClockFreq+0x44>
     ((sysclk_source == RCC_CFGR_SWS_PLL) && (pll_oscsource == RCC_PLLSOURCE_MSI)))
 8007aca:	2a01      	cmp	r2, #1
 8007acc:	d1f6      	bne.n	8007abc <HAL_RCC_GetSysClockFreq+0x14>
    if(READ_BIT(RCC->CR, RCC_CR_MSIRGSEL) == 0U)
 8007ace:	4a1f      	ldr	r2, [pc, #124]	; (8007b4c <HAL_RCC_GetSysClockFreq+0xa4>)
 8007ad0:	6812      	ldr	r2, [r2, #0]
 8007ad2:	f012 0f08 	tst.w	r2, #8
 8007ad6:	d10c      	bne.n	8007af2 <HAL_RCC_GetSysClockFreq+0x4a>
      msirange = READ_BIT(RCC->CSR, RCC_CSR_MSISRANGE) >> RCC_CSR_MSISRANGE_Pos;
 8007ad8:	4a1c      	ldr	r2, [pc, #112]	; (8007b4c <HAL_RCC_GetSysClockFreq+0xa4>)
 8007ada:	f8d2 2094 	ldr.w	r2, [r2, #148]	; 0x94
 8007ade:	f3c2 2203 	ubfx	r2, r2, #8, #4
    msirange = MSIRangeTable[msirange];
 8007ae2:	491b      	ldr	r1, [pc, #108]	; (8007b50 <HAL_RCC_GetSysClockFreq+0xa8>)
 8007ae4:	f851 2022 	ldr.w	r2, [r1, r2, lsl #2]
    if(sysclk_source == RCC_CFGR_SWS_MSI)
 8007ae8:	b143      	cbz	r3, 8007afc <HAL_RCC_GetSysClockFreq+0x54>
  uint32_t msirange = 0U, sysclockfreq = 0U;
 8007aea:	2000      	movs	r0, #0
  if(sysclk_source == RCC_CFGR_SWS_PLL)
 8007aec:	2b0c      	cmp	r3, #12
 8007aee:	d00d      	beq.n	8007b0c <HAL_RCC_GetSysClockFreq+0x64>
}
 8007af0:	4770      	bx	lr
      msirange = READ_BIT(RCC->CR, RCC_CR_MSIRANGE) >> RCC_CR_MSIRANGE_Pos;
 8007af2:	4a16      	ldr	r2, [pc, #88]	; (8007b4c <HAL_RCC_GetSysClockFreq+0xa4>)
 8007af4:	6812      	ldr	r2, [r2, #0]
 8007af6:	f3c2 1203 	ubfx	r2, r2, #4, #4
 8007afa:	e7f2      	b.n	8007ae2 <HAL_RCC_GetSysClockFreq+0x3a>
      sysclockfreq = msirange;
 8007afc:	4610      	mov	r0, r2
 8007afe:	e7f5      	b.n	8007aec <HAL_RCC_GetSysClockFreq+0x44>
    sysclockfreq = HSI_VALUE;
 8007b00:	4814      	ldr	r0, [pc, #80]	; (8007b54 <HAL_RCC_GetSysClockFreq+0xac>)
  uint32_t msirange = 0U, sysclockfreq = 0U;
 8007b02:	2200      	movs	r2, #0
 8007b04:	e7f2      	b.n	8007aec <HAL_RCC_GetSysClockFreq+0x44>
    sysclockfreq = HSE_VALUE;
 8007b06:	4814      	ldr	r0, [pc, #80]	; (8007b58 <HAL_RCC_GetSysClockFreq+0xb0>)
  uint32_t msirange = 0U, sysclockfreq = 0U;
 8007b08:	2200      	movs	r2, #0
 8007b0a:	e7ef      	b.n	8007aec <HAL_RCC_GetSysClockFreq+0x44>
    pllsource = READ_BIT(RCC->PLLCFGR, RCC_PLLCFGR_PLLSRC);
 8007b0c:	4b0f      	ldr	r3, [pc, #60]	; (8007b4c <HAL_RCC_GetSysClockFreq+0xa4>)
 8007b0e:	68db      	ldr	r3, [r3, #12]
 8007b10:	f003 0303 	and.w	r3, r3, #3
    switch (pllsource)
 8007b14:	2b02      	cmp	r3, #2
 8007b16:	d016      	beq.n	8007b46 <HAL_RCC_GetSysClockFreq+0x9e>
 8007b18:	2b03      	cmp	r3, #3
 8007b1a:	d100      	bne.n	8007b1e <HAL_RCC_GetSysClockFreq+0x76>
      pllvco = HSE_VALUE;
 8007b1c:	4a0e      	ldr	r2, [pc, #56]	; (8007b58 <HAL_RCC_GetSysClockFreq+0xb0>)
    pllm = (READ_BIT(RCC->PLLCFGR, RCC_PLLCFGR_PLLM) >> RCC_PLLCFGR_PLLM_Pos) + 1U ;
 8007b1e:	490b      	ldr	r1, [pc, #44]	; (8007b4c <HAL_RCC_GetSysClockFreq+0xa4>)
 8007b20:	68cb      	ldr	r3, [r1, #12]
 8007b22:	f3c3 1302 	ubfx	r3, r3, #4, #3
 8007b26:	3301      	adds	r3, #1
    pllvco = (pllvco * (READ_BIT(RCC->PLLCFGR, RCC_PLLCFGR_PLLN) >> RCC_PLLCFGR_PLLN_Pos)) / pllm;
 8007b28:	68c8      	ldr	r0, [r1, #12]
 8007b2a:	f3c0 2006 	ubfx	r0, r0, #8, #7
 8007b2e:	fb02 f000 	mul.w	r0, r2, r0
 8007b32:	fbb0 f0f3 	udiv	r0, r0, r3
    pllr = ((READ_BIT(RCC->PLLCFGR, RCC_PLLCFGR_PLLR) >> RCC_PLLCFGR_PLLR_Pos) + 1U ) * 2U;
 8007b36:	68cb      	ldr	r3, [r1, #12]
 8007b38:	f3c3 6341 	ubfx	r3, r3, #25, #2
 8007b3c:	3301      	adds	r3, #1
 8007b3e:	005b      	lsls	r3, r3, #1
    sysclockfreq = pllvco / pllr;
 8007b40:	fbb0 f0f3 	udiv	r0, r0, r3
  return sysclockfreq;
 8007b44:	e7d4      	b.n	8007af0 <HAL_RCC_GetSysClockFreq+0x48>
    switch (pllsource)
 8007b46:	4a03      	ldr	r2, [pc, #12]	; (8007b54 <HAL_RCC_GetSysClockFreq+0xac>)
 8007b48:	e7e9      	b.n	8007b1e <HAL_RCC_GetSysClockFreq+0x76>
 8007b4a:	bf00      	nop
 8007b4c:	40021000 	.word	0x40021000
 8007b50:	0800df30 	.word	0x0800df30
 8007b54:	00f42400 	.word	0x00f42400
 8007b58:	007a1200 	.word	0x007a1200

08007b5c <HAL_RCC_OscConfig>:
  if(RCC_OscInitStruct == NULL)
 8007b5c:	2800      	cmp	r0, #0
 8007b5e:	f000 82fc 	beq.w	800815a <HAL_RCC_OscConfig+0x5fe>
{
 8007b62:	b5f0      	push	{r4, r5, r6, r7, lr}
 8007b64:	b083      	sub	sp, #12
 8007b66:	4604      	mov	r4, r0
  sysclk_source = __HAL_RCC_GET_SYSCLK_SOURCE();
 8007b68:	4b96      	ldr	r3, [pc, #600]	; (8007dc4 <HAL_RCC_OscConfig+0x268>)
 8007b6a:	689d      	ldr	r5, [r3, #8]
 8007b6c:	f005 050c 	and.w	r5, r5, #12
  pll_config = __HAL_RCC_GET_PLL_OSCSOURCE();
 8007b70:	68de      	ldr	r6, [r3, #12]
 8007b72:	f006 0603 	and.w	r6, r6, #3
  if(((RCC_OscInitStruct->OscillatorType) & RCC_OSCILLATORTYPE_MSI) == RCC_OSCILLATORTYPE_MSI)
 8007b76:	6803      	ldr	r3, [r0, #0]
 8007b78:	f013 0f10 	tst.w	r3, #16
 8007b7c:	d05a      	beq.n	8007c34 <HAL_RCC_OscConfig+0xd8>
    if((sysclk_source == RCC_CFGR_SWS_MSI) ||
 8007b7e:	b1e5      	cbz	r5, 8007bba <HAL_RCC_OscConfig+0x5e>
 8007b80:	2d0c      	cmp	r5, #12
 8007b82:	d018      	beq.n	8007bb6 <HAL_RCC_OscConfig+0x5a>
      if(RCC_OscInitStruct->MSIState != RCC_MSI_OFF)
 8007b84:	69a3      	ldr	r3, [r4, #24]
 8007b86:	2b00      	cmp	r3, #0
 8007b88:	f000 80bb 	beq.w	8007d02 <HAL_RCC_OscConfig+0x1a6>
        __HAL_RCC_MSI_ENABLE();
 8007b8c:	4a8d      	ldr	r2, [pc, #564]	; (8007dc4 <HAL_RCC_OscConfig+0x268>)
 8007b8e:	6813      	ldr	r3, [r2, #0]
 8007b90:	f043 0301 	orr.w	r3, r3, #1
 8007b94:	6013      	str	r3, [r2, #0]
        tickstart = HAL_GetTick();
 8007b96:	f7fe ffc9 	bl	8006b2c <HAL_GetTick>
 8007b9a:	4607      	mov	r7, r0
        while(READ_BIT(RCC->CR, RCC_CR_MSIRDY) == 0U)
 8007b9c:	4b89      	ldr	r3, [pc, #548]	; (8007dc4 <HAL_RCC_OscConfig+0x268>)
 8007b9e:	681b      	ldr	r3, [r3, #0]
 8007ba0:	f013 0f02 	tst.w	r3, #2
 8007ba4:	f040 809a 	bne.w	8007cdc <HAL_RCC_OscConfig+0x180>
          if((HAL_GetTick() - tickstart) > MSI_TIMEOUT_VALUE)
 8007ba8:	f7fe ffc0 	bl	8006b2c <HAL_GetTick>
 8007bac:	1bc0      	subs	r0, r0, r7
 8007bae:	2802      	cmp	r0, #2
 8007bb0:	d9f4      	bls.n	8007b9c <HAL_RCC_OscConfig+0x40>
            return HAL_TIMEOUT;
 8007bb2:	2003      	movs	r0, #3
 8007bb4:	e2dc      	b.n	8008170 <HAL_RCC_OscConfig+0x614>
       ((sysclk_source == RCC_CFGR_SWS_PLL) && (pll_config == RCC_PLLSOURCE_MSI)))
 8007bb6:	2e01      	cmp	r6, #1
 8007bb8:	d1e4      	bne.n	8007b84 <HAL_RCC_OscConfig+0x28>
      if((READ_BIT(RCC->CR, RCC_CR_MSIRDY) != 0U) && (RCC_OscInitStruct->MSIState == RCC_MSI_OFF))
 8007bba:	4b82      	ldr	r3, [pc, #520]	; (8007dc4 <HAL_RCC_OscConfig+0x268>)
 8007bbc:	681b      	ldr	r3, [r3, #0]
 8007bbe:	f013 0f02 	tst.w	r3, #2
 8007bc2:	d003      	beq.n	8007bcc <HAL_RCC_OscConfig+0x70>
 8007bc4:	69a3      	ldr	r3, [r4, #24]
 8007bc6:	2b00      	cmp	r3, #0
 8007bc8:	f000 82c9 	beq.w	800815e <HAL_RCC_OscConfig+0x602>
        if(RCC_OscInitStruct->MSIClockRange > __HAL_RCC_GET_MSI_RANGE())
 8007bcc:	6a20      	ldr	r0, [r4, #32]
 8007bce:	4b7d      	ldr	r3, [pc, #500]	; (8007dc4 <HAL_RCC_OscConfig+0x268>)
 8007bd0:	681b      	ldr	r3, [r3, #0]
 8007bd2:	f013 0f08 	tst.w	r3, #8
 8007bd6:	d05b      	beq.n	8007c90 <HAL_RCC_OscConfig+0x134>
 8007bd8:	4b7a      	ldr	r3, [pc, #488]	; (8007dc4 <HAL_RCC_OscConfig+0x268>)
 8007bda:	681b      	ldr	r3, [r3, #0]
 8007bdc:	f003 03f0 	and.w	r3, r3, #240	; 0xf0
 8007be0:	4298      	cmp	r0, r3
 8007be2:	d85c      	bhi.n	8007c9e <HAL_RCC_OscConfig+0x142>
          __HAL_RCC_MSI_RANGE_CONFIG(RCC_OscInitStruct->MSIClockRange);
 8007be4:	4b77      	ldr	r3, [pc, #476]	; (8007dc4 <HAL_RCC_OscConfig+0x268>)
 8007be6:	681a      	ldr	r2, [r3, #0]
 8007be8:	f042 0208 	orr.w	r2, r2, #8
 8007bec:	601a      	str	r2, [r3, #0]
 8007bee:	681a      	ldr	r2, [r3, #0]
 8007bf0:	f022 02f0 	bic.w	r2, r2, #240	; 0xf0
 8007bf4:	6a21      	ldr	r1, [r4, #32]
 8007bf6:	430a      	orrs	r2, r1
 8007bf8:	601a      	str	r2, [r3, #0]
          __HAL_RCC_MSI_CALIBRATIONVALUE_ADJUST(RCC_OscInitStruct->MSICalibrationValue);
 8007bfa:	685a      	ldr	r2, [r3, #4]
 8007bfc:	f422 427f 	bic.w	r2, r2, #65280	; 0xff00
 8007c00:	69e1      	ldr	r1, [r4, #28]
 8007c02:	ea42 2201 	orr.w	r2, r2, r1, lsl #8
 8007c06:	605a      	str	r2, [r3, #4]
          if(sysclk_source == RCC_CFGR_SWS_MSI)
 8007c08:	2d00      	cmp	r5, #0
 8007c0a:	d060      	beq.n	8007cce <HAL_RCC_OscConfig+0x172>
        SystemCoreClock = HAL_RCC_GetSysClockFreq() >> (AHBPrescTable[READ_BIT(RCC->CFGR, RCC_CFGR_HPRE) >> RCC_CFGR_HPRE_Pos] & 0x1FU);
 8007c0c:	f7ff ff4c 	bl	8007aa8 <HAL_RCC_GetSysClockFreq>
 8007c10:	4b6c      	ldr	r3, [pc, #432]	; (8007dc4 <HAL_RCC_OscConfig+0x268>)
 8007c12:	689b      	ldr	r3, [r3, #8]
 8007c14:	f3c3 1303 	ubfx	r3, r3, #4, #4
 8007c18:	4a6b      	ldr	r2, [pc, #428]	; (8007dc8 <HAL_RCC_OscConfig+0x26c>)
 8007c1a:	5cd3      	ldrb	r3, [r2, r3]
 8007c1c:	f003 031f 	and.w	r3, r3, #31
 8007c20:	40d8      	lsrs	r0, r3
 8007c22:	4b6a      	ldr	r3, [pc, #424]	; (8007dcc <HAL_RCC_OscConfig+0x270>)
 8007c24:	6018      	str	r0, [r3, #0]
        status = HAL_InitTick(uwTickPrio);
 8007c26:	4b6a      	ldr	r3, [pc, #424]	; (8007dd0 <HAL_RCC_OscConfig+0x274>)
 8007c28:	6818      	ldr	r0, [r3, #0]
 8007c2a:	f7fe ff3d 	bl	8006aa8 <HAL_InitTick>
        if(status != HAL_OK)
 8007c2e:	2800      	cmp	r0, #0
 8007c30:	f040 829e 	bne.w	8008170 <HAL_RCC_OscConfig+0x614>
  if(((RCC_OscInitStruct->OscillatorType) & RCC_OSCILLATORTYPE_HSE) == RCC_OSCILLATORTYPE_HSE)
 8007c34:	6823      	ldr	r3, [r4, #0]
 8007c36:	f013 0f01 	tst.w	r3, #1
 8007c3a:	f000 8081 	beq.w	8007d40 <HAL_RCC_OscConfig+0x1e4>
    if((sysclk_source == RCC_CFGR_SWS_HSE) ||
 8007c3e:	2d08      	cmp	r5, #8
 8007c40:	d075      	beq.n	8007d2e <HAL_RCC_OscConfig+0x1d2>
 8007c42:	2d0c      	cmp	r5, #12
 8007c44:	d071      	beq.n	8007d2a <HAL_RCC_OscConfig+0x1ce>
      __HAL_RCC_HSE_CONFIG(RCC_OscInitStruct->HSEState);
 8007c46:	6863      	ldr	r3, [r4, #4]
 8007c48:	f5b3 3f80 	cmp.w	r3, #65536	; 0x10000
 8007c4c:	f000 8097 	beq.w	8007d7e <HAL_RCC_OscConfig+0x222>
 8007c50:	f5b3 2fa0 	cmp.w	r3, #327680	; 0x50000
 8007c54:	f000 8099 	beq.w	8007d8a <HAL_RCC_OscConfig+0x22e>
 8007c58:	4b5a      	ldr	r3, [pc, #360]	; (8007dc4 <HAL_RCC_OscConfig+0x268>)
 8007c5a:	681a      	ldr	r2, [r3, #0]
 8007c5c:	f422 3280 	bic.w	r2, r2, #65536	; 0x10000
 8007c60:	601a      	str	r2, [r3, #0]
 8007c62:	681a      	ldr	r2, [r3, #0]
 8007c64:	f422 2280 	bic.w	r2, r2, #262144	; 0x40000
 8007c68:	601a      	str	r2, [r3, #0]
      if(RCC_OscInitStruct->HSEState != RCC_HSE_OFF)
 8007c6a:	6863      	ldr	r3, [r4, #4]
 8007c6c:	2b00      	cmp	r3, #0
 8007c6e:	f000 8099 	beq.w	8007da4 <HAL_RCC_OscConfig+0x248>
        tickstart = HAL_GetTick();
 8007c72:	f7fe ff5b 	bl	8006b2c <HAL_GetTick>
 8007c76:	4607      	mov	r7, r0
        while(READ_BIT(RCC->CR, RCC_CR_HSERDY) == 0U)
 8007c78:	4b52      	ldr	r3, [pc, #328]	; (8007dc4 <HAL_RCC_OscConfig+0x268>)
 8007c7a:	681b      	ldr	r3, [r3, #0]
 8007c7c:	f413 3f00 	tst.w	r3, #131072	; 0x20000
 8007c80:	d15e      	bne.n	8007d40 <HAL_RCC_OscConfig+0x1e4>
          if((HAL_GetTick() - tickstart) > HSE_TIMEOUT_VALUE)
 8007c82:	f7fe ff53 	bl	8006b2c <HAL_GetTick>
 8007c86:	1bc0      	subs	r0, r0, r7
 8007c88:	2864      	cmp	r0, #100	; 0x64
 8007c8a:	d9f5      	bls.n	8007c78 <HAL_RCC_OscConfig+0x11c>
            return HAL_TIMEOUT;
 8007c8c:	2003      	movs	r0, #3
 8007c8e:	e26f      	b.n	8008170 <HAL_RCC_OscConfig+0x614>
        if(RCC_OscInitStruct->MSIClockRange > __HAL_RCC_GET_MSI_RANGE())
 8007c90:	4b4c      	ldr	r3, [pc, #304]	; (8007dc4 <HAL_RCC_OscConfig+0x268>)
 8007c92:	f8d3 3094 	ldr.w	r3, [r3, #148]	; 0x94
 8007c96:	091b      	lsrs	r3, r3, #4
 8007c98:	f003 03f0 	and.w	r3, r3, #240	; 0xf0
 8007c9c:	e7a0      	b.n	8007be0 <HAL_RCC_OscConfig+0x84>
          if(RCC_SetFlashLatencyFromMSIRange(RCC_OscInitStruct->MSIClockRange) != HAL_OK)
 8007c9e:	f7ff febb 	bl	8007a18 <RCC_SetFlashLatencyFromMSIRange>
 8007ca2:	2800      	cmp	r0, #0
 8007ca4:	f040 825d 	bne.w	8008162 <HAL_RCC_OscConfig+0x606>
          __HAL_RCC_MSI_RANGE_CONFIG(RCC_OscInitStruct->MSIClockRange);
 8007ca8:	4b46      	ldr	r3, [pc, #280]	; (8007dc4 <HAL_RCC_OscConfig+0x268>)
 8007caa:	681a      	ldr	r2, [r3, #0]
 8007cac:	f042 0208 	orr.w	r2, r2, #8
 8007cb0:	601a      	str	r2, [r3, #0]
 8007cb2:	681a      	ldr	r2, [r3, #0]
 8007cb4:	f022 02f0 	bic.w	r2, r2, #240	; 0xf0
 8007cb8:	6a21      	ldr	r1, [r4, #32]
 8007cba:	430a      	orrs	r2, r1
 8007cbc:	601a      	str	r2, [r3, #0]
          __HAL_RCC_MSI_CALIBRATIONVALUE_ADJUST(RCC_OscInitStruct->MSICalibrationValue);
 8007cbe:	685a      	ldr	r2, [r3, #4]
 8007cc0:	f422 427f 	bic.w	r2, r2, #65280	; 0xff00
 8007cc4:	69e1      	ldr	r1, [r4, #28]
 8007cc6:	ea42 2201 	orr.w	r2, r2, r1, lsl #8
 8007cca:	605a      	str	r2, [r3, #4]
 8007ccc:	e79e      	b.n	8007c0c <HAL_RCC_OscConfig+0xb0>
            if(RCC_SetFlashLatencyFromMSIRange(RCC_OscInitStruct->MSIClockRange) != HAL_OK)
 8007cce:	6a20      	ldr	r0, [r4, #32]
 8007cd0:	f7ff fea2 	bl	8007a18 <RCC_SetFlashLatencyFromMSIRange>
 8007cd4:	2800      	cmp	r0, #0
 8007cd6:	d099      	beq.n	8007c0c <HAL_RCC_OscConfig+0xb0>
              return HAL_ERROR;
 8007cd8:	2001      	movs	r0, #1
 8007cda:	e249      	b.n	8008170 <HAL_RCC_OscConfig+0x614>
        __HAL_RCC_MSI_RANGE_CONFIG(RCC_OscInitStruct->MSIClockRange);
 8007cdc:	4b39      	ldr	r3, [pc, #228]	; (8007dc4 <HAL_RCC_OscConfig+0x268>)
 8007cde:	681a      	ldr	r2, [r3, #0]
 8007ce0:	f042 0208 	orr.w	r2, r2, #8
 8007ce4:	601a      	str	r2, [r3, #0]
 8007ce6:	681a      	ldr	r2, [r3, #0]
 8007ce8:	f022 02f0 	bic.w	r2, r2, #240	; 0xf0
 8007cec:	6a21      	ldr	r1, [r4, #32]
 8007cee:	430a      	orrs	r2, r1
 8007cf0:	601a      	str	r2, [r3, #0]
        __HAL_RCC_MSI_CALIBRATIONVALUE_ADJUST(RCC_OscInitStruct->MSICalibrationValue);
 8007cf2:	685a      	ldr	r2, [r3, #4]
 8007cf4:	f422 427f 	bic.w	r2, r2, #65280	; 0xff00
 8007cf8:	69e1      	ldr	r1, [r4, #28]
 8007cfa:	ea42 2201 	orr.w	r2, r2, r1, lsl #8
 8007cfe:	605a      	str	r2, [r3, #4]
 8007d00:	e798      	b.n	8007c34 <HAL_RCC_OscConfig+0xd8>
        __HAL_RCC_MSI_DISABLE();
 8007d02:	4a30      	ldr	r2, [pc, #192]	; (8007dc4 <HAL_RCC_OscConfig+0x268>)
 8007d04:	6813      	ldr	r3, [r2, #0]
 8007d06:	f023 0301 	bic.w	r3, r3, #1
 8007d0a:	6013      	str	r3, [r2, #0]
        tickstart = HAL_GetTick();
 8007d0c:	f7fe ff0e 	bl	8006b2c <HAL_GetTick>
 8007d10:	4607      	mov	r7, r0
        while(READ_BIT(RCC->CR, RCC_CR_MSIRDY) != 0U)
 8007d12:	4b2c      	ldr	r3, [pc, #176]	; (8007dc4 <HAL_RCC_OscConfig+0x268>)
 8007d14:	681b      	ldr	r3, [r3, #0]
 8007d16:	f013 0f02 	tst.w	r3, #2
 8007d1a:	d08b      	beq.n	8007c34 <HAL_RCC_OscConfig+0xd8>
          if((HAL_GetTick() - tickstart) > MSI_TIMEOUT_VALUE)
 8007d1c:	f7fe ff06 	bl	8006b2c <HAL_GetTick>
 8007d20:	1bc0      	subs	r0, r0, r7
 8007d22:	2802      	cmp	r0, #2
 8007d24:	d9f5      	bls.n	8007d12 <HAL_RCC_OscConfig+0x1b6>
            return HAL_TIMEOUT;
 8007d26:	2003      	movs	r0, #3
 8007d28:	e222      	b.n	8008170 <HAL_RCC_OscConfig+0x614>
       ((sysclk_source == RCC_CFGR_SWS_PLL) && (pll_config == RCC_PLLSOURCE_HSE)))
 8007d2a:	2e03      	cmp	r6, #3
 8007d2c:	d18b      	bne.n	8007c46 <HAL_RCC_OscConfig+0xea>
      if((READ_BIT(RCC->CR, RCC_CR_HSERDY) != 0U) && (RCC_OscInitStruct->HSEState == RCC_HSE_OFF))
 8007d2e:	4b25      	ldr	r3, [pc, #148]	; (8007dc4 <HAL_RCC_OscConfig+0x268>)
 8007d30:	681b      	ldr	r3, [r3, #0]
 8007d32:	f413 3f00 	tst.w	r3, #131072	; 0x20000
 8007d36:	d003      	beq.n	8007d40 <HAL_RCC_OscConfig+0x1e4>
 8007d38:	6863      	ldr	r3, [r4, #4]
 8007d3a:	2b00      	cmp	r3, #0
 8007d3c:	f000 8213 	beq.w	8008166 <HAL_RCC_OscConfig+0x60a>
  if(((RCC_OscInitStruct->OscillatorType) & RCC_OSCILLATORTYPE_HSI) == RCC_OSCILLATORTYPE_HSI)
 8007d40:	6823      	ldr	r3, [r4, #0]
 8007d42:	f013 0f02 	tst.w	r3, #2
 8007d46:	d058      	beq.n	8007dfa <HAL_RCC_OscConfig+0x29e>
    if((sysclk_source == RCC_CFGR_SWS_HSI) ||
 8007d48:	2d04      	cmp	r5, #4
 8007d4a:	d045      	beq.n	8007dd8 <HAL_RCC_OscConfig+0x27c>
 8007d4c:	2d0c      	cmp	r5, #12
 8007d4e:	d041      	beq.n	8007dd4 <HAL_RCC_OscConfig+0x278>
      if(RCC_OscInitStruct->HSIState != RCC_HSI_OFF)
 8007d50:	68e3      	ldr	r3, [r4, #12]
 8007d52:	2b00      	cmp	r3, #0
 8007d54:	d077      	beq.n	8007e46 <HAL_RCC_OscConfig+0x2ea>
        __HAL_RCC_HSI_ENABLE();
 8007d56:	4a1b      	ldr	r2, [pc, #108]	; (8007dc4 <HAL_RCC_OscConfig+0x268>)
 8007d58:	6813      	ldr	r3, [r2, #0]
 8007d5a:	f443 7380 	orr.w	r3, r3, #256	; 0x100
 8007d5e:	6013      	str	r3, [r2, #0]
        tickstart = HAL_GetTick();
 8007d60:	f7fe fee4 	bl	8006b2c <HAL_GetTick>
 8007d64:	4606      	mov	r6, r0
        while(READ_BIT(RCC->CR, RCC_CR_HSIRDY) == 0U)
 8007d66:	4b17      	ldr	r3, [pc, #92]	; (8007dc4 <HAL_RCC_OscConfig+0x268>)
 8007d68:	681b      	ldr	r3, [r3, #0]
 8007d6a:	f413 6f80 	tst.w	r3, #1024	; 0x400
 8007d6e:	d161      	bne.n	8007e34 <HAL_RCC_OscConfig+0x2d8>
          if((HAL_GetTick() - tickstart) > HSI_TIMEOUT_VALUE)
 8007d70:	f7fe fedc 	bl	8006b2c <HAL_GetTick>
 8007d74:	1b80      	subs	r0, r0, r6
 8007d76:	2802      	cmp	r0, #2
 8007d78:	d9f5      	bls.n	8007d66 <HAL_RCC_OscConfig+0x20a>
            return HAL_TIMEOUT;
 8007d7a:	2003      	movs	r0, #3
 8007d7c:	e1f8      	b.n	8008170 <HAL_RCC_OscConfig+0x614>
      __HAL_RCC_HSE_CONFIG(RCC_OscInitStruct->HSEState);
 8007d7e:	4a11      	ldr	r2, [pc, #68]	; (8007dc4 <HAL_RCC_OscConfig+0x268>)
 8007d80:	6813      	ldr	r3, [r2, #0]
 8007d82:	f443 3380 	orr.w	r3, r3, #65536	; 0x10000
 8007d86:	6013      	str	r3, [r2, #0]
 8007d88:	e76f      	b.n	8007c6a <HAL_RCC_OscConfig+0x10e>
 8007d8a:	f103 4380 	add.w	r3, r3, #1073741824	; 0x40000000
 8007d8e:	f5a3 333c 	sub.w	r3, r3, #192512	; 0x2f000
 8007d92:	681a      	ldr	r2, [r3, #0]
 8007d94:	f442 2280 	orr.w	r2, r2, #262144	; 0x40000
 8007d98:	601a      	str	r2, [r3, #0]
 8007d9a:	681a      	ldr	r2, [r3, #0]
 8007d9c:	f442 3280 	orr.w	r2, r2, #65536	; 0x10000
 8007da0:	601a      	str	r2, [r3, #0]
 8007da2:	e762      	b.n	8007c6a <HAL_RCC_OscConfig+0x10e>
        tickstart = HAL_GetTick();
 8007da4:	f7fe fec2 	bl	8006b2c <HAL_GetTick>
 8007da8:	4607      	mov	r7, r0
        while(READ_BIT(RCC->CR, RCC_CR_HSERDY) != 0U)
 8007daa:	4b06      	ldr	r3, [pc, #24]	; (8007dc4 <HAL_RCC_OscConfig+0x268>)
 8007dac:	681b      	ldr	r3, [r3, #0]
 8007dae:	f413 3f00 	tst.w	r3, #131072	; 0x20000
 8007db2:	d0c5      	beq.n	8007d40 <HAL_RCC_OscConfig+0x1e4>
          if((HAL_GetTick() - tickstart) > HSE_TIMEOUT_VALUE)
 8007db4:	f7fe feba 	bl	8006b2c <HAL_GetTick>
 8007db8:	1bc0      	subs	r0, r0, r7
 8007dba:	2864      	cmp	r0, #100	; 0x64
 8007dbc:	d9f5      	bls.n	8007daa <HAL_RCC_OscConfig+0x24e>
            return HAL_TIMEOUT;
 8007dbe:	2003      	movs	r0, #3
 8007dc0:	e1d6      	b.n	8008170 <HAL_RCC_OscConfig+0x614>
 8007dc2:	bf00      	nop
 8007dc4:	40021000 	.word	0x40021000
 8007dc8:	0800df60 	.word	0x0800df60
 8007dcc:	2000007c 	.word	0x2000007c
 8007dd0:	20000084 	.word	0x20000084
       ((sysclk_source == RCC_CFGR_SWS_PLL) && (pll_config == RCC_PLLSOURCE_HSI)))
 8007dd4:	2e02      	cmp	r6, #2
 8007dd6:	d1bb      	bne.n	8007d50 <HAL_RCC_OscConfig+0x1f4>
      if((READ_BIT(RCC->CR, RCC_CR_HSIRDY) != 0U) && (RCC_OscInitStruct->HSIState == RCC_HSI_OFF))
 8007dd8:	4b95      	ldr	r3, [pc, #596]	; (8008030 <HAL_RCC_OscConfig+0x4d4>)
 8007dda:	681b      	ldr	r3, [r3, #0]
 8007ddc:	f413 6f80 	tst.w	r3, #1024	; 0x400
 8007de0:	d003      	beq.n	8007dea <HAL_RCC_OscConfig+0x28e>
 8007de2:	68e3      	ldr	r3, [r4, #12]
 8007de4:	2b00      	cmp	r3, #0
 8007de6:	f000 81c0 	beq.w	800816a <HAL_RCC_OscConfig+0x60e>
        __HAL_RCC_HSI_CALIBRATIONVALUE_ADJUST(RCC_OscInitStruct->HSICalibrationValue);
 8007dea:	4a91      	ldr	r2, [pc, #580]	; (8008030 <HAL_RCC_OscConfig+0x4d4>)
 8007dec:	6853      	ldr	r3, [r2, #4]
 8007dee:	f023 53f8 	bic.w	r3, r3, #520093696	; 0x1f000000
 8007df2:	6921      	ldr	r1, [r4, #16]
 8007df4:	ea43 6301 	orr.w	r3, r3, r1, lsl #24
 8007df8:	6053      	str	r3, [r2, #4]
  if(((RCC_OscInitStruct->OscillatorType) & RCC_OSCILLATORTYPE_LSI) == RCC_OSCILLATORTYPE_LSI)
 8007dfa:	6823      	ldr	r3, [r4, #0]
 8007dfc:	f013 0f08 	tst.w	r3, #8
 8007e00:	d04c      	beq.n	8007e9c <HAL_RCC_OscConfig+0x340>
    if(RCC_OscInitStruct->LSIState != RCC_LSI_OFF)
 8007e02:	6963      	ldr	r3, [r4, #20]
 8007e04:	b39b      	cbz	r3, 8007e6e <HAL_RCC_OscConfig+0x312>
      __HAL_RCC_LSI_ENABLE();
 8007e06:	4a8a      	ldr	r2, [pc, #552]	; (8008030 <HAL_RCC_OscConfig+0x4d4>)
 8007e08:	f8d2 3094 	ldr.w	r3, [r2, #148]	; 0x94
 8007e0c:	f043 0301 	orr.w	r3, r3, #1
 8007e10:	f8c2 3094 	str.w	r3, [r2, #148]	; 0x94
      tickstart = HAL_GetTick();
 8007e14:	f7fe fe8a 	bl	8006b2c <HAL_GetTick>
 8007e18:	4606      	mov	r6, r0
      while(READ_BIT(RCC->CSR, RCC_CSR_LSIRDY) == 0U)
 8007e1a:	4b85      	ldr	r3, [pc, #532]	; (8008030 <HAL_RCC_OscConfig+0x4d4>)
 8007e1c:	f8d3 3094 	ldr.w	r3, [r3, #148]	; 0x94
 8007e20:	f013 0f02 	tst.w	r3, #2
 8007e24:	d13a      	bne.n	8007e9c <HAL_RCC_OscConfig+0x340>
        if((HAL_GetTick() - tickstart) > LSI_TIMEOUT_VALUE)
 8007e26:	f7fe fe81 	bl	8006b2c <HAL_GetTick>
 8007e2a:	1b80      	subs	r0, r0, r6
 8007e2c:	2802      	cmp	r0, #2
 8007e2e:	d9f4      	bls.n	8007e1a <HAL_RCC_OscConfig+0x2be>
          return HAL_TIMEOUT;
 8007e30:	2003      	movs	r0, #3
 8007e32:	e19d      	b.n	8008170 <HAL_RCC_OscConfig+0x614>
        __HAL_RCC_HSI_CALIBRATIONVALUE_ADJUST(RCC_OscInitStruct->HSICalibrationValue);
 8007e34:	4a7e      	ldr	r2, [pc, #504]	; (8008030 <HAL_RCC_OscConfig+0x4d4>)
 8007e36:	6853      	ldr	r3, [r2, #4]
 8007e38:	f023 53f8 	bic.w	r3, r3, #520093696	; 0x1f000000
 8007e3c:	6921      	ldr	r1, [r4, #16]
 8007e3e:	ea43 6301 	orr.w	r3, r3, r1, lsl #24
 8007e42:	6053      	str	r3, [r2, #4]
 8007e44:	e7d9      	b.n	8007dfa <HAL_RCC_OscConfig+0x29e>
        __HAL_RCC_HSI_DISABLE();
 8007e46:	4a7a      	ldr	r2, [pc, #488]	; (8008030 <HAL_RCC_OscConfig+0x4d4>)
 8007e48:	6813      	ldr	r3, [r2, #0]
 8007e4a:	f423 7380 	bic.w	r3, r3, #256	; 0x100
 8007e4e:	6013      	str	r3, [r2, #0]
        tickstart = HAL_GetTick();
 8007e50:	f7fe fe6c 	bl	8006b2c <HAL_GetTick>
 8007e54:	4606      	mov	r6, r0
        while(READ_BIT(RCC->CR, RCC_CR_HSIRDY) != 0U)
 8007e56:	4b76      	ldr	r3, [pc, #472]	; (8008030 <HAL_RCC_OscConfig+0x4d4>)
 8007e58:	681b      	ldr	r3, [r3, #0]
 8007e5a:	f413 6f80 	tst.w	r3, #1024	; 0x400
 8007e5e:	d0cc      	beq.n	8007dfa <HAL_RCC_OscConfig+0x29e>
          if((HAL_GetTick() - tickstart) > HSI_TIMEOUT_VALUE)
 8007e60:	f7fe fe64 	bl	8006b2c <HAL_GetTick>
 8007e64:	1b80      	subs	r0, r0, r6
 8007e66:	2802      	cmp	r0, #2
 8007e68:	d9f5      	bls.n	8007e56 <HAL_RCC_OscConfig+0x2fa>
            return HAL_TIMEOUT;
 8007e6a:	2003      	movs	r0, #3
 8007e6c:	e180      	b.n	8008170 <HAL_RCC_OscConfig+0x614>
      __HAL_RCC_LSI_DISABLE();
 8007e6e:	4a70      	ldr	r2, [pc, #448]	; (8008030 <HAL_RCC_OscConfig+0x4d4>)
 8007e70:	f8d2 3094 	ldr.w	r3, [r2, #148]	; 0x94
 8007e74:	f023 0301 	bic.w	r3, r3, #1
 8007e78:	f8c2 3094 	str.w	r3, [r2, #148]	; 0x94
      tickstart = HAL_GetTick();
 8007e7c:	f7fe fe56 	bl	8006b2c <HAL_GetTick>
 8007e80:	4606      	mov	r6, r0
      while(READ_BIT(RCC->CSR, RCC_CSR_LSIRDY) != 0U)
 8007e82:	4b6b      	ldr	r3, [pc, #428]	; (8008030 <HAL_RCC_OscConfig+0x4d4>)
 8007e84:	f8d3 3094 	ldr.w	r3, [r3, #148]	; 0x94
 8007e88:	f013 0f02 	tst.w	r3, #2
 8007e8c:	d006      	beq.n	8007e9c <HAL_RCC_OscConfig+0x340>
        if((HAL_GetTick() - tickstart) > LSI_TIMEOUT_VALUE)
 8007e8e:	f7fe fe4d 	bl	8006b2c <HAL_GetTick>
 8007e92:	1b80      	subs	r0, r0, r6
 8007e94:	2802      	cmp	r0, #2
 8007e96:	d9f4      	bls.n	8007e82 <HAL_RCC_OscConfig+0x326>
          return HAL_TIMEOUT;
 8007e98:	2003      	movs	r0, #3
 8007e9a:	e169      	b.n	8008170 <HAL_RCC_OscConfig+0x614>
  if(((RCC_OscInitStruct->OscillatorType) & RCC_OSCILLATORTYPE_LSE) == RCC_OSCILLATORTYPE_LSE)
 8007e9c:	6823      	ldr	r3, [r4, #0]
 8007e9e:	f013 0f04 	tst.w	r3, #4
 8007ea2:	d07a      	beq.n	8007f9a <HAL_RCC_OscConfig+0x43e>
    if(HAL_IS_BIT_CLR(RCC->APB1ENR1, RCC_APB1ENR1_PWREN))
 8007ea4:	4b62      	ldr	r3, [pc, #392]	; (8008030 <HAL_RCC_OscConfig+0x4d4>)
 8007ea6:	6d9b      	ldr	r3, [r3, #88]	; 0x58
 8007ea8:	f013 5f80 	tst.w	r3, #268435456	; 0x10000000
 8007eac:	d136      	bne.n	8007f1c <HAL_RCC_OscConfig+0x3c0>
      __HAL_RCC_PWR_CLK_ENABLE();
 8007eae:	4b60      	ldr	r3, [pc, #384]	; (8008030 <HAL_RCC_OscConfig+0x4d4>)
 8007eb0:	6d9a      	ldr	r2, [r3, #88]	; 0x58
 8007eb2:	f042 5280 	orr.w	r2, r2, #268435456	; 0x10000000
 8007eb6:	659a      	str	r2, [r3, #88]	; 0x58
 8007eb8:	6d9b      	ldr	r3, [r3, #88]	; 0x58
 8007eba:	f003 5380 	and.w	r3, r3, #268435456	; 0x10000000
 8007ebe:	9301      	str	r3, [sp, #4]
 8007ec0:	9b01      	ldr	r3, [sp, #4]
      pwrclkchanged = SET;
 8007ec2:	2601      	movs	r6, #1
    if(HAL_IS_BIT_CLR(PWR->CR1, PWR_CR1_DBP))
 8007ec4:	4b5b      	ldr	r3, [pc, #364]	; (8008034 <HAL_RCC_OscConfig+0x4d8>)
 8007ec6:	681b      	ldr	r3, [r3, #0]
 8007ec8:	f413 7f80 	tst.w	r3, #256	; 0x100
 8007ecc:	d028      	beq.n	8007f20 <HAL_RCC_OscConfig+0x3c4>
    __HAL_RCC_LSE_CONFIG(RCC_OscInitStruct->LSEState);
 8007ece:	68a3      	ldr	r3, [r4, #8]
 8007ed0:	2b01      	cmp	r3, #1
 8007ed2:	d039      	beq.n	8007f48 <HAL_RCC_OscConfig+0x3ec>
 8007ed4:	2b05      	cmp	r3, #5
 8007ed6:	d03f      	beq.n	8007f58 <HAL_RCC_OscConfig+0x3fc>
 8007ed8:	4b55      	ldr	r3, [pc, #340]	; (8008030 <HAL_RCC_OscConfig+0x4d4>)
 8007eda:	f8d3 2090 	ldr.w	r2, [r3, #144]	; 0x90
 8007ede:	f022 0201 	bic.w	r2, r2, #1
 8007ee2:	f8c3 2090 	str.w	r2, [r3, #144]	; 0x90
 8007ee6:	f8d3 2090 	ldr.w	r2, [r3, #144]	; 0x90
 8007eea:	f022 0204 	bic.w	r2, r2, #4
 8007eee:	f8c3 2090 	str.w	r2, [r3, #144]	; 0x90
    if(RCC_OscInitStruct->LSEState != RCC_LSE_OFF)
 8007ef2:	68a3      	ldr	r3, [r4, #8]
 8007ef4:	2b00      	cmp	r3, #0
 8007ef6:	d03d      	beq.n	8007f74 <HAL_RCC_OscConfig+0x418>
      tickstart = HAL_GetTick();
 8007ef8:	f7fe fe18 	bl	8006b2c <HAL_GetTick>
 8007efc:	4607      	mov	r7, r0
      while(READ_BIT(RCC->BDCR, RCC_BDCR_LSERDY) == 0U)
 8007efe:	4b4c      	ldr	r3, [pc, #304]	; (8008030 <HAL_RCC_OscConfig+0x4d4>)
 8007f00:	f8d3 3090 	ldr.w	r3, [r3, #144]	; 0x90
 8007f04:	f013 0f02 	tst.w	r3, #2
 8007f08:	d146      	bne.n	8007f98 <HAL_RCC_OscConfig+0x43c>
        if((HAL_GetTick() - tickstart) > RCC_LSE_TIMEOUT_VALUE)
 8007f0a:	f7fe fe0f 	bl	8006b2c <HAL_GetTick>
 8007f0e:	1bc0      	subs	r0, r0, r7
 8007f10:	f241 3388 	movw	r3, #5000	; 0x1388
 8007f14:	4298      	cmp	r0, r3
 8007f16:	d9f2      	bls.n	8007efe <HAL_RCC_OscConfig+0x3a2>
          return HAL_TIMEOUT;
 8007f18:	2003      	movs	r0, #3
 8007f1a:	e129      	b.n	8008170 <HAL_RCC_OscConfig+0x614>
    FlagStatus       pwrclkchanged = RESET;
 8007f1c:	2600      	movs	r6, #0
 8007f1e:	e7d1      	b.n	8007ec4 <HAL_RCC_OscConfig+0x368>
      SET_BIT(PWR->CR1, PWR_CR1_DBP);
 8007f20:	4a44      	ldr	r2, [pc, #272]	; (8008034 <HAL_RCC_OscConfig+0x4d8>)
 8007f22:	6813      	ldr	r3, [r2, #0]
 8007f24:	f443 7380 	orr.w	r3, r3, #256	; 0x100
 8007f28:	6013      	str	r3, [r2, #0]
      tickstart = HAL_GetTick();
 8007f2a:	f7fe fdff 	bl	8006b2c <HAL_GetTick>
 8007f2e:	4607      	mov	r7, r0
      while(HAL_IS_BIT_CLR(PWR->CR1, PWR_CR1_DBP))
 8007f30:	4b40      	ldr	r3, [pc, #256]	; (8008034 <HAL_RCC_OscConfig+0x4d8>)
 8007f32:	681b      	ldr	r3, [r3, #0]
 8007f34:	f413 7f80 	tst.w	r3, #256	; 0x100
 8007f38:	d1c9      	bne.n	8007ece <HAL_RCC_OscConfig+0x372>
        if((HAL_GetTick() - tickstart) > RCC_DBP_TIMEOUT_VALUE)
 8007f3a:	f7fe fdf7 	bl	8006b2c <HAL_GetTick>
 8007f3e:	1bc0      	subs	r0, r0, r7
 8007f40:	2802      	cmp	r0, #2
 8007f42:	d9f5      	bls.n	8007f30 <HAL_RCC_OscConfig+0x3d4>
          return HAL_TIMEOUT;
 8007f44:	2003      	movs	r0, #3
 8007f46:	e113      	b.n	8008170 <HAL_RCC_OscConfig+0x614>
    __HAL_RCC_LSE_CONFIG(RCC_OscInitStruct->LSEState);
 8007f48:	4a39      	ldr	r2, [pc, #228]	; (8008030 <HAL_RCC_OscConfig+0x4d4>)
 8007f4a:	f8d2 3090 	ldr.w	r3, [r2, #144]	; 0x90
 8007f4e:	f043 0301 	orr.w	r3, r3, #1
 8007f52:	f8c2 3090 	str.w	r3, [r2, #144]	; 0x90
 8007f56:	e7cc      	b.n	8007ef2 <HAL_RCC_OscConfig+0x396>
 8007f58:	4b35      	ldr	r3, [pc, #212]	; (8008030 <HAL_RCC_OscConfig+0x4d4>)
 8007f5a:	f8d3 2090 	ldr.w	r2, [r3, #144]	; 0x90
 8007f5e:	f042 0204 	orr.w	r2, r2, #4
 8007f62:	f8c3 2090 	str.w	r2, [r3, #144]	; 0x90
 8007f66:	f8d3 2090 	ldr.w	r2, [r3, #144]	; 0x90
 8007f6a:	f042 0201 	orr.w	r2, r2, #1
 8007f6e:	f8c3 2090 	str.w	r2, [r3, #144]	; 0x90
 8007f72:	e7be      	b.n	8007ef2 <HAL_RCC_OscConfig+0x396>
      tickstart = HAL_GetTick();
 8007f74:	f7fe fdda 	bl	8006b2c <HAL_GetTick>
 8007f78:	4607      	mov	r7, r0
      while(READ_BIT(RCC->BDCR, RCC_BDCR_LSERDY) != 0U)
 8007f7a:	4b2d      	ldr	r3, [pc, #180]	; (8008030 <HAL_RCC_OscConfig+0x4d4>)
 8007f7c:	f8d3 3090 	ldr.w	r3, [r3, #144]	; 0x90
 8007f80:	f013 0f02 	tst.w	r3, #2
 8007f84:	d008      	beq.n	8007f98 <HAL_RCC_OscConfig+0x43c>
        if((HAL_GetTick() - tickstart) > RCC_LSE_TIMEOUT_VALUE)
 8007f86:	f7fe fdd1 	bl	8006b2c <HAL_GetTick>
 8007f8a:	1bc0      	subs	r0, r0, r7
 8007f8c:	f241 3388 	movw	r3, #5000	; 0x1388
 8007f90:	4298      	cmp	r0, r3
 8007f92:	d9f2      	bls.n	8007f7a <HAL_RCC_OscConfig+0x41e>
          return HAL_TIMEOUT;
 8007f94:	2003      	movs	r0, #3
 8007f96:	e0eb      	b.n	8008170 <HAL_RCC_OscConfig+0x614>
    if(pwrclkchanged == SET)
 8007f98:	bb6e      	cbnz	r6, 8007ff6 <HAL_RCC_OscConfig+0x49a>
  if(RCC_OscInitStruct->PLL.PLLState != RCC_PLL_NONE)
 8007f9a:	6aa3      	ldr	r3, [r4, #40]	; 0x28
 8007f9c:	2b00      	cmp	r3, #0
 8007f9e:	f000 80e6 	beq.w	800816e <HAL_RCC_OscConfig+0x612>
    if(RCC_OscInitStruct->PLL.PLLState == RCC_PLL_ON)
 8007fa2:	2b02      	cmp	r3, #2
 8007fa4:	d02d      	beq.n	8008002 <HAL_RCC_OscConfig+0x4a6>
      if(sysclk_source != RCC_CFGR_SWS_PLL)
 8007fa6:	2d0c      	cmp	r5, #12
 8007fa8:	f000 80e8 	beq.w	800817c <HAL_RCC_OscConfig+0x620>
        __HAL_RCC_PLL_DISABLE();
 8007fac:	4b20      	ldr	r3, [pc, #128]	; (8008030 <HAL_RCC_OscConfig+0x4d4>)
 8007fae:	681a      	ldr	r2, [r3, #0]
 8007fb0:	f022 7280 	bic.w	r2, r2, #16777216	; 0x1000000
 8007fb4:	601a      	str	r2, [r3, #0]
        if(READ_BIT(RCC->CR, (RCC_CR_PLLSAI1RDY | RCC_CR_PLLSAI2RDY)) == 0U)
 8007fb6:	681b      	ldr	r3, [r3, #0]
 8007fb8:	f013 5f20 	tst.w	r3, #671088640	; 0x28000000
 8007fbc:	d104      	bne.n	8007fc8 <HAL_RCC_OscConfig+0x46c>
          MODIFY_REG(RCC->PLLCFGR, RCC_PLLCFGR_PLLSRC, RCC_PLLSOURCE_NONE);
 8007fbe:	4a1c      	ldr	r2, [pc, #112]	; (8008030 <HAL_RCC_OscConfig+0x4d4>)
 8007fc0:	68d3      	ldr	r3, [r2, #12]
 8007fc2:	f023 0303 	bic.w	r3, r3, #3
 8007fc6:	60d3      	str	r3, [r2, #12]
        __HAL_RCC_PLLCLKOUT_DISABLE(RCC_PLL_SYSCLK | RCC_PLL_48M1CLK | RCC_PLL_SAI3CLK);
 8007fc8:	4a19      	ldr	r2, [pc, #100]	; (8008030 <HAL_RCC_OscConfig+0x4d4>)
 8007fca:	68d3      	ldr	r3, [r2, #12]
 8007fcc:	f023 7388 	bic.w	r3, r3, #17825792	; 0x1100000
 8007fd0:	f423 3380 	bic.w	r3, r3, #65536	; 0x10000
 8007fd4:	60d3      	str	r3, [r2, #12]
        tickstart = HAL_GetTick();
 8007fd6:	f7fe fda9 	bl	8006b2c <HAL_GetTick>
 8007fda:	4604      	mov	r4, r0
        while(READ_BIT(RCC->CR, RCC_CR_PLLRDY) != 0U)
 8007fdc:	4b14      	ldr	r3, [pc, #80]	; (8008030 <HAL_RCC_OscConfig+0x4d4>)
 8007fde:	681b      	ldr	r3, [r3, #0]
 8007fe0:	f013 7f00 	tst.w	r3, #33554432	; 0x2000000
 8007fe4:	f000 80b7 	beq.w	8008156 <HAL_RCC_OscConfig+0x5fa>
          if((HAL_GetTick() - tickstart) > PLL_TIMEOUT_VALUE)
 8007fe8:	f7fe fda0 	bl	8006b2c <HAL_GetTick>
 8007fec:	1b00      	subs	r0, r0, r4
 8007fee:	2802      	cmp	r0, #2
 8007ff0:	d9f4      	bls.n	8007fdc <HAL_RCC_OscConfig+0x480>
            return HAL_TIMEOUT;
 8007ff2:	2003      	movs	r0, #3
 8007ff4:	e0bc      	b.n	8008170 <HAL_RCC_OscConfig+0x614>
      __HAL_RCC_PWR_CLK_DISABLE();
 8007ff6:	4a0e      	ldr	r2, [pc, #56]	; (8008030 <HAL_RCC_OscConfig+0x4d4>)
 8007ff8:	6d93      	ldr	r3, [r2, #88]	; 0x58
 8007ffa:	f023 5380 	bic.w	r3, r3, #268435456	; 0x10000000
 8007ffe:	6593      	str	r3, [r2, #88]	; 0x58
 8008000:	e7cb      	b.n	8007f9a <HAL_RCC_OscConfig+0x43e>
      pll_config = RCC->PLLCFGR;
 8008002:	4b0b      	ldr	r3, [pc, #44]	; (8008030 <HAL_RCC_OscConfig+0x4d4>)
 8008004:	68db      	ldr	r3, [r3, #12]
      if((READ_BIT(pll_config, RCC_PLLCFGR_PLLSRC)  != RCC_OscInitStruct->PLL.PLLSource) ||
 8008006:	f003 0103 	and.w	r1, r3, #3
 800800a:	6ae2      	ldr	r2, [r4, #44]	; 0x2c
 800800c:	4291      	cmp	r1, r2
 800800e:	d013      	beq.n	8008038 <HAL_RCC_OscConfig+0x4dc>
        if(sysclk_source != RCC_CFGR_SWS_PLL)
 8008010:	2d0c      	cmp	r5, #12
 8008012:	f000 80af 	beq.w	8008174 <HAL_RCC_OscConfig+0x618>
          if((READ_BIT(RCC->CR, RCC_CR_PLLSAI1ON) != 0U)
 8008016:	4b06      	ldr	r3, [pc, #24]	; (8008030 <HAL_RCC_OscConfig+0x4d4>)
 8008018:	681b      	ldr	r3, [r3, #0]
 800801a:	f013 6f80 	tst.w	r3, #67108864	; 0x4000000
 800801e:	f040 80ab 	bne.w	8008178 <HAL_RCC_OscConfig+0x61c>
             || (READ_BIT(RCC->CR, RCC_CR_PLLSAI2ON) != 0U)
 8008022:	4b03      	ldr	r3, [pc, #12]	; (8008030 <HAL_RCC_OscConfig+0x4d4>)
 8008024:	681b      	ldr	r3, [r3, #0]
 8008026:	f013 5f80 	tst.w	r3, #268435456	; 0x10000000
 800802a:	d031      	beq.n	8008090 <HAL_RCC_OscConfig+0x534>
            return HAL_ERROR;
 800802c:	2001      	movs	r0, #1
 800802e:	e09f      	b.n	8008170 <HAL_RCC_OscConfig+0x614>
 8008030:	40021000 	.word	0x40021000
 8008034:	40007000 	.word	0x40007000
         (READ_BIT(pll_config, RCC_PLLCFGR_PLLM)    != ((RCC_OscInitStruct->PLL.PLLM - 1U) << RCC_PLLCFGR_PLLM_Pos)) ||
 8008038:	f003 0270 	and.w	r2, r3, #112	; 0x70
 800803c:	6b21      	ldr	r1, [r4, #48]	; 0x30
 800803e:	3901      	subs	r1, #1
      if((READ_BIT(pll_config, RCC_PLLCFGR_PLLSRC)  != RCC_OscInitStruct->PLL.PLLSource) ||
 8008040:	ebb2 1f01 	cmp.w	r2, r1, lsl #4
 8008044:	d1e4      	bne.n	8008010 <HAL_RCC_OscConfig+0x4b4>
         (READ_BIT(pll_config, RCC_PLLCFGR_PLLN)    != (RCC_OscInitStruct->PLL.PLLN << RCC_PLLCFGR_PLLN_Pos)) ||
 8008046:	f403 42fe 	and.w	r2, r3, #32512	; 0x7f00
 800804a:	6b61      	ldr	r1, [r4, #52]	; 0x34
         (READ_BIT(pll_config, RCC_PLLCFGR_PLLM)    != ((RCC_OscInitStruct->PLL.PLLM - 1U) << RCC_PLLCFGR_PLLM_Pos)) ||
 800804c:	ebb2 2f01 	cmp.w	r2, r1, lsl #8
 8008050:	d1de      	bne.n	8008010 <HAL_RCC_OscConfig+0x4b4>
         (READ_BIT(pll_config, RCC_PLLCFGR_PLLP)    != ((RCC_OscInitStruct->PLL.PLLP == RCC_PLLP_DIV7) ? 0U : 1U)) ||
 8008052:	f403 3100 	and.w	r1, r3, #131072	; 0x20000
 8008056:	6ba2      	ldr	r2, [r4, #56]	; 0x38
 8008058:	3a07      	subs	r2, #7
 800805a:	bf18      	it	ne
 800805c:	2201      	movne	r2, #1
         (READ_BIT(pll_config, RCC_PLLCFGR_PLLN)    != (RCC_OscInitStruct->PLL.PLLN << RCC_PLLCFGR_PLLN_Pos)) ||
 800805e:	4291      	cmp	r1, r2
 8008060:	d1d6      	bne.n	8008010 <HAL_RCC_OscConfig+0x4b4>
         (READ_BIT(pll_config, RCC_PLLCFGR_PLLQ)    != ((((RCC_OscInitStruct->PLL.PLLQ) >> 1U) - 1U) << RCC_PLLCFGR_PLLQ_Pos)) ||
 8008062:	f403 01c0 	and.w	r1, r3, #6291456	; 0x600000
 8008066:	6be2      	ldr	r2, [r4, #60]	; 0x3c
 8008068:	0852      	lsrs	r2, r2, #1
 800806a:	3a01      	subs	r2, #1
         (READ_BIT(pll_config, RCC_PLLCFGR_PLLP)    != ((RCC_OscInitStruct->PLL.PLLP == RCC_PLLP_DIV7) ? 0U : 1U)) ||
 800806c:	ebb1 5f42 	cmp.w	r1, r2, lsl #21
 8008070:	d1ce      	bne.n	8008010 <HAL_RCC_OscConfig+0x4b4>
         (READ_BIT(pll_config, RCC_PLLCFGR_PLLR)    != ((((RCC_OscInitStruct->PLL.PLLR) >> 1U) - 1U) << RCC_PLLCFGR_PLLR_Pos)))
 8008072:	f003 63c0 	and.w	r3, r3, #100663296	; 0x6000000
 8008076:	6c22      	ldr	r2, [r4, #64]	; 0x40
 8008078:	0852      	lsrs	r2, r2, #1
 800807a:	3a01      	subs	r2, #1
         (READ_BIT(pll_config, RCC_PLLCFGR_PLLQ)    != ((((RCC_OscInitStruct->PLL.PLLQ) >> 1U) - 1U) << RCC_PLLCFGR_PLLQ_Pos)) ||
 800807c:	ebb3 6f42 	cmp.w	r3, r2, lsl #25
 8008080:	d1c6      	bne.n	8008010 <HAL_RCC_OscConfig+0x4b4>
        if(READ_BIT(RCC->CR, RCC_CR_PLLRDY) == 0U)
 8008082:	4b3f      	ldr	r3, [pc, #252]	; (8008180 <HAL_RCC_OscConfig+0x624>)
 8008084:	681b      	ldr	r3, [r3, #0]
 8008086:	f013 7f00 	tst.w	r3, #33554432	; 0x2000000
 800808a:	d04a      	beq.n	8008122 <HAL_RCC_OscConfig+0x5c6>
  return HAL_OK;
 800808c:	2000      	movs	r0, #0
 800808e:	e06f      	b.n	8008170 <HAL_RCC_OscConfig+0x614>
            __HAL_RCC_PLL_DISABLE();
 8008090:	4a3b      	ldr	r2, [pc, #236]	; (8008180 <HAL_RCC_OscConfig+0x624>)
 8008092:	6813      	ldr	r3, [r2, #0]
 8008094:	f023 7380 	bic.w	r3, r3, #16777216	; 0x1000000
 8008098:	6013      	str	r3, [r2, #0]
            tickstart = HAL_GetTick();
 800809a:	f7fe fd47 	bl	8006b2c <HAL_GetTick>
 800809e:	4605      	mov	r5, r0
            while(READ_BIT(RCC->CR, RCC_CR_PLLRDY) != 0U)
 80080a0:	4b37      	ldr	r3, [pc, #220]	; (8008180 <HAL_RCC_OscConfig+0x624>)
 80080a2:	681b      	ldr	r3, [r3, #0]
 80080a4:	f013 7f00 	tst.w	r3, #33554432	; 0x2000000
 80080a8:	d006      	beq.n	80080b8 <HAL_RCC_OscConfig+0x55c>
              if((HAL_GetTick() - tickstart) > PLL_TIMEOUT_VALUE)
 80080aa:	f7fe fd3f 	bl	8006b2c <HAL_GetTick>
 80080ae:	1b40      	subs	r0, r0, r5
 80080b0:	2802      	cmp	r0, #2
 80080b2:	d9f5      	bls.n	80080a0 <HAL_RCC_OscConfig+0x544>
                return HAL_TIMEOUT;
 80080b4:	2003      	movs	r0, #3
 80080b6:	e05b      	b.n	8008170 <HAL_RCC_OscConfig+0x614>
            __HAL_RCC_PLL_CONFIG(RCC_OscInitStruct->PLL.PLLSource,
 80080b8:	4a31      	ldr	r2, [pc, #196]	; (8008180 <HAL_RCC_OscConfig+0x624>)
 80080ba:	68d3      	ldr	r3, [r2, #12]
 80080bc:	4931      	ldr	r1, [pc, #196]	; (8008184 <HAL_RCC_OscConfig+0x628>)
 80080be:	4019      	ands	r1, r3
 80080c0:	6ae3      	ldr	r3, [r4, #44]	; 0x2c
 80080c2:	6b20      	ldr	r0, [r4, #48]	; 0x30
 80080c4:	3801      	subs	r0, #1
 80080c6:	ea43 1300 	orr.w	r3, r3, r0, lsl #4
 80080ca:	6b60      	ldr	r0, [r4, #52]	; 0x34
 80080cc:	ea43 2300 	orr.w	r3, r3, r0, lsl #8
 80080d0:	6be0      	ldr	r0, [r4, #60]	; 0x3c
 80080d2:	0840      	lsrs	r0, r0, #1
 80080d4:	3801      	subs	r0, #1
 80080d6:	ea43 5340 	orr.w	r3, r3, r0, lsl #21
 80080da:	6c20      	ldr	r0, [r4, #64]	; 0x40
 80080dc:	0840      	lsrs	r0, r0, #1
 80080de:	3801      	subs	r0, #1
 80080e0:	ea43 6340 	orr.w	r3, r3, r0, lsl #25
 80080e4:	6ba0      	ldr	r0, [r4, #56]	; 0x38
 80080e6:	0900      	lsrs	r0, r0, #4
 80080e8:	ea43 4340 	orr.w	r3, r3, r0, lsl #17
 80080ec:	4319      	orrs	r1, r3
 80080ee:	60d1      	str	r1, [r2, #12]
            __HAL_RCC_PLL_ENABLE();
 80080f0:	6813      	ldr	r3, [r2, #0]
 80080f2:	f043 7380 	orr.w	r3, r3, #16777216	; 0x1000000
 80080f6:	6013      	str	r3, [r2, #0]
            __HAL_RCC_PLLCLKOUT_ENABLE(RCC_PLL_SYSCLK);
 80080f8:	68d3      	ldr	r3, [r2, #12]
 80080fa:	f043 7380 	orr.w	r3, r3, #16777216	; 0x1000000
 80080fe:	60d3      	str	r3, [r2, #12]
            tickstart = HAL_GetTick();
 8008100:	f7fe fd14 	bl	8006b2c <HAL_GetTick>
 8008104:	4604      	mov	r4, r0
            while(READ_BIT(RCC->CR, RCC_CR_PLLRDY) == 0U)
 8008106:	4b1e      	ldr	r3, [pc, #120]	; (8008180 <HAL_RCC_OscConfig+0x624>)
 8008108:	681b      	ldr	r3, [r3, #0]
 800810a:	f013 7f00 	tst.w	r3, #33554432	; 0x2000000
 800810e:	d106      	bne.n	800811e <HAL_RCC_OscConfig+0x5c2>
              if((HAL_GetTick() - tickstart) > PLL_TIMEOUT_VALUE)
 8008110:	f7fe fd0c 	bl	8006b2c <HAL_GetTick>
 8008114:	1b00      	subs	r0, r0, r4
 8008116:	2802      	cmp	r0, #2
 8008118:	d9f5      	bls.n	8008106 <HAL_RCC_OscConfig+0x5aa>
                return HAL_TIMEOUT;
 800811a:	2003      	movs	r0, #3
 800811c:	e028      	b.n	8008170 <HAL_RCC_OscConfig+0x614>
  return HAL_OK;
 800811e:	2000      	movs	r0, #0
 8008120:	e026      	b.n	8008170 <HAL_RCC_OscConfig+0x614>
          __HAL_RCC_PLL_ENABLE();
 8008122:	4b17      	ldr	r3, [pc, #92]	; (8008180 <HAL_RCC_OscConfig+0x624>)
 8008124:	681a      	ldr	r2, [r3, #0]
 8008126:	f042 7280 	orr.w	r2, r2, #16777216	; 0x1000000
 800812a:	601a      	str	r2, [r3, #0]
          __HAL_RCC_PLLCLKOUT_ENABLE(RCC_PLL_SYSCLK);
 800812c:	68da      	ldr	r2, [r3, #12]
 800812e:	f042 7280 	orr.w	r2, r2, #16777216	; 0x1000000
 8008132:	60da      	str	r2, [r3, #12]
          tickstart = HAL_GetTick();
 8008134:	f7fe fcfa 	bl	8006b2c <HAL_GetTick>
 8008138:	4604      	mov	r4, r0
          while(READ_BIT(RCC->CR, RCC_CR_PLLRDY) == 0U)
 800813a:	4b11      	ldr	r3, [pc, #68]	; (8008180 <HAL_RCC_OscConfig+0x624>)
 800813c:	681b      	ldr	r3, [r3, #0]
 800813e:	f013 7f00 	tst.w	r3, #33554432	; 0x2000000
 8008142:	d106      	bne.n	8008152 <HAL_RCC_OscConfig+0x5f6>
            if((HAL_GetTick() - tickstart) > PLL_TIMEOUT_VALUE)
 8008144:	f7fe fcf2 	bl	8006b2c <HAL_GetTick>
 8008148:	1b03      	subs	r3, r0, r4
 800814a:	2b02      	cmp	r3, #2
 800814c:	d9f5      	bls.n	800813a <HAL_RCC_OscConfig+0x5de>
              return HAL_TIMEOUT;
 800814e:	2003      	movs	r0, #3
 8008150:	e00e      	b.n	8008170 <HAL_RCC_OscConfig+0x614>
  return HAL_OK;
 8008152:	2000      	movs	r0, #0
 8008154:	e00c      	b.n	8008170 <HAL_RCC_OscConfig+0x614>
 8008156:	2000      	movs	r0, #0
 8008158:	e00a      	b.n	8008170 <HAL_RCC_OscConfig+0x614>
    return HAL_ERROR;
 800815a:	2001      	movs	r0, #1
}
 800815c:	4770      	bx	lr
        return HAL_ERROR;
 800815e:	2001      	movs	r0, #1
 8008160:	e006      	b.n	8008170 <HAL_RCC_OscConfig+0x614>
            return HAL_ERROR;
 8008162:	2001      	movs	r0, #1
 8008164:	e004      	b.n	8008170 <HAL_RCC_OscConfig+0x614>
        return HAL_ERROR;
 8008166:	2001      	movs	r0, #1
 8008168:	e002      	b.n	8008170 <HAL_RCC_OscConfig+0x614>
        return HAL_ERROR;
 800816a:	2001      	movs	r0, #1
 800816c:	e000      	b.n	8008170 <HAL_RCC_OscConfig+0x614>
  return HAL_OK;
 800816e:	2000      	movs	r0, #0
}
 8008170:	b003      	add	sp, #12
 8008172:	bdf0      	pop	{r4, r5, r6, r7, pc}
          return HAL_ERROR;
 8008174:	2001      	movs	r0, #1
 8008176:	e7fb      	b.n	8008170 <HAL_RCC_OscConfig+0x614>
            return HAL_ERROR;
 8008178:	2001      	movs	r0, #1
 800817a:	e7f9      	b.n	8008170 <HAL_RCC_OscConfig+0x614>
        return HAL_ERROR;
 800817c:	2001      	movs	r0, #1
 800817e:	e7f7      	b.n	8008170 <HAL_RCC_OscConfig+0x614>
 8008180:	40021000 	.word	0x40021000
 8008184:	f99d808c 	.word	0xf99d808c

08008188 <HAL_RCC_ClockConfig>:
  if(RCC_ClkInitStruct == NULL)
 8008188:	2800      	cmp	r0, #0
 800818a:	f000 8098 	beq.w	80082be <HAL_RCC_ClockConfig+0x136>
{
 800818e:	b570      	push	{r4, r5, r6, lr}
 8008190:	460c      	mov	r4, r1
 8008192:	4605      	mov	r5, r0
  if(FLatency > __HAL_FLASH_GET_LATENCY())
 8008194:	4b4e      	ldr	r3, [pc, #312]	; (80082d0 <HAL_RCC_ClockConfig+0x148>)
 8008196:	681b      	ldr	r3, [r3, #0]
 8008198:	f003 0307 	and.w	r3, r3, #7
 800819c:	428b      	cmp	r3, r1
 800819e:	d20b      	bcs.n	80081b8 <HAL_RCC_ClockConfig+0x30>
    __HAL_FLASH_SET_LATENCY(FLatency);
 80081a0:	4a4b      	ldr	r2, [pc, #300]	; (80082d0 <HAL_RCC_ClockConfig+0x148>)
 80081a2:	6813      	ldr	r3, [r2, #0]
 80081a4:	f023 0307 	bic.w	r3, r3, #7
 80081a8:	430b      	orrs	r3, r1
 80081aa:	6013      	str	r3, [r2, #0]
    if(__HAL_FLASH_GET_LATENCY() != FLatency)
 80081ac:	6813      	ldr	r3, [r2, #0]
 80081ae:	f003 0307 	and.w	r3, r3, #7
 80081b2:	428b      	cmp	r3, r1
 80081b4:	f040 8085 	bne.w	80082c2 <HAL_RCC_ClockConfig+0x13a>
  if(((RCC_ClkInitStruct->ClockType) & RCC_CLOCKTYPE_SYSCLK) == RCC_CLOCKTYPE_SYSCLK)
 80081b8:	682b      	ldr	r3, [r5, #0]
 80081ba:	f013 0f01 	tst.w	r3, #1
 80081be:	d039      	beq.n	8008234 <HAL_RCC_ClockConfig+0xac>
    if(RCC_ClkInitStruct->SYSCLKSource == RCC_SYSCLKSOURCE_PLLCLK)
 80081c0:	686b      	ldr	r3, [r5, #4]
 80081c2:	2b03      	cmp	r3, #3
 80081c4:	d009      	beq.n	80081da <HAL_RCC_ClockConfig+0x52>
      if(RCC_ClkInitStruct->SYSCLKSource == RCC_SYSCLKSOURCE_HSE)
 80081c6:	2b02      	cmp	r3, #2
 80081c8:	d026      	beq.n	8008218 <HAL_RCC_ClockConfig+0x90>
      else if(RCC_ClkInitStruct->SYSCLKSource == RCC_SYSCLKSOURCE_MSI)
 80081ca:	bb63      	cbnz	r3, 8008226 <HAL_RCC_ClockConfig+0x9e>
        if(READ_BIT(RCC->CR, RCC_CR_MSIRDY) == 0U)
 80081cc:	4a41      	ldr	r2, [pc, #260]	; (80082d4 <HAL_RCC_ClockConfig+0x14c>)
 80081ce:	6812      	ldr	r2, [r2, #0]
 80081d0:	f012 0f02 	tst.w	r2, #2
 80081d4:	d106      	bne.n	80081e4 <HAL_RCC_ClockConfig+0x5c>
          return HAL_ERROR;
 80081d6:	2001      	movs	r0, #1
 80081d8:	e070      	b.n	80082bc <HAL_RCC_ClockConfig+0x134>
      if(READ_BIT(RCC->CR, RCC_CR_PLLRDY) == 0U)
 80081da:	4a3e      	ldr	r2, [pc, #248]	; (80082d4 <HAL_RCC_ClockConfig+0x14c>)
 80081dc:	6812      	ldr	r2, [r2, #0]
 80081de:	f012 7f00 	tst.w	r2, #33554432	; 0x2000000
 80081e2:	d070      	beq.n	80082c6 <HAL_RCC_ClockConfig+0x13e>
    MODIFY_REG(RCC->CFGR, RCC_CFGR_SW, RCC_ClkInitStruct->SYSCLKSource);
 80081e4:	493b      	ldr	r1, [pc, #236]	; (80082d4 <HAL_RCC_ClockConfig+0x14c>)
 80081e6:	688a      	ldr	r2, [r1, #8]
 80081e8:	f022 0203 	bic.w	r2, r2, #3
 80081ec:	4313      	orrs	r3, r2
 80081ee:	608b      	str	r3, [r1, #8]
    tickstart = HAL_GetTick();
 80081f0:	f7fe fc9c 	bl	8006b2c <HAL_GetTick>
 80081f4:	4606      	mov	r6, r0
    while(__HAL_RCC_GET_SYSCLK_SOURCE() != (RCC_ClkInitStruct->SYSCLKSource << RCC_CFGR_SWS_Pos))
 80081f6:	4b37      	ldr	r3, [pc, #220]	; (80082d4 <HAL_RCC_ClockConfig+0x14c>)
 80081f8:	689b      	ldr	r3, [r3, #8]
 80081fa:	f003 030c 	and.w	r3, r3, #12
 80081fe:	686a      	ldr	r2, [r5, #4]
 8008200:	ebb3 0f82 	cmp.w	r3, r2, lsl #2
 8008204:	d016      	beq.n	8008234 <HAL_RCC_ClockConfig+0xac>
      if((HAL_GetTick() - tickstart) > CLOCKSWITCH_TIMEOUT_VALUE)
 8008206:	f7fe fc91 	bl	8006b2c <HAL_GetTick>
 800820a:	1b80      	subs	r0, r0, r6
 800820c:	f241 3388 	movw	r3, #5000	; 0x1388
 8008210:	4298      	cmp	r0, r3
 8008212:	d9f0      	bls.n	80081f6 <HAL_RCC_ClockConfig+0x6e>
        return HAL_TIMEOUT;
 8008214:	2003      	movs	r0, #3
 8008216:	e051      	b.n	80082bc <HAL_RCC_ClockConfig+0x134>
        if(READ_BIT(RCC->CR, RCC_CR_HSERDY) == 0U)
 8008218:	4a2e      	ldr	r2, [pc, #184]	; (80082d4 <HAL_RCC_ClockConfig+0x14c>)
 800821a:	6812      	ldr	r2, [r2, #0]
 800821c:	f412 3f00 	tst.w	r2, #131072	; 0x20000
 8008220:	d1e0      	bne.n	80081e4 <HAL_RCC_ClockConfig+0x5c>
          return HAL_ERROR;
 8008222:	2001      	movs	r0, #1
 8008224:	e04a      	b.n	80082bc <HAL_RCC_ClockConfig+0x134>
        if(READ_BIT(RCC->CR, RCC_CR_HSIRDY) == 0U)
 8008226:	4a2b      	ldr	r2, [pc, #172]	; (80082d4 <HAL_RCC_ClockConfig+0x14c>)
 8008228:	6812      	ldr	r2, [r2, #0]
 800822a:	f412 6f80 	tst.w	r2, #1024	; 0x400
 800822e:	d1d9      	bne.n	80081e4 <HAL_RCC_ClockConfig+0x5c>
          return HAL_ERROR;
 8008230:	2001      	movs	r0, #1
 8008232:	e043      	b.n	80082bc <HAL_RCC_ClockConfig+0x134>
  if(((RCC_ClkInitStruct->ClockType) & RCC_CLOCKTYPE_HCLK) == RCC_CLOCKTYPE_HCLK)
 8008234:	682b      	ldr	r3, [r5, #0]
 8008236:	f013 0f02 	tst.w	r3, #2
 800823a:	d006      	beq.n	800824a <HAL_RCC_ClockConfig+0xc2>
    MODIFY_REG(RCC->CFGR, RCC_CFGR_HPRE, RCC_ClkInitStruct->AHBCLKDivider);
 800823c:	4a25      	ldr	r2, [pc, #148]	; (80082d4 <HAL_RCC_ClockConfig+0x14c>)
 800823e:	6893      	ldr	r3, [r2, #8]
 8008240:	f023 03f0 	bic.w	r3, r3, #240	; 0xf0
 8008244:	68a9      	ldr	r1, [r5, #8]
 8008246:	430b      	orrs	r3, r1
 8008248:	6093      	str	r3, [r2, #8]
  if(FLatency < __HAL_FLASH_GET_LATENCY())
 800824a:	4b21      	ldr	r3, [pc, #132]	; (80082d0 <HAL_RCC_ClockConfig+0x148>)
 800824c:	681b      	ldr	r3, [r3, #0]
 800824e:	f003 0307 	and.w	r3, r3, #7
 8008252:	42a3      	cmp	r3, r4
 8008254:	d90a      	bls.n	800826c <HAL_RCC_ClockConfig+0xe4>
    __HAL_FLASH_SET_LATENCY(FLatency);
 8008256:	4a1e      	ldr	r2, [pc, #120]	; (80082d0 <HAL_RCC_ClockConfig+0x148>)
 8008258:	6813      	ldr	r3, [r2, #0]
 800825a:	f023 0307 	bic.w	r3, r3, #7
 800825e:	4323      	orrs	r3, r4
 8008260:	6013      	str	r3, [r2, #0]
    if(__HAL_FLASH_GET_LATENCY() != FLatency)
 8008262:	6813      	ldr	r3, [r2, #0]
 8008264:	f003 0307 	and.w	r3, r3, #7
 8008268:	42a3      	cmp	r3, r4
 800826a:	d12e      	bne.n	80082ca <HAL_RCC_ClockConfig+0x142>
  if(((RCC_ClkInitStruct->ClockType) & RCC_CLOCKTYPE_PCLK1) == RCC_CLOCKTYPE_PCLK1)
 800826c:	682b      	ldr	r3, [r5, #0]
 800826e:	f013 0f04 	tst.w	r3, #4
 8008272:	d006      	beq.n	8008282 <HAL_RCC_ClockConfig+0xfa>
    MODIFY_REG(RCC->CFGR, RCC_CFGR_PPRE1, RCC_ClkInitStruct->APB1CLKDivider);
 8008274:	4a17      	ldr	r2, [pc, #92]	; (80082d4 <HAL_RCC_ClockConfig+0x14c>)
 8008276:	6893      	ldr	r3, [r2, #8]
 8008278:	f423 63e0 	bic.w	r3, r3, #1792	; 0x700
 800827c:	68e9      	ldr	r1, [r5, #12]
 800827e:	430b      	orrs	r3, r1
 8008280:	6093      	str	r3, [r2, #8]
  if(((RCC_ClkInitStruct->ClockType) & RCC_CLOCKTYPE_PCLK2) == RCC_CLOCKTYPE_PCLK2)
 8008282:	682b      	ldr	r3, [r5, #0]
 8008284:	f013 0f08 	tst.w	r3, #8
 8008288:	d007      	beq.n	800829a <HAL_RCC_ClockConfig+0x112>
    MODIFY_REG(RCC->CFGR, RCC_CFGR_PPRE2, ((RCC_ClkInitStruct->APB2CLKDivider) << 3U));
 800828a:	4a12      	ldr	r2, [pc, #72]	; (80082d4 <HAL_RCC_ClockConfig+0x14c>)
 800828c:	6893      	ldr	r3, [r2, #8]
 800828e:	f423 5360 	bic.w	r3, r3, #14336	; 0x3800
 8008292:	6929      	ldr	r1, [r5, #16]
 8008294:	ea43 03c1 	orr.w	r3, r3, r1, lsl #3
 8008298:	6093      	str	r3, [r2, #8]
  SystemCoreClock = HAL_RCC_GetSysClockFreq() >> (AHBPrescTable[READ_BIT(RCC->CFGR, RCC_CFGR_HPRE) >> RCC_CFGR_HPRE_Pos] & 0x1FU);
 800829a:	f7ff fc05 	bl	8007aa8 <HAL_RCC_GetSysClockFreq>
 800829e:	4b0d      	ldr	r3, [pc, #52]	; (80082d4 <HAL_RCC_ClockConfig+0x14c>)
 80082a0:	689b      	ldr	r3, [r3, #8]
 80082a2:	f3c3 1303 	ubfx	r3, r3, #4, #4
 80082a6:	4a0c      	ldr	r2, [pc, #48]	; (80082d8 <HAL_RCC_ClockConfig+0x150>)
 80082a8:	5cd3      	ldrb	r3, [r2, r3]
 80082aa:	f003 031f 	and.w	r3, r3, #31
 80082ae:	40d8      	lsrs	r0, r3
 80082b0:	4b0a      	ldr	r3, [pc, #40]	; (80082dc <HAL_RCC_ClockConfig+0x154>)
 80082b2:	6018      	str	r0, [r3, #0]
  status = HAL_InitTick(uwTickPrio);
 80082b4:	4b0a      	ldr	r3, [pc, #40]	; (80082e0 <HAL_RCC_ClockConfig+0x158>)
 80082b6:	6818      	ldr	r0, [r3, #0]
 80082b8:	f7fe fbf6 	bl	8006aa8 <HAL_InitTick>
}
 80082bc:	bd70      	pop	{r4, r5, r6, pc}
    return HAL_ERROR;
 80082be:	2001      	movs	r0, #1
}
 80082c0:	4770      	bx	lr
      return HAL_ERROR;
 80082c2:	2001      	movs	r0, #1
 80082c4:	e7fa      	b.n	80082bc <HAL_RCC_ClockConfig+0x134>
        return HAL_ERROR;
 80082c6:	2001      	movs	r0, #1
 80082c8:	e7f8      	b.n	80082bc <HAL_RCC_ClockConfig+0x134>
      return HAL_ERROR;
 80082ca:	2001      	movs	r0, #1
 80082cc:	e7f6      	b.n	80082bc <HAL_RCC_ClockConfig+0x134>
 80082ce:	bf00      	nop
 80082d0:	40022000 	.word	0x40022000
 80082d4:	40021000 	.word	0x40021000
 80082d8:	0800df60 	.word	0x0800df60
 80082dc:	2000007c 	.word	0x2000007c
 80082e0:	20000084 	.word	0x20000084

080082e4 <HAL_RCC_GetHCLKFreq>:
}
 80082e4:	4b01      	ldr	r3, [pc, #4]	; (80082ec <HAL_RCC_GetHCLKFreq+0x8>)
 80082e6:	6818      	ldr	r0, [r3, #0]
 80082e8:	4770      	bx	lr
 80082ea:	bf00      	nop
 80082ec:	2000007c 	.word	0x2000007c

080082f0 <RCCEx_PLLSAI1_Config>:
  * @note   PLLSAI1 is temporary disable to apply new parameters
  *
  * @retval HAL status
  */
static HAL_StatusTypeDef RCCEx_PLLSAI1_Config(RCC_PLLSAI1InitTypeDef *PllSai1, uint32_t Divider)
{
 80082f0:	b5f8      	push	{r3, r4, r5, r6, r7, lr}
 80082f2:	4604      	mov	r4, r0
 80082f4:	460f      	mov	r7, r1
  assert_param(IS_RCC_PLLSAI1M_VALUE(PllSai1->PLLSAI1M));
  assert_param(IS_RCC_PLLSAI1N_VALUE(PllSai1->PLLSAI1N));
  assert_param(IS_RCC_PLLSAI1CLOCKOUT_VALUE(PllSai1->PLLSAI1ClockOut));

  /* Check that PLLSAI1 clock source and divider M can be applied */
  if(__HAL_RCC_GET_PLL_OSCSOURCE() != RCC_PLLSOURCE_NONE)
 80082f6:	4b59      	ldr	r3, [pc, #356]	; (800845c <RCCEx_PLLSAI1_Config+0x16c>)
 80082f8:	68db      	ldr	r3, [r3, #12]
 80082fa:	f013 0f03 	tst.w	r3, #3
 80082fe:	d018      	beq.n	8008332 <RCCEx_PLLSAI1_Config+0x42>
  {
    /* PLL clock source and divider M already set, check that no request for change  */
    if((__HAL_RCC_GET_PLL_OSCSOURCE() != PllSai1->PLLSAI1Source)
 8008300:	4b56      	ldr	r3, [pc, #344]	; (800845c <RCCEx_PLLSAI1_Config+0x16c>)
 8008302:	68db      	ldr	r3, [r3, #12]
 8008304:	f003 0303 	and.w	r3, r3, #3
 8008308:	6802      	ldr	r2, [r0, #0]
 800830a:	4293      	cmp	r3, r2
 800830c:	d002      	beq.n	8008314 <RCCEx_PLLSAI1_Config+0x24>
       ||
       (((READ_BIT(RCC->PLLCFGR, RCC_PLLCFGR_PLLM) >> RCC_PLLCFGR_PLLM_Pos) + 1U) != PllSai1->PLLSAI1M)
#endif
      )
    {
      status = HAL_ERROR;
 800830e:	2501      	movs	r5, #1
      }
    }
  }

  return status;
}
 8008310:	4628      	mov	r0, r5
 8008312:	bdf8      	pop	{r3, r4, r5, r6, r7, pc}
       ||
 8008314:	2a00      	cmp	r2, #0
 8008316:	f000 809e 	beq.w	8008456 <RCCEx_PLLSAI1_Config+0x166>
       (((READ_BIT(RCC->PLLCFGR, RCC_PLLCFGR_PLLM) >> RCC_PLLCFGR_PLLM_Pos) + 1U) != PllSai1->PLLSAI1M)
 800831a:	4b50      	ldr	r3, [pc, #320]	; (800845c <RCCEx_PLLSAI1_Config+0x16c>)
 800831c:	68db      	ldr	r3, [r3, #12]
 800831e:	f3c3 1302 	ubfx	r3, r3, #4, #3
 8008322:	3301      	adds	r3, #1
 8008324:	6842      	ldr	r2, [r0, #4]
       ||
 8008326:	4293      	cmp	r3, r2
 8008328:	d001      	beq.n	800832e <RCCEx_PLLSAI1_Config+0x3e>
      status = HAL_ERROR;
 800832a:	2501      	movs	r5, #1
 800832c:	e7f0      	b.n	8008310 <RCCEx_PLLSAI1_Config+0x20>
  HAL_StatusTypeDef status = HAL_OK;
 800832e:	2500      	movs	r5, #0
 8008330:	e009      	b.n	8008346 <RCCEx_PLLSAI1_Config+0x56>
    switch(PllSai1->PLLSAI1Source)
 8008332:	6803      	ldr	r3, [r0, #0]
 8008334:	2b02      	cmp	r3, #2
 8008336:	d057      	beq.n	80083e8 <RCCEx_PLLSAI1_Config+0xf8>
 8008338:	2b03      	cmp	r3, #3
 800833a:	d05c      	beq.n	80083f6 <RCCEx_PLLSAI1_Config+0x106>
 800833c:	2b01      	cmp	r3, #1
 800833e:	d042      	beq.n	80083c6 <RCCEx_PLLSAI1_Config+0xd6>
 8008340:	2501      	movs	r5, #1
  if(status == HAL_OK)
 8008342:	2d00      	cmp	r5, #0
 8008344:	d1e4      	bne.n	8008310 <RCCEx_PLLSAI1_Config+0x20>
    __HAL_RCC_PLLSAI1_DISABLE();
 8008346:	4a45      	ldr	r2, [pc, #276]	; (800845c <RCCEx_PLLSAI1_Config+0x16c>)
 8008348:	6813      	ldr	r3, [r2, #0]
 800834a:	f023 6380 	bic.w	r3, r3, #67108864	; 0x4000000
 800834e:	6013      	str	r3, [r2, #0]
    tickstart = HAL_GetTick();
 8008350:	f7fe fbec 	bl	8006b2c <HAL_GetTick>
 8008354:	4606      	mov	r6, r0
    while(READ_BIT(RCC->CR, RCC_CR_PLLSAI1RDY) != 0U)
 8008356:	4b41      	ldr	r3, [pc, #260]	; (800845c <RCCEx_PLLSAI1_Config+0x16c>)
 8008358:	681b      	ldr	r3, [r3, #0]
 800835a:	f013 6f00 	tst.w	r3, #134217728	; 0x8000000
 800835e:	d005      	beq.n	800836c <RCCEx_PLLSAI1_Config+0x7c>
      if((HAL_GetTick() - tickstart) > PLLSAI1_TIMEOUT_VALUE)
 8008360:	f7fe fbe4 	bl	8006b2c <HAL_GetTick>
 8008364:	1b83      	subs	r3, r0, r6
 8008366:	2b02      	cmp	r3, #2
 8008368:	d9f5      	bls.n	8008356 <RCCEx_PLLSAI1_Config+0x66>
        status = HAL_TIMEOUT;
 800836a:	2503      	movs	r5, #3
    if(status == HAL_OK)
 800836c:	2d00      	cmp	r5, #0
 800836e:	d1cf      	bne.n	8008310 <RCCEx_PLLSAI1_Config+0x20>
      if(Divider == DIVIDER_P_UPDATE)
 8008370:	2f00      	cmp	r7, #0
 8008372:	d14e      	bne.n	8008412 <RCCEx_PLLSAI1_Config+0x122>
        MODIFY_REG(RCC->PLLSAI1CFGR,
 8008374:	4939      	ldr	r1, [pc, #228]	; (800845c <RCCEx_PLLSAI1_Config+0x16c>)
 8008376:	690b      	ldr	r3, [r1, #16]
 8008378:	f423 331f 	bic.w	r3, r3, #162816	; 0x27c00
 800837c:	f423 7340 	bic.w	r3, r3, #768	; 0x300
 8008380:	68a0      	ldr	r0, [r4, #8]
 8008382:	68e2      	ldr	r2, [r4, #12]
 8008384:	0912      	lsrs	r2, r2, #4
 8008386:	0452      	lsls	r2, r2, #17
 8008388:	ea42 2200 	orr.w	r2, r2, r0, lsl #8
 800838c:	4313      	orrs	r3, r2
 800838e:	610b      	str	r3, [r1, #16]
      __HAL_RCC_PLLSAI1_ENABLE();
 8008390:	4a32      	ldr	r2, [pc, #200]	; (800845c <RCCEx_PLLSAI1_Config+0x16c>)
 8008392:	6813      	ldr	r3, [r2, #0]
 8008394:	f043 6380 	orr.w	r3, r3, #67108864	; 0x4000000
 8008398:	6013      	str	r3, [r2, #0]
      tickstart = HAL_GetTick();
 800839a:	f7fe fbc7 	bl	8006b2c <HAL_GetTick>
 800839e:	4606      	mov	r6, r0
      while(READ_BIT(RCC->CR, RCC_CR_PLLSAI1RDY) == 0U)
 80083a0:	4b2e      	ldr	r3, [pc, #184]	; (800845c <RCCEx_PLLSAI1_Config+0x16c>)
 80083a2:	681b      	ldr	r3, [r3, #0]
 80083a4:	f013 6f00 	tst.w	r3, #134217728	; 0x8000000
 80083a8:	d105      	bne.n	80083b6 <RCCEx_PLLSAI1_Config+0xc6>
        if((HAL_GetTick() - tickstart) > PLLSAI1_TIMEOUT_VALUE)
 80083aa:	f7fe fbbf 	bl	8006b2c <HAL_GetTick>
 80083ae:	1b83      	subs	r3, r0, r6
 80083b0:	2b02      	cmp	r3, #2
 80083b2:	d9f5      	bls.n	80083a0 <RCCEx_PLLSAI1_Config+0xb0>
          status = HAL_TIMEOUT;
 80083b4:	2503      	movs	r5, #3
      if(status == HAL_OK)
 80083b6:	2d00      	cmp	r5, #0
 80083b8:	d1aa      	bne.n	8008310 <RCCEx_PLLSAI1_Config+0x20>
        __HAL_RCC_PLLSAI1CLKOUT_ENABLE(PllSai1->PLLSAI1ClockOut);
 80083ba:	4a28      	ldr	r2, [pc, #160]	; (800845c <RCCEx_PLLSAI1_Config+0x16c>)
 80083bc:	6913      	ldr	r3, [r2, #16]
 80083be:	69a1      	ldr	r1, [r4, #24]
 80083c0:	430b      	orrs	r3, r1
 80083c2:	6113      	str	r3, [r2, #16]
 80083c4:	e7a4      	b.n	8008310 <RCCEx_PLLSAI1_Config+0x20>
      if(HAL_IS_BIT_CLR(RCC->CR, RCC_CR_MSIRDY))
 80083c6:	4a25      	ldr	r2, [pc, #148]	; (800845c <RCCEx_PLLSAI1_Config+0x16c>)
 80083c8:	6812      	ldr	r2, [r2, #0]
 80083ca:	f012 0f02 	tst.w	r2, #2
 80083ce:	d01e      	beq.n	800840e <RCCEx_PLLSAI1_Config+0x11e>
      MODIFY_REG(RCC->PLLCFGR, RCC_PLLCFGR_PLLSRC | RCC_PLLCFGR_PLLM, PllSai1->PLLSAI1Source | (PllSai1->PLLSAI1M - 1U) << RCC_PLLCFGR_PLLM_Pos);
 80083d0:	4822      	ldr	r0, [pc, #136]	; (800845c <RCCEx_PLLSAI1_Config+0x16c>)
 80083d2:	68c2      	ldr	r2, [r0, #12]
 80083d4:	f022 0273 	bic.w	r2, r2, #115	; 0x73
 80083d8:	6861      	ldr	r1, [r4, #4]
 80083da:	3901      	subs	r1, #1
 80083dc:	ea43 1301 	orr.w	r3, r3, r1, lsl #4
 80083e0:	4313      	orrs	r3, r2
 80083e2:	60c3      	str	r3, [r0, #12]
 80083e4:	2500      	movs	r5, #0
 80083e6:	e7ac      	b.n	8008342 <RCCEx_PLLSAI1_Config+0x52>
      if(HAL_IS_BIT_CLR(RCC->CR, RCC_CR_HSIRDY))
 80083e8:	4a1c      	ldr	r2, [pc, #112]	; (800845c <RCCEx_PLLSAI1_Config+0x16c>)
 80083ea:	6812      	ldr	r2, [r2, #0]
 80083ec:	f412 6f80 	tst.w	r2, #1024	; 0x400
 80083f0:	d1ee      	bne.n	80083d0 <RCCEx_PLLSAI1_Config+0xe0>
        status = HAL_ERROR;
 80083f2:	2501      	movs	r5, #1
 80083f4:	e7a5      	b.n	8008342 <RCCEx_PLLSAI1_Config+0x52>
      if(HAL_IS_BIT_CLR(RCC->CR, RCC_CR_HSERDY))
 80083f6:	4a19      	ldr	r2, [pc, #100]	; (800845c <RCCEx_PLLSAI1_Config+0x16c>)
 80083f8:	6812      	ldr	r2, [r2, #0]
 80083fa:	f412 3f00 	tst.w	r2, #131072	; 0x20000
 80083fe:	d1e7      	bne.n	80083d0 <RCCEx_PLLSAI1_Config+0xe0>
        if(HAL_IS_BIT_CLR(RCC->CR, RCC_CR_HSEBYP))
 8008400:	4a16      	ldr	r2, [pc, #88]	; (800845c <RCCEx_PLLSAI1_Config+0x16c>)
 8008402:	6812      	ldr	r2, [r2, #0]
 8008404:	f412 2f80 	tst.w	r2, #262144	; 0x40000
 8008408:	d1e2      	bne.n	80083d0 <RCCEx_PLLSAI1_Config+0xe0>
          status = HAL_ERROR;
 800840a:	2501      	movs	r5, #1
 800840c:	e799      	b.n	8008342 <RCCEx_PLLSAI1_Config+0x52>
        status = HAL_ERROR;
 800840e:	2501      	movs	r5, #1
 8008410:	e797      	b.n	8008342 <RCCEx_PLLSAI1_Config+0x52>
      else if(Divider == DIVIDER_Q_UPDATE)
 8008412:	2f01      	cmp	r7, #1
 8008414:	d00f      	beq.n	8008436 <RCCEx_PLLSAI1_Config+0x146>
        MODIFY_REG(RCC->PLLSAI1CFGR,
 8008416:	4811      	ldr	r0, [pc, #68]	; (800845c <RCCEx_PLLSAI1_Config+0x16c>)
 8008418:	6902      	ldr	r2, [r0, #16]
 800841a:	f022 62c0 	bic.w	r2, r2, #100663296	; 0x6000000
 800841e:	f422 42fe 	bic.w	r2, r2, #32512	; 0x7f00
 8008422:	68a1      	ldr	r1, [r4, #8]
 8008424:	6963      	ldr	r3, [r4, #20]
 8008426:	085b      	lsrs	r3, r3, #1
 8008428:	3b01      	subs	r3, #1
 800842a:	065b      	lsls	r3, r3, #25
 800842c:	ea43 2301 	orr.w	r3, r3, r1, lsl #8
 8008430:	431a      	orrs	r2, r3
 8008432:	6102      	str	r2, [r0, #16]
 8008434:	e7ac      	b.n	8008390 <RCCEx_PLLSAI1_Config+0xa0>
        MODIFY_REG(RCC->PLLSAI1CFGR,
 8008436:	4809      	ldr	r0, [pc, #36]	; (800845c <RCCEx_PLLSAI1_Config+0x16c>)
 8008438:	6902      	ldr	r2, [r0, #16]
 800843a:	f422 02c0 	bic.w	r2, r2, #6291456	; 0x600000
 800843e:	f422 42fe 	bic.w	r2, r2, #32512	; 0x7f00
 8008442:	68a1      	ldr	r1, [r4, #8]
 8008444:	6923      	ldr	r3, [r4, #16]
 8008446:	085b      	lsrs	r3, r3, #1
 8008448:	3b01      	subs	r3, #1
 800844a:	055b      	lsls	r3, r3, #21
 800844c:	ea43 2301 	orr.w	r3, r3, r1, lsl #8
 8008450:	431a      	orrs	r2, r3
 8008452:	6102      	str	r2, [r0, #16]
 8008454:	e79c      	b.n	8008390 <RCCEx_PLLSAI1_Config+0xa0>
      status = HAL_ERROR;
 8008456:	2501      	movs	r5, #1
 8008458:	e75a      	b.n	8008310 <RCCEx_PLLSAI1_Config+0x20>
 800845a:	bf00      	nop
 800845c:	40021000 	.word	0x40021000

08008460 <RCCEx_PLLSAI2_Config>:
  * @note   PLLSAI2 is temporary disable to apply new parameters
  *
  * @retval HAL status
  */
static HAL_StatusTypeDef RCCEx_PLLSAI2_Config(RCC_PLLSAI2InitTypeDef *PllSai2, uint32_t Divider)
{
 8008460:	b5f8      	push	{r3, r4, r5, r6, r7, lr}
 8008462:	4604      	mov	r4, r0
 8008464:	460f      	mov	r7, r1
  assert_param(IS_RCC_PLLSAI2M_VALUE(PllSai2->PLLSAI2M));
  assert_param(IS_RCC_PLLSAI2N_VALUE(PllSai2->PLLSAI2N));
  assert_param(IS_RCC_PLLSAI2CLOCKOUT_VALUE(PllSai2->PLLSAI2ClockOut));

  /* Check that PLLSAI2 clock source and divider M can be applied */
  if(__HAL_RCC_GET_PLL_OSCSOURCE() != RCC_PLLSOURCE_NONE)
 8008466:	4b50      	ldr	r3, [pc, #320]	; (80085a8 <RCCEx_PLLSAI2_Config+0x148>)
 8008468:	68db      	ldr	r3, [r3, #12]
 800846a:	f013 0f03 	tst.w	r3, #3
 800846e:	d018      	beq.n	80084a2 <RCCEx_PLLSAI2_Config+0x42>
  {
    /* PLL clock source and divider M already set, check that no request for change  */
    if((__HAL_RCC_GET_PLL_OSCSOURCE() != PllSai2->PLLSAI2Source)
 8008470:	4b4d      	ldr	r3, [pc, #308]	; (80085a8 <RCCEx_PLLSAI2_Config+0x148>)
 8008472:	68db      	ldr	r3, [r3, #12]
 8008474:	f003 0303 	and.w	r3, r3, #3
 8008478:	6802      	ldr	r2, [r0, #0]
 800847a:	4293      	cmp	r3, r2
 800847c:	d002      	beq.n	8008484 <RCCEx_PLLSAI2_Config+0x24>
       ||
       (((READ_BIT(RCC->PLLCFGR, RCC_PLLCFGR_PLLM) >> RCC_PLLCFGR_PLLM_Pos) + 1U) != PllSai2->PLLSAI2M)
#endif
      )
    {
      status = HAL_ERROR;
 800847e:	2501      	movs	r5, #1
      }
    }
  }

  return status;
}
 8008480:	4628      	mov	r0, r5
 8008482:	bdf8      	pop	{r3, r4, r5, r6, r7, pc}
       ||
 8008484:	2a00      	cmp	r2, #0
 8008486:	f000 808c 	beq.w	80085a2 <RCCEx_PLLSAI2_Config+0x142>
       (((READ_BIT(RCC->PLLCFGR, RCC_PLLCFGR_PLLM) >> RCC_PLLCFGR_PLLM_Pos) + 1U) != PllSai2->PLLSAI2M)
 800848a:	4b47      	ldr	r3, [pc, #284]	; (80085a8 <RCCEx_PLLSAI2_Config+0x148>)
 800848c:	68db      	ldr	r3, [r3, #12]
 800848e:	f3c3 1302 	ubfx	r3, r3, #4, #3
 8008492:	3301      	adds	r3, #1
 8008494:	6842      	ldr	r2, [r0, #4]
       ||
 8008496:	4293      	cmp	r3, r2
 8008498:	d001      	beq.n	800849e <RCCEx_PLLSAI2_Config+0x3e>
      status = HAL_ERROR;
 800849a:	2501      	movs	r5, #1
 800849c:	e7f0      	b.n	8008480 <RCCEx_PLLSAI2_Config+0x20>
  HAL_StatusTypeDef status = HAL_OK;
 800849e:	2500      	movs	r5, #0
 80084a0:	e009      	b.n	80084b6 <RCCEx_PLLSAI2_Config+0x56>
    switch(PllSai2->PLLSAI2Source)
 80084a2:	6803      	ldr	r3, [r0, #0]
 80084a4:	2b02      	cmp	r3, #2
 80084a6:	d057      	beq.n	8008558 <RCCEx_PLLSAI2_Config+0xf8>
 80084a8:	2b03      	cmp	r3, #3
 80084aa:	d05c      	beq.n	8008566 <RCCEx_PLLSAI2_Config+0x106>
 80084ac:	2b01      	cmp	r3, #1
 80084ae:	d042      	beq.n	8008536 <RCCEx_PLLSAI2_Config+0xd6>
 80084b0:	2501      	movs	r5, #1
  if(status == HAL_OK)
 80084b2:	2d00      	cmp	r5, #0
 80084b4:	d1e4      	bne.n	8008480 <RCCEx_PLLSAI2_Config+0x20>
    __HAL_RCC_PLLSAI2_DISABLE();
 80084b6:	4a3c      	ldr	r2, [pc, #240]	; (80085a8 <RCCEx_PLLSAI2_Config+0x148>)
 80084b8:	6813      	ldr	r3, [r2, #0]
 80084ba:	f023 5380 	bic.w	r3, r3, #268435456	; 0x10000000
 80084be:	6013      	str	r3, [r2, #0]
    tickstart = HAL_GetTick();
 80084c0:	f7fe fb34 	bl	8006b2c <HAL_GetTick>
 80084c4:	4606      	mov	r6, r0
    while(READ_BIT(RCC->CR, RCC_CR_PLLSAI2RDY) != 0U)
 80084c6:	4b38      	ldr	r3, [pc, #224]	; (80085a8 <RCCEx_PLLSAI2_Config+0x148>)
 80084c8:	681b      	ldr	r3, [r3, #0]
 80084ca:	f013 5f00 	tst.w	r3, #536870912	; 0x20000000
 80084ce:	d005      	beq.n	80084dc <RCCEx_PLLSAI2_Config+0x7c>
      if((HAL_GetTick() - tickstart) > PLLSAI2_TIMEOUT_VALUE)
 80084d0:	f7fe fb2c 	bl	8006b2c <HAL_GetTick>
 80084d4:	1b83      	subs	r3, r0, r6
 80084d6:	2b02      	cmp	r3, #2
 80084d8:	d9f5      	bls.n	80084c6 <RCCEx_PLLSAI2_Config+0x66>
        status = HAL_TIMEOUT;
 80084da:	2503      	movs	r5, #3
    if(status == HAL_OK)
 80084dc:	2d00      	cmp	r5, #0
 80084de:	d1cf      	bne.n	8008480 <RCCEx_PLLSAI2_Config+0x20>
      if(Divider == DIVIDER_P_UPDATE)
 80084e0:	2f00      	cmp	r7, #0
 80084e2:	d14e      	bne.n	8008582 <RCCEx_PLLSAI2_Config+0x122>
        MODIFY_REG(RCC->PLLSAI2CFGR,
 80084e4:	4930      	ldr	r1, [pc, #192]	; (80085a8 <RCCEx_PLLSAI2_Config+0x148>)
 80084e6:	694b      	ldr	r3, [r1, #20]
 80084e8:	f423 331f 	bic.w	r3, r3, #162816	; 0x27c00
 80084ec:	f423 7340 	bic.w	r3, r3, #768	; 0x300
 80084f0:	68a0      	ldr	r0, [r4, #8]
 80084f2:	68e2      	ldr	r2, [r4, #12]
 80084f4:	0912      	lsrs	r2, r2, #4
 80084f6:	0452      	lsls	r2, r2, #17
 80084f8:	ea42 2200 	orr.w	r2, r2, r0, lsl #8
 80084fc:	4313      	orrs	r3, r2
 80084fe:	614b      	str	r3, [r1, #20]
      __HAL_RCC_PLLSAI2_ENABLE();
 8008500:	4a29      	ldr	r2, [pc, #164]	; (80085a8 <RCCEx_PLLSAI2_Config+0x148>)
 8008502:	6813      	ldr	r3, [r2, #0]
 8008504:	f043 5380 	orr.w	r3, r3, #268435456	; 0x10000000
 8008508:	6013      	str	r3, [r2, #0]
      tickstart = HAL_GetTick();
 800850a:	f7fe fb0f 	bl	8006b2c <HAL_GetTick>
 800850e:	4606      	mov	r6, r0
      while(READ_BIT(RCC->CR, RCC_CR_PLLSAI2RDY) == 0U)
 8008510:	4b25      	ldr	r3, [pc, #148]	; (80085a8 <RCCEx_PLLSAI2_Config+0x148>)
 8008512:	681b      	ldr	r3, [r3, #0]
 8008514:	f013 5f00 	tst.w	r3, #536870912	; 0x20000000
 8008518:	d105      	bne.n	8008526 <RCCEx_PLLSAI2_Config+0xc6>
        if((HAL_GetTick() - tickstart) > PLLSAI2_TIMEOUT_VALUE)
 800851a:	f7fe fb07 	bl	8006b2c <HAL_GetTick>
 800851e:	1b83      	subs	r3, r0, r6
 8008520:	2b02      	cmp	r3, #2
 8008522:	d9f5      	bls.n	8008510 <RCCEx_PLLSAI2_Config+0xb0>
          status = HAL_TIMEOUT;
 8008524:	2503      	movs	r5, #3
      if(status == HAL_OK)
 8008526:	2d00      	cmp	r5, #0
 8008528:	d1aa      	bne.n	8008480 <RCCEx_PLLSAI2_Config+0x20>
        __HAL_RCC_PLLSAI2CLKOUT_ENABLE(PllSai2->PLLSAI2ClockOut);
 800852a:	4a1f      	ldr	r2, [pc, #124]	; (80085a8 <RCCEx_PLLSAI2_Config+0x148>)
 800852c:	6953      	ldr	r3, [r2, #20]
 800852e:	6961      	ldr	r1, [r4, #20]
 8008530:	430b      	orrs	r3, r1
 8008532:	6153      	str	r3, [r2, #20]
 8008534:	e7a4      	b.n	8008480 <RCCEx_PLLSAI2_Config+0x20>
      if(HAL_IS_BIT_CLR(RCC->CR, RCC_CR_MSIRDY))
 8008536:	4a1c      	ldr	r2, [pc, #112]	; (80085a8 <RCCEx_PLLSAI2_Config+0x148>)
 8008538:	6812      	ldr	r2, [r2, #0]
 800853a:	f012 0f02 	tst.w	r2, #2
 800853e:	d01e      	beq.n	800857e <RCCEx_PLLSAI2_Config+0x11e>
      MODIFY_REG(RCC->PLLCFGR, RCC_PLLCFGR_PLLSRC | RCC_PLLCFGR_PLLM, PllSai2->PLLSAI2Source | (PllSai2->PLLSAI2M - 1U) << RCC_PLLCFGR_PLLM_Pos);
 8008540:	4819      	ldr	r0, [pc, #100]	; (80085a8 <RCCEx_PLLSAI2_Config+0x148>)
 8008542:	68c2      	ldr	r2, [r0, #12]
 8008544:	f022 0273 	bic.w	r2, r2, #115	; 0x73
 8008548:	6861      	ldr	r1, [r4, #4]
 800854a:	3901      	subs	r1, #1
 800854c:	ea43 1301 	orr.w	r3, r3, r1, lsl #4
 8008550:	4313      	orrs	r3, r2
 8008552:	60c3      	str	r3, [r0, #12]
 8008554:	2500      	movs	r5, #0
 8008556:	e7ac      	b.n	80084b2 <RCCEx_PLLSAI2_Config+0x52>
      if(HAL_IS_BIT_CLR(RCC->CR, RCC_CR_HSIRDY))
 8008558:	4a13      	ldr	r2, [pc, #76]	; (80085a8 <RCCEx_PLLSAI2_Config+0x148>)
 800855a:	6812      	ldr	r2, [r2, #0]
 800855c:	f412 6f80 	tst.w	r2, #1024	; 0x400
 8008560:	d1ee      	bne.n	8008540 <RCCEx_PLLSAI2_Config+0xe0>
        status = HAL_ERROR;
 8008562:	2501      	movs	r5, #1
 8008564:	e7a5      	b.n	80084b2 <RCCEx_PLLSAI2_Config+0x52>
      if(HAL_IS_BIT_CLR(RCC->CR, RCC_CR_HSERDY))
 8008566:	4a10      	ldr	r2, [pc, #64]	; (80085a8 <RCCEx_PLLSAI2_Config+0x148>)
 8008568:	6812      	ldr	r2, [r2, #0]
 800856a:	f412 3f00 	tst.w	r2, #131072	; 0x20000
 800856e:	d1e7      	bne.n	8008540 <RCCEx_PLLSAI2_Config+0xe0>
        if(HAL_IS_BIT_CLR(RCC->CR, RCC_CR_HSEBYP))
 8008570:	4a0d      	ldr	r2, [pc, #52]	; (80085a8 <RCCEx_PLLSAI2_Config+0x148>)
 8008572:	6812      	ldr	r2, [r2, #0]
 8008574:	f412 2f80 	tst.w	r2, #262144	; 0x40000
 8008578:	d1e2      	bne.n	8008540 <RCCEx_PLLSAI2_Config+0xe0>
          status = HAL_ERROR;
 800857a:	2501      	movs	r5, #1
 800857c:	e799      	b.n	80084b2 <RCCEx_PLLSAI2_Config+0x52>
        status = HAL_ERROR;
 800857e:	2501      	movs	r5, #1
 8008580:	e797      	b.n	80084b2 <RCCEx_PLLSAI2_Config+0x52>
        MODIFY_REG(RCC->PLLSAI2CFGR,
 8008582:	4809      	ldr	r0, [pc, #36]	; (80085a8 <RCCEx_PLLSAI2_Config+0x148>)
 8008584:	6942      	ldr	r2, [r0, #20]
 8008586:	f022 62c0 	bic.w	r2, r2, #100663296	; 0x6000000
 800858a:	f422 42fe 	bic.w	r2, r2, #32512	; 0x7f00
 800858e:	68a1      	ldr	r1, [r4, #8]
 8008590:	6923      	ldr	r3, [r4, #16]
 8008592:	085b      	lsrs	r3, r3, #1
 8008594:	3b01      	subs	r3, #1
 8008596:	065b      	lsls	r3, r3, #25
 8008598:	ea43 2301 	orr.w	r3, r3, r1, lsl #8
 800859c:	431a      	orrs	r2, r3
 800859e:	6142      	str	r2, [r0, #20]
 80085a0:	e7ae      	b.n	8008500 <RCCEx_PLLSAI2_Config+0xa0>
      status = HAL_ERROR;
 80085a2:	2501      	movs	r5, #1
 80085a4:	e76c      	b.n	8008480 <RCCEx_PLLSAI2_Config+0x20>
 80085a6:	bf00      	nop
 80085a8:	40021000 	.word	0x40021000

080085ac <HAL_RCCEx_PeriphCLKConfig>:
{
 80085ac:	e92d 41f0 	stmdb	sp!, {r4, r5, r6, r7, r8, lr}
 80085b0:	b082      	sub	sp, #8
 80085b2:	4604      	mov	r4, r0
  if((((PeriphClkInit->PeriphClockSelection) & RCC_PERIPHCLK_SAI1) == RCC_PERIPHCLK_SAI1))
 80085b4:	6803      	ldr	r3, [r0, #0]
 80085b6:	f413 6f00 	tst.w	r3, #2048	; 0x800
 80085ba:	d033      	beq.n	8008624 <HAL_RCCEx_PeriphCLKConfig+0x78>
    switch(PeriphClkInit->Sai1ClockSelection)
 80085bc:	6e43      	ldr	r3, [r0, #100]	; 0x64
 80085be:	f5b3 0f00 	cmp.w	r3, #8388608	; 0x800000
 80085c2:	d01f      	beq.n	8008604 <HAL_RCCEx_PeriphCLKConfig+0x58>
 80085c4:	d80c      	bhi.n	80085e0 <HAL_RCCEx_PeriphCLKConfig+0x34>
 80085c6:	b323      	cbz	r3, 8008612 <HAL_RCCEx_PeriphCLKConfig+0x66>
 80085c8:	f5b3 0f80 	cmp.w	r3, #4194304	; 0x400000
 80085cc:	d105      	bne.n	80085da <HAL_RCCEx_PeriphCLKConfig+0x2e>
      ret = RCCEx_PLLSAI2_Config(&(PeriphClkInit->PLLSAI2), DIVIDER_P_UPDATE);
 80085ce:	2100      	movs	r1, #0
 80085d0:	3020      	adds	r0, #32
 80085d2:	f7ff ff45 	bl	8008460 <RCCEx_PLLSAI2_Config>
 80085d6:	4606      	mov	r6, r0
      break;
 80085d8:	e020      	b.n	800861c <HAL_RCCEx_PeriphCLKConfig+0x70>
    switch(PeriphClkInit->Sai1ClockSelection)
 80085da:	2701      	movs	r7, #1
 80085dc:	463e      	mov	r6, r7
 80085de:	e023      	b.n	8008628 <HAL_RCCEx_PeriphCLKConfig+0x7c>
 80085e0:	f5b3 0f40 	cmp.w	r3, #12582912	; 0xc00000
 80085e4:	d10b      	bne.n	80085fe <HAL_RCCEx_PeriphCLKConfig+0x52>
 80085e6:	2600      	movs	r6, #0
      __HAL_RCC_SAI1_CONFIG(PeriphClkInit->Sai1ClockSelection);
 80085e8:	4a60      	ldr	r2, [pc, #384]	; (800876c <HAL_RCCEx_PeriphCLKConfig+0x1c0>)
 80085ea:	f8d2 3088 	ldr.w	r3, [r2, #136]	; 0x88
 80085ee:	f423 0340 	bic.w	r3, r3, #12582912	; 0xc00000
 80085f2:	6e61      	ldr	r1, [r4, #100]	; 0x64
 80085f4:	430b      	orrs	r3, r1
 80085f6:	f8c2 3088 	str.w	r3, [r2, #136]	; 0x88
  HAL_StatusTypeDef status = HAL_OK;   /* Final status */
 80085fa:	2700      	movs	r7, #0
 80085fc:	e014      	b.n	8008628 <HAL_RCCEx_PeriphCLKConfig+0x7c>
    switch(PeriphClkInit->Sai1ClockSelection)
 80085fe:	2701      	movs	r7, #1
 8008600:	463e      	mov	r6, r7
 8008602:	e011      	b.n	8008628 <HAL_RCCEx_PeriphCLKConfig+0x7c>
      __HAL_RCC_PLLCLKOUT_ENABLE(RCC_PLL_SAI3CLK);
 8008604:	4a59      	ldr	r2, [pc, #356]	; (800876c <HAL_RCCEx_PeriphCLKConfig+0x1c0>)
 8008606:	68d3      	ldr	r3, [r2, #12]
 8008608:	f443 3380 	orr.w	r3, r3, #65536	; 0x10000
 800860c:	60d3      	str	r3, [r2, #12]
  HAL_StatusTypeDef ret = HAL_OK;      /* Intermediate status */
 800860e:	2600      	movs	r6, #0
 8008610:	e7ea      	b.n	80085e8 <HAL_RCCEx_PeriphCLKConfig+0x3c>
      ret = RCCEx_PLLSAI1_Config(&(PeriphClkInit->PLLSAI1), DIVIDER_P_UPDATE);
 8008612:	2100      	movs	r1, #0
 8008614:	3004      	adds	r0, #4
 8008616:	f7ff fe6b 	bl	80082f0 <RCCEx_PLLSAI1_Config>
 800861a:	4606      	mov	r6, r0
    if(ret == HAL_OK)
 800861c:	2e00      	cmp	r6, #0
 800861e:	d0e3      	beq.n	80085e8 <HAL_RCCEx_PeriphCLKConfig+0x3c>
 8008620:	4637      	mov	r7, r6
 8008622:	e001      	b.n	8008628 <HAL_RCCEx_PeriphCLKConfig+0x7c>
  HAL_StatusTypeDef status = HAL_OK;   /* Final status */
 8008624:	2700      	movs	r7, #0
  HAL_StatusTypeDef ret = HAL_OK;      /* Intermediate status */
 8008626:	463e      	mov	r6, r7
  if((((PeriphClkInit->PeriphClockSelection) & RCC_PERIPHCLK_SAI2) == RCC_PERIPHCLK_SAI2))
 8008628:	6823      	ldr	r3, [r4, #0]
 800862a:	f413 5f80 	tst.w	r3, #4096	; 0x1000
 800862e:	d030      	beq.n	8008692 <HAL_RCCEx_PeriphCLKConfig+0xe6>
    switch(PeriphClkInit->Sai2ClockSelection)
 8008630:	6ea3      	ldr	r3, [r4, #104]	; 0x68
 8008632:	f1b3 7f00 	cmp.w	r3, #33554432	; 0x2000000
 8008636:	d01f      	beq.n	8008678 <HAL_RCCEx_PeriphCLKConfig+0xcc>
 8008638:	d80d      	bhi.n	8008656 <HAL_RCCEx_PeriphCLKConfig+0xaa>
 800863a:	b31b      	cbz	r3, 8008684 <HAL_RCCEx_PeriphCLKConfig+0xd8>
 800863c:	f1b3 7f80 	cmp.w	r3, #16777216	; 0x1000000
 8008640:	d106      	bne.n	8008650 <HAL_RCCEx_PeriphCLKConfig+0xa4>
      ret = RCCEx_PLLSAI2_Config(&(PeriphClkInit->PLLSAI2), DIVIDER_P_UPDATE);
 8008642:	2100      	movs	r1, #0
 8008644:	f104 0020 	add.w	r0, r4, #32
 8008648:	f7ff ff0a 	bl	8008460 <RCCEx_PLLSAI2_Config>
 800864c:	4606      	mov	r6, r0
      break;
 800864e:	e005      	b.n	800865c <HAL_RCCEx_PeriphCLKConfig+0xb0>
    switch(PeriphClkInit->Sai2ClockSelection)
 8008650:	2701      	movs	r7, #1
 8008652:	463e      	mov	r6, r7
 8008654:	e01d      	b.n	8008692 <HAL_RCCEx_PeriphCLKConfig+0xe6>
 8008656:	f1b3 7f40 	cmp.w	r3, #50331648	; 0x3000000
 800865a:	d10a      	bne.n	8008672 <HAL_RCCEx_PeriphCLKConfig+0xc6>
    if(ret == HAL_OK)
 800865c:	b9c6      	cbnz	r6, 8008690 <HAL_RCCEx_PeriphCLKConfig+0xe4>
      __HAL_RCC_SAI2_CONFIG(PeriphClkInit->Sai2ClockSelection);
 800865e:	4a43      	ldr	r2, [pc, #268]	; (800876c <HAL_RCCEx_PeriphCLKConfig+0x1c0>)
 8008660:	f8d2 3088 	ldr.w	r3, [r2, #136]	; 0x88
 8008664:	f023 7340 	bic.w	r3, r3, #50331648	; 0x3000000
 8008668:	6ea1      	ldr	r1, [r4, #104]	; 0x68
 800866a:	430b      	orrs	r3, r1
 800866c:	f8c2 3088 	str.w	r3, [r2, #136]	; 0x88
 8008670:	e00f      	b.n	8008692 <HAL_RCCEx_PeriphCLKConfig+0xe6>
    switch(PeriphClkInit->Sai2ClockSelection)
 8008672:	2701      	movs	r7, #1
 8008674:	463e      	mov	r6, r7
 8008676:	e00c      	b.n	8008692 <HAL_RCCEx_PeriphCLKConfig+0xe6>
      __HAL_RCC_PLLCLKOUT_ENABLE(RCC_PLL_SAI3CLK);
 8008678:	4a3c      	ldr	r2, [pc, #240]	; (800876c <HAL_RCCEx_PeriphCLKConfig+0x1c0>)
 800867a:	68d3      	ldr	r3, [r2, #12]
 800867c:	f443 3380 	orr.w	r3, r3, #65536	; 0x10000
 8008680:	60d3      	str	r3, [r2, #12]
      break;
 8008682:	e7eb      	b.n	800865c <HAL_RCCEx_PeriphCLKConfig+0xb0>
      ret = RCCEx_PLLSAI1_Config(&(PeriphClkInit->PLLSAI1), DIVIDER_P_UPDATE);
 8008684:	2100      	movs	r1, #0
 8008686:	1d20      	adds	r0, r4, #4
 8008688:	f7ff fe32 	bl	80082f0 <RCCEx_PLLSAI1_Config>
 800868c:	4606      	mov	r6, r0
      break;
 800868e:	e7e5      	b.n	800865c <HAL_RCCEx_PeriphCLKConfig+0xb0>
 8008690:	4637      	mov	r7, r6
  if((PeriphClkInit->PeriphClockSelection & RCC_PERIPHCLK_RTC) == RCC_PERIPHCLK_RTC)
 8008692:	6823      	ldr	r3, [r4, #0]
 8008694:	f413 3f00 	tst.w	r3, #131072	; 0x20000
 8008698:	d071      	beq.n	800877e <HAL_RCCEx_PeriphCLKConfig+0x1d2>
    if(__HAL_RCC_PWR_IS_CLK_DISABLED() != 0U)
 800869a:	4b34      	ldr	r3, [pc, #208]	; (800876c <HAL_RCCEx_PeriphCLKConfig+0x1c0>)
 800869c:	6d9b      	ldr	r3, [r3, #88]	; 0x58
 800869e:	f013 5f80 	tst.w	r3, #268435456	; 0x10000000
 80086a2:	d14e      	bne.n	8008742 <HAL_RCCEx_PeriphCLKConfig+0x196>
      __HAL_RCC_PWR_CLK_ENABLE();
 80086a4:	4b31      	ldr	r3, [pc, #196]	; (800876c <HAL_RCCEx_PeriphCLKConfig+0x1c0>)
 80086a6:	6d9a      	ldr	r2, [r3, #88]	; 0x58
 80086a8:	f042 5280 	orr.w	r2, r2, #268435456	; 0x10000000
 80086ac:	659a      	str	r2, [r3, #88]	; 0x58
 80086ae:	6d9b      	ldr	r3, [r3, #88]	; 0x58
 80086b0:	f003 5380 	and.w	r3, r3, #268435456	; 0x10000000
 80086b4:	9301      	str	r3, [sp, #4]
 80086b6:	9b01      	ldr	r3, [sp, #4]
      pwrclkchanged = SET;
 80086b8:	f04f 0801 	mov.w	r8, #1
    SET_BIT(PWR->CR1, PWR_CR1_DBP);
 80086bc:	4a2c      	ldr	r2, [pc, #176]	; (8008770 <HAL_RCCEx_PeriphCLKConfig+0x1c4>)
 80086be:	6813      	ldr	r3, [r2, #0]
 80086c0:	f443 7380 	orr.w	r3, r3, #256	; 0x100
 80086c4:	6013      	str	r3, [r2, #0]
    tickstart = HAL_GetTick();
 80086c6:	f7fe fa31 	bl	8006b2c <HAL_GetTick>
 80086ca:	4605      	mov	r5, r0
    while(READ_BIT(PWR->CR1, PWR_CR1_DBP) == 0U)
 80086cc:	4b28      	ldr	r3, [pc, #160]	; (8008770 <HAL_RCCEx_PeriphCLKConfig+0x1c4>)
 80086ce:	681b      	ldr	r3, [r3, #0]
 80086d0:	f413 7f80 	tst.w	r3, #256	; 0x100
 80086d4:	d105      	bne.n	80086e2 <HAL_RCCEx_PeriphCLKConfig+0x136>
      if((HAL_GetTick() - tickstart) > RCC_DBP_TIMEOUT_VALUE)
 80086d6:	f7fe fa29 	bl	8006b2c <HAL_GetTick>
 80086da:	1b40      	subs	r0, r0, r5
 80086dc:	2802      	cmp	r0, #2
 80086de:	d9f5      	bls.n	80086cc <HAL_RCCEx_PeriphCLKConfig+0x120>
        ret = HAL_TIMEOUT;
 80086e0:	2603      	movs	r6, #3
    if(ret == HAL_OK)
 80086e2:	2e00      	cmp	r6, #0
 80086e4:	d146      	bne.n	8008774 <HAL_RCCEx_PeriphCLKConfig+0x1c8>
      tmpregister = READ_BIT(RCC->BDCR, RCC_BDCR_RTCSEL);
 80086e6:	4b21      	ldr	r3, [pc, #132]	; (800876c <HAL_RCCEx_PeriphCLKConfig+0x1c0>)
 80086e8:	f8d3 3090 	ldr.w	r3, [r3, #144]	; 0x90
      if((tmpregister != RCC_RTCCLKSOURCE_NONE) && (tmpregister != PeriphClkInit->RTCClockSelection))
 80086ec:	f413 7340 	ands.w	r3, r3, #768	; 0x300
 80086f0:	d016      	beq.n	8008720 <HAL_RCCEx_PeriphCLKConfig+0x174>
 80086f2:	f8d4 2084 	ldr.w	r2, [r4, #132]	; 0x84
 80086f6:	429a      	cmp	r2, r3
 80086f8:	d012      	beq.n	8008720 <HAL_RCCEx_PeriphCLKConfig+0x174>
        tmpregister = READ_BIT(RCC->BDCR, ~(RCC_BDCR_RTCSEL));
 80086fa:	4a1c      	ldr	r2, [pc, #112]	; (800876c <HAL_RCCEx_PeriphCLKConfig+0x1c0>)
 80086fc:	f8d2 3090 	ldr.w	r3, [r2, #144]	; 0x90
 8008700:	f423 7340 	bic.w	r3, r3, #768	; 0x300
        __HAL_RCC_BACKUPRESET_FORCE();
 8008704:	f8d2 1090 	ldr.w	r1, [r2, #144]	; 0x90
 8008708:	f441 3180 	orr.w	r1, r1, #65536	; 0x10000
 800870c:	f8c2 1090 	str.w	r1, [r2, #144]	; 0x90
        __HAL_RCC_BACKUPRESET_RELEASE();
 8008710:	f8d2 1090 	ldr.w	r1, [r2, #144]	; 0x90
 8008714:	f421 3180 	bic.w	r1, r1, #65536	; 0x10000
 8008718:	f8c2 1090 	str.w	r1, [r2, #144]	; 0x90
        RCC->BDCR = tmpregister;
 800871c:	f8c2 3090 	str.w	r3, [r2, #144]	; 0x90
      if (HAL_IS_BIT_SET(tmpregister, RCC_BDCR_LSEON))
 8008720:	f013 0f01 	tst.w	r3, #1
 8008724:	d110      	bne.n	8008748 <HAL_RCCEx_PeriphCLKConfig+0x19c>
      if(ret == HAL_OK)
 8008726:	2e00      	cmp	r6, #0
 8008728:	f040 8127 	bne.w	800897a <HAL_RCCEx_PeriphCLKConfig+0x3ce>
        __HAL_RCC_RTC_CONFIG(PeriphClkInit->RTCClockSelection);
 800872c:	4a0f      	ldr	r2, [pc, #60]	; (800876c <HAL_RCCEx_PeriphCLKConfig+0x1c0>)
 800872e:	f8d2 3090 	ldr.w	r3, [r2, #144]	; 0x90
 8008732:	f423 7340 	bic.w	r3, r3, #768	; 0x300
 8008736:	f8d4 1084 	ldr.w	r1, [r4, #132]	; 0x84
 800873a:	430b      	orrs	r3, r1
 800873c:	f8c2 3090 	str.w	r3, [r2, #144]	; 0x90
 8008740:	e019      	b.n	8008776 <HAL_RCCEx_PeriphCLKConfig+0x1ca>
    FlagStatus       pwrclkchanged = RESET;
 8008742:	f04f 0800 	mov.w	r8, #0
 8008746:	e7b9      	b.n	80086bc <HAL_RCCEx_PeriphCLKConfig+0x110>
        tickstart = HAL_GetTick();
 8008748:	f7fe f9f0 	bl	8006b2c <HAL_GetTick>
 800874c:	4605      	mov	r5, r0
        while(READ_BIT(RCC->BDCR, RCC_BDCR_LSERDY) == 0U)
 800874e:	4b07      	ldr	r3, [pc, #28]	; (800876c <HAL_RCCEx_PeriphCLKConfig+0x1c0>)
 8008750:	f8d3 3090 	ldr.w	r3, [r3, #144]	; 0x90
 8008754:	f013 0f02 	tst.w	r3, #2
 8008758:	d1e5      	bne.n	8008726 <HAL_RCCEx_PeriphCLKConfig+0x17a>
          if((HAL_GetTick() - tickstart) > RCC_LSE_TIMEOUT_VALUE)
 800875a:	f7fe f9e7 	bl	8006b2c <HAL_GetTick>
 800875e:	1b40      	subs	r0, r0, r5
 8008760:	f241 3388 	movw	r3, #5000	; 0x1388
 8008764:	4298      	cmp	r0, r3
 8008766:	d9f2      	bls.n	800874e <HAL_RCCEx_PeriphCLKConfig+0x1a2>
            ret = HAL_TIMEOUT;
 8008768:	2603      	movs	r6, #3
 800876a:	e7dc      	b.n	8008726 <HAL_RCCEx_PeriphCLKConfig+0x17a>
 800876c:	40021000 	.word	0x40021000
 8008770:	40007000 	.word	0x40007000
      status = ret;
 8008774:	4637      	mov	r7, r6
    if(pwrclkchanged == SET)
 8008776:	f1b8 0f00 	cmp.w	r8, #0
 800877a:	f040 8100 	bne.w	800897e <HAL_RCCEx_PeriphCLKConfig+0x3d2>
  if(((PeriphClkInit->PeriphClockSelection) & RCC_PERIPHCLK_USART1) == RCC_PERIPHCLK_USART1)
 800877e:	6823      	ldr	r3, [r4, #0]
 8008780:	f013 0f01 	tst.w	r3, #1
 8008784:	d008      	beq.n	8008798 <HAL_RCCEx_PeriphCLKConfig+0x1ec>
    __HAL_RCC_USART1_CONFIG(PeriphClkInit->Usart1ClockSelection);
 8008786:	4a9d      	ldr	r2, [pc, #628]	; (80089fc <HAL_RCCEx_PeriphCLKConfig+0x450>)
 8008788:	f8d2 3088 	ldr.w	r3, [r2, #136]	; 0x88
 800878c:	f023 0303 	bic.w	r3, r3, #3
 8008790:	6ba1      	ldr	r1, [r4, #56]	; 0x38
 8008792:	430b      	orrs	r3, r1
 8008794:	f8c2 3088 	str.w	r3, [r2, #136]	; 0x88
  if(((PeriphClkInit->PeriphClockSelection) & RCC_PERIPHCLK_USART2) == RCC_PERIPHCLK_USART2)
 8008798:	6823      	ldr	r3, [r4, #0]
 800879a:	f013 0f02 	tst.w	r3, #2
 800879e:	d008      	beq.n	80087b2 <HAL_RCCEx_PeriphCLKConfig+0x206>
    __HAL_RCC_USART2_CONFIG(PeriphClkInit->Usart2ClockSelection);
 80087a0:	4a96      	ldr	r2, [pc, #600]	; (80089fc <HAL_RCCEx_PeriphCLKConfig+0x450>)
 80087a2:	f8d2 3088 	ldr.w	r3, [r2, #136]	; 0x88
 80087a6:	f023 030c 	bic.w	r3, r3, #12
 80087aa:	6be1      	ldr	r1, [r4, #60]	; 0x3c
 80087ac:	430b      	orrs	r3, r1
 80087ae:	f8c2 3088 	str.w	r3, [r2, #136]	; 0x88
  if(((PeriphClkInit->PeriphClockSelection) & RCC_PERIPHCLK_USART3) == RCC_PERIPHCLK_USART3)
 80087b2:	6823      	ldr	r3, [r4, #0]
 80087b4:	f013 0f04 	tst.w	r3, #4
 80087b8:	d008      	beq.n	80087cc <HAL_RCCEx_PeriphCLKConfig+0x220>
    __HAL_RCC_USART3_CONFIG(PeriphClkInit->Usart3ClockSelection);
 80087ba:	4a90      	ldr	r2, [pc, #576]	; (80089fc <HAL_RCCEx_PeriphCLKConfig+0x450>)
 80087bc:	f8d2 3088 	ldr.w	r3, [r2, #136]	; 0x88
 80087c0:	f023 0330 	bic.w	r3, r3, #48	; 0x30
 80087c4:	6c21      	ldr	r1, [r4, #64]	; 0x40
 80087c6:	430b      	orrs	r3, r1
 80087c8:	f8c2 3088 	str.w	r3, [r2, #136]	; 0x88
  if(((PeriphClkInit->PeriphClockSelection) & RCC_PERIPHCLK_UART4) == RCC_PERIPHCLK_UART4)
 80087cc:	6823      	ldr	r3, [r4, #0]
 80087ce:	f013 0f08 	tst.w	r3, #8
 80087d2:	d008      	beq.n	80087e6 <HAL_RCCEx_PeriphCLKConfig+0x23a>
    __HAL_RCC_UART4_CONFIG(PeriphClkInit->Uart4ClockSelection);
 80087d4:	4a89      	ldr	r2, [pc, #548]	; (80089fc <HAL_RCCEx_PeriphCLKConfig+0x450>)
 80087d6:	f8d2 3088 	ldr.w	r3, [r2, #136]	; 0x88
 80087da:	f023 03c0 	bic.w	r3, r3, #192	; 0xc0
 80087de:	6c61      	ldr	r1, [r4, #68]	; 0x44
 80087e0:	430b      	orrs	r3, r1
 80087e2:	f8c2 3088 	str.w	r3, [r2, #136]	; 0x88
  if(((PeriphClkInit->PeriphClockSelection) & RCC_PERIPHCLK_UART5) == RCC_PERIPHCLK_UART5)
 80087e6:	6823      	ldr	r3, [r4, #0]
 80087e8:	f013 0f10 	tst.w	r3, #16
 80087ec:	d008      	beq.n	8008800 <HAL_RCCEx_PeriphCLKConfig+0x254>
    __HAL_RCC_UART5_CONFIG(PeriphClkInit->Uart5ClockSelection);
 80087ee:	4a83      	ldr	r2, [pc, #524]	; (80089fc <HAL_RCCEx_PeriphCLKConfig+0x450>)
 80087f0:	f8d2 3088 	ldr.w	r3, [r2, #136]	; 0x88
 80087f4:	f423 7340 	bic.w	r3, r3, #768	; 0x300
 80087f8:	6ca1      	ldr	r1, [r4, #72]	; 0x48
 80087fa:	430b      	orrs	r3, r1
 80087fc:	f8c2 3088 	str.w	r3, [r2, #136]	; 0x88
  if(((PeriphClkInit->PeriphClockSelection) & RCC_PERIPHCLK_LPUART1) == RCC_PERIPHCLK_LPUART1)
 8008800:	6823      	ldr	r3, [r4, #0]
 8008802:	f013 0f20 	tst.w	r3, #32
 8008806:	d008      	beq.n	800881a <HAL_RCCEx_PeriphCLKConfig+0x26e>
    __HAL_RCC_LPUART1_CONFIG(PeriphClkInit->Lpuart1ClockSelection);
 8008808:	4a7c      	ldr	r2, [pc, #496]	; (80089fc <HAL_RCCEx_PeriphCLKConfig+0x450>)
 800880a:	f8d2 3088 	ldr.w	r3, [r2, #136]	; 0x88
 800880e:	f423 6340 	bic.w	r3, r3, #3072	; 0xc00
 8008812:	6ce1      	ldr	r1, [r4, #76]	; 0x4c
 8008814:	430b      	orrs	r3, r1
 8008816:	f8c2 3088 	str.w	r3, [r2, #136]	; 0x88
  if(((PeriphClkInit->PeriphClockSelection) & RCC_PERIPHCLK_LPTIM1) == (RCC_PERIPHCLK_LPTIM1))
 800881a:	6823      	ldr	r3, [r4, #0]
 800881c:	f413 7f00 	tst.w	r3, #512	; 0x200
 8008820:	d008      	beq.n	8008834 <HAL_RCCEx_PeriphCLKConfig+0x288>
    __HAL_RCC_LPTIM1_CONFIG(PeriphClkInit->Lptim1ClockSelection);
 8008822:	4a76      	ldr	r2, [pc, #472]	; (80089fc <HAL_RCCEx_PeriphCLKConfig+0x450>)
 8008824:	f8d2 3088 	ldr.w	r3, [r2, #136]	; 0x88
 8008828:	f423 2340 	bic.w	r3, r3, #786432	; 0xc0000
 800882c:	6de1      	ldr	r1, [r4, #92]	; 0x5c
 800882e:	430b      	orrs	r3, r1
 8008830:	f8c2 3088 	str.w	r3, [r2, #136]	; 0x88
  if(((PeriphClkInit->PeriphClockSelection) & RCC_PERIPHCLK_LPTIM2) == (RCC_PERIPHCLK_LPTIM2))
 8008834:	6823      	ldr	r3, [r4, #0]
 8008836:	f413 6f80 	tst.w	r3, #1024	; 0x400
 800883a:	d008      	beq.n	800884e <HAL_RCCEx_PeriphCLKConfig+0x2a2>
    __HAL_RCC_LPTIM2_CONFIG(PeriphClkInit->Lptim2ClockSelection);
 800883c:	4a6f      	ldr	r2, [pc, #444]	; (80089fc <HAL_RCCEx_PeriphCLKConfig+0x450>)
 800883e:	f8d2 3088 	ldr.w	r3, [r2, #136]	; 0x88
 8008842:	f423 1340 	bic.w	r3, r3, #3145728	; 0x300000
 8008846:	6e21      	ldr	r1, [r4, #96]	; 0x60
 8008848:	430b      	orrs	r3, r1
 800884a:	f8c2 3088 	str.w	r3, [r2, #136]	; 0x88
  if(((PeriphClkInit->PeriphClockSelection) & RCC_PERIPHCLK_I2C1) == RCC_PERIPHCLK_I2C1)
 800884e:	6823      	ldr	r3, [r4, #0]
 8008850:	f013 0f40 	tst.w	r3, #64	; 0x40
 8008854:	d008      	beq.n	8008868 <HAL_RCCEx_PeriphCLKConfig+0x2bc>
    __HAL_RCC_I2C1_CONFIG(PeriphClkInit->I2c1ClockSelection);
 8008856:	4a69      	ldr	r2, [pc, #420]	; (80089fc <HAL_RCCEx_PeriphCLKConfig+0x450>)
 8008858:	f8d2 3088 	ldr.w	r3, [r2, #136]	; 0x88
 800885c:	f423 5340 	bic.w	r3, r3, #12288	; 0x3000
 8008860:	6d21      	ldr	r1, [r4, #80]	; 0x50
 8008862:	430b      	orrs	r3, r1
 8008864:	f8c2 3088 	str.w	r3, [r2, #136]	; 0x88
  if(((PeriphClkInit->PeriphClockSelection) & RCC_PERIPHCLK_I2C2) == RCC_PERIPHCLK_I2C2)
 8008868:	6823      	ldr	r3, [r4, #0]
 800886a:	f013 0f80 	tst.w	r3, #128	; 0x80
 800886e:	d008      	beq.n	8008882 <HAL_RCCEx_PeriphCLKConfig+0x2d6>
    __HAL_RCC_I2C2_CONFIG(PeriphClkInit->I2c2ClockSelection);
 8008870:	4a62      	ldr	r2, [pc, #392]	; (80089fc <HAL_RCCEx_PeriphCLKConfig+0x450>)
 8008872:	f8d2 3088 	ldr.w	r3, [r2, #136]	; 0x88
 8008876:	f423 4340 	bic.w	r3, r3, #49152	; 0xc000
 800887a:	6d61      	ldr	r1, [r4, #84]	; 0x54
 800887c:	430b      	orrs	r3, r1
 800887e:	f8c2 3088 	str.w	r3, [r2, #136]	; 0x88
  if(((PeriphClkInit->PeriphClockSelection) & RCC_PERIPHCLK_I2C3) == RCC_PERIPHCLK_I2C3)
 8008882:	6823      	ldr	r3, [r4, #0]
 8008884:	f413 7f80 	tst.w	r3, #256	; 0x100
 8008888:	d008      	beq.n	800889c <HAL_RCCEx_PeriphCLKConfig+0x2f0>
    __HAL_RCC_I2C3_CONFIG(PeriphClkInit->I2c3ClockSelection);
 800888a:	4a5c      	ldr	r2, [pc, #368]	; (80089fc <HAL_RCCEx_PeriphCLKConfig+0x450>)
 800888c:	f8d2 3088 	ldr.w	r3, [r2, #136]	; 0x88
 8008890:	f423 3340 	bic.w	r3, r3, #196608	; 0x30000
 8008894:	6da1      	ldr	r1, [r4, #88]	; 0x58
 8008896:	430b      	orrs	r3, r1
 8008898:	f8c2 3088 	str.w	r3, [r2, #136]	; 0x88
  if(((PeriphClkInit->PeriphClockSelection) & RCC_PERIPHCLK_USB) == (RCC_PERIPHCLK_USB))
 800889c:	6823      	ldr	r3, [r4, #0]
 800889e:	f413 5f00 	tst.w	r3, #8192	; 0x2000
 80088a2:	d00f      	beq.n	80088c4 <HAL_RCCEx_PeriphCLKConfig+0x318>
    __HAL_RCC_USB_CONFIG(PeriphClkInit->UsbClockSelection);
 80088a4:	4a55      	ldr	r2, [pc, #340]	; (80089fc <HAL_RCCEx_PeriphCLKConfig+0x450>)
 80088a6:	f8d2 3088 	ldr.w	r3, [r2, #136]	; 0x88
 80088aa:	f023 6340 	bic.w	r3, r3, #201326592	; 0xc000000
 80088ae:	6ee1      	ldr	r1, [r4, #108]	; 0x6c
 80088b0:	430b      	orrs	r3, r1
 80088b2:	f8c2 3088 	str.w	r3, [r2, #136]	; 0x88
    if(PeriphClkInit->UsbClockSelection == RCC_USBCLKSOURCE_PLL)
 80088b6:	6ee3      	ldr	r3, [r4, #108]	; 0x6c
 80088b8:	f1b3 6f00 	cmp.w	r3, #134217728	; 0x8000000
 80088bc:	d065      	beq.n	800898a <HAL_RCCEx_PeriphCLKConfig+0x3de>
      if(PeriphClkInit->UsbClockSelection == RCC_USBCLKSOURCE_PLLSAI1)
 80088be:	f1b3 6f80 	cmp.w	r3, #67108864	; 0x4000000
 80088c2:	d067      	beq.n	8008994 <HAL_RCCEx_PeriphCLKConfig+0x3e8>
  if(((PeriphClkInit->PeriphClockSelection) & RCC_PERIPHCLK_SDMMC1) == (RCC_PERIPHCLK_SDMMC1))
 80088c4:	6823      	ldr	r3, [r4, #0]
 80088c6:	f413 2f00 	tst.w	r3, #524288	; 0x80000
 80088ca:	d00f      	beq.n	80088ec <HAL_RCCEx_PeriphCLKConfig+0x340>
    __HAL_RCC_SDMMC1_CONFIG(PeriphClkInit->Sdmmc1ClockSelection);
 80088cc:	4a4b      	ldr	r2, [pc, #300]	; (80089fc <HAL_RCCEx_PeriphCLKConfig+0x450>)
 80088ce:	f8d2 3088 	ldr.w	r3, [r2, #136]	; 0x88
 80088d2:	f023 6340 	bic.w	r3, r3, #201326592	; 0xc000000
 80088d6:	6f21      	ldr	r1, [r4, #112]	; 0x70
 80088d8:	430b      	orrs	r3, r1
 80088da:	f8c2 3088 	str.w	r3, [r2, #136]	; 0x88
    if(PeriphClkInit->Sdmmc1ClockSelection == RCC_SDMMC1CLKSOURCE_PLL)   /* PLL "Q" ? */
 80088de:	6f23      	ldr	r3, [r4, #112]	; 0x70
 80088e0:	f1b3 6f00 	cmp.w	r3, #134217728	; 0x8000000
 80088e4:	d05e      	beq.n	80089a4 <HAL_RCCEx_PeriphCLKConfig+0x3f8>
    else if(PeriphClkInit->Sdmmc1ClockSelection == RCC_SDMMC1CLKSOURCE_PLLSAI1)
 80088e6:	f1b3 6f80 	cmp.w	r3, #67108864	; 0x4000000
 80088ea:	d060      	beq.n	80089ae <HAL_RCCEx_PeriphCLKConfig+0x402>
  if(((PeriphClkInit->PeriphClockSelection) & RCC_PERIPHCLK_RNG) == (RCC_PERIPHCLK_RNG))
 80088ec:	6823      	ldr	r3, [r4, #0]
 80088ee:	f413 2f80 	tst.w	r3, #262144	; 0x40000
 80088f2:	d00f      	beq.n	8008914 <HAL_RCCEx_PeriphCLKConfig+0x368>
    __HAL_RCC_RNG_CONFIG(PeriphClkInit->RngClockSelection);
 80088f4:	4a41      	ldr	r2, [pc, #260]	; (80089fc <HAL_RCCEx_PeriphCLKConfig+0x450>)
 80088f6:	f8d2 3088 	ldr.w	r3, [r2, #136]	; 0x88
 80088fa:	f023 6340 	bic.w	r3, r3, #201326592	; 0xc000000
 80088fe:	6f61      	ldr	r1, [r4, #116]	; 0x74
 8008900:	430b      	orrs	r3, r1
 8008902:	f8c2 3088 	str.w	r3, [r2, #136]	; 0x88
    if(PeriphClkInit->RngClockSelection == RCC_RNGCLKSOURCE_PLL)
 8008906:	6f63      	ldr	r3, [r4, #116]	; 0x74
 8008908:	f1b3 6f00 	cmp.w	r3, #134217728	; 0x8000000
 800890c:	d057      	beq.n	80089be <HAL_RCCEx_PeriphCLKConfig+0x412>
    else if(PeriphClkInit->RngClockSelection == RCC_RNGCLKSOURCE_PLLSAI1)
 800890e:	f1b3 6f80 	cmp.w	r3, #67108864	; 0x4000000
 8008912:	d059      	beq.n	80089c8 <HAL_RCCEx_PeriphCLKConfig+0x41c>
  if(((PeriphClkInit->PeriphClockSelection) & RCC_PERIPHCLK_ADC) == RCC_PERIPHCLK_ADC)
 8008914:	6823      	ldr	r3, [r4, #0]
 8008916:	f413 4f80 	tst.w	r3, #16384	; 0x4000
 800891a:	d00f      	beq.n	800893c <HAL_RCCEx_PeriphCLKConfig+0x390>
    __HAL_RCC_ADC_CONFIG(PeriphClkInit->AdcClockSelection);
 800891c:	4a37      	ldr	r2, [pc, #220]	; (80089fc <HAL_RCCEx_PeriphCLKConfig+0x450>)
 800891e:	f8d2 3088 	ldr.w	r3, [r2, #136]	; 0x88
 8008922:	f023 5340 	bic.w	r3, r3, #805306368	; 0x30000000
 8008926:	6fa1      	ldr	r1, [r4, #120]	; 0x78
 8008928:	430b      	orrs	r3, r1
 800892a:	f8c2 3088 	str.w	r3, [r2, #136]	; 0x88
    if(PeriphClkInit->AdcClockSelection == RCC_ADCCLKSOURCE_PLLSAI1)
 800892e:	6fa3      	ldr	r3, [r4, #120]	; 0x78
 8008930:	f1b3 5f80 	cmp.w	r3, #268435456	; 0x10000000
 8008934:	d050      	beq.n	80089d8 <HAL_RCCEx_PeriphCLKConfig+0x42c>
    else if(PeriphClkInit->AdcClockSelection == RCC_ADCCLKSOURCE_PLLSAI2)
 8008936:	f1b3 5f00 	cmp.w	r3, #536870912	; 0x20000000
 800893a:	d055      	beq.n	80089e8 <HAL_RCCEx_PeriphCLKConfig+0x43c>
  if(((PeriphClkInit->PeriphClockSelection) & RCC_PERIPHCLK_SWPMI1) == RCC_PERIPHCLK_SWPMI1)
 800893c:	6823      	ldr	r3, [r4, #0]
 800893e:	f413 4f00 	tst.w	r3, #32768	; 0x8000
 8008942:	d008      	beq.n	8008956 <HAL_RCCEx_PeriphCLKConfig+0x3aa>
    __HAL_RCC_SWPMI1_CONFIG(PeriphClkInit->Swpmi1ClockSelection);
 8008944:	4a2d      	ldr	r2, [pc, #180]	; (80089fc <HAL_RCCEx_PeriphCLKConfig+0x450>)
 8008946:	f8d2 3088 	ldr.w	r3, [r2, #136]	; 0x88
 800894a:	f023 4380 	bic.w	r3, r3, #1073741824	; 0x40000000
 800894e:	6fe1      	ldr	r1, [r4, #124]	; 0x7c
 8008950:	430b      	orrs	r3, r1
 8008952:	f8c2 3088 	str.w	r3, [r2, #136]	; 0x88
  if(((PeriphClkInit->PeriphClockSelection) & RCC_PERIPHCLK_DFSDM1) == RCC_PERIPHCLK_DFSDM1)
 8008956:	6823      	ldr	r3, [r4, #0]
 8008958:	f413 3f80 	tst.w	r3, #65536	; 0x10000
 800895c:	d009      	beq.n	8008972 <HAL_RCCEx_PeriphCLKConfig+0x3c6>
    __HAL_RCC_DFSDM1_CONFIG(PeriphClkInit->Dfsdm1ClockSelection);
 800895e:	4a27      	ldr	r2, [pc, #156]	; (80089fc <HAL_RCCEx_PeriphCLKConfig+0x450>)
 8008960:	f8d2 3088 	ldr.w	r3, [r2, #136]	; 0x88
 8008964:	f023 4300 	bic.w	r3, r3, #2147483648	; 0x80000000
 8008968:	f8d4 1080 	ldr.w	r1, [r4, #128]	; 0x80
 800896c:	430b      	orrs	r3, r1
 800896e:	f8c2 3088 	str.w	r3, [r2, #136]	; 0x88
}
 8008972:	4638      	mov	r0, r7
 8008974:	b002      	add	sp, #8
 8008976:	e8bd 81f0 	ldmia.w	sp!, {r4, r5, r6, r7, r8, pc}
        status = ret;
 800897a:	4637      	mov	r7, r6
 800897c:	e6fb      	b.n	8008776 <HAL_RCCEx_PeriphCLKConfig+0x1ca>
      __HAL_RCC_PWR_CLK_DISABLE();
 800897e:	4a1f      	ldr	r2, [pc, #124]	; (80089fc <HAL_RCCEx_PeriphCLKConfig+0x450>)
 8008980:	6d93      	ldr	r3, [r2, #88]	; 0x58
 8008982:	f023 5380 	bic.w	r3, r3, #268435456	; 0x10000000
 8008986:	6593      	str	r3, [r2, #88]	; 0x58
 8008988:	e6f9      	b.n	800877e <HAL_RCCEx_PeriphCLKConfig+0x1d2>
      __HAL_RCC_PLLCLKOUT_ENABLE(RCC_PLL_48M1CLK);
 800898a:	68d3      	ldr	r3, [r2, #12]
 800898c:	f443 1380 	orr.w	r3, r3, #1048576	; 0x100000
 8008990:	60d3      	str	r3, [r2, #12]
 8008992:	e797      	b.n	80088c4 <HAL_RCCEx_PeriphCLKConfig+0x318>
        ret = RCCEx_PLLSAI1_Config(&(PeriphClkInit->PLLSAI1), DIVIDER_Q_UPDATE);
 8008994:	2101      	movs	r1, #1
 8008996:	1d20      	adds	r0, r4, #4
 8008998:	f7ff fcaa 	bl	80082f0 <RCCEx_PLLSAI1_Config>
        if(ret != HAL_OK)
 800899c:	2800      	cmp	r0, #0
 800899e:	d091      	beq.n	80088c4 <HAL_RCCEx_PeriphCLKConfig+0x318>
          status = ret;
 80089a0:	4607      	mov	r7, r0
 80089a2:	e78f      	b.n	80088c4 <HAL_RCCEx_PeriphCLKConfig+0x318>
      __HAL_RCC_PLLCLKOUT_ENABLE(RCC_PLL_48M1CLK);
 80089a4:	68d3      	ldr	r3, [r2, #12]
 80089a6:	f443 1380 	orr.w	r3, r3, #1048576	; 0x100000
 80089aa:	60d3      	str	r3, [r2, #12]
 80089ac:	e79e      	b.n	80088ec <HAL_RCCEx_PeriphCLKConfig+0x340>
      ret = RCCEx_PLLSAI1_Config(&(PeriphClkInit->PLLSAI1), DIVIDER_Q_UPDATE);
 80089ae:	2101      	movs	r1, #1
 80089b0:	1d20      	adds	r0, r4, #4
 80089b2:	f7ff fc9d 	bl	80082f0 <RCCEx_PLLSAI1_Config>
      if(ret != HAL_OK)
 80089b6:	2800      	cmp	r0, #0
 80089b8:	d098      	beq.n	80088ec <HAL_RCCEx_PeriphCLKConfig+0x340>
        status = ret;
 80089ba:	4607      	mov	r7, r0
 80089bc:	e796      	b.n	80088ec <HAL_RCCEx_PeriphCLKConfig+0x340>
      __HAL_RCC_PLLCLKOUT_ENABLE(RCC_PLL_48M1CLK);
 80089be:	68d3      	ldr	r3, [r2, #12]
 80089c0:	f443 1380 	orr.w	r3, r3, #1048576	; 0x100000
 80089c4:	60d3      	str	r3, [r2, #12]
 80089c6:	e7a5      	b.n	8008914 <HAL_RCCEx_PeriphCLKConfig+0x368>
      ret = RCCEx_PLLSAI1_Config(&(PeriphClkInit->PLLSAI1), DIVIDER_Q_UPDATE);
 80089c8:	2101      	movs	r1, #1
 80089ca:	1d20      	adds	r0, r4, #4
 80089cc:	f7ff fc90 	bl	80082f0 <RCCEx_PLLSAI1_Config>
      if(ret != HAL_OK)
 80089d0:	2800      	cmp	r0, #0
 80089d2:	d09f      	beq.n	8008914 <HAL_RCCEx_PeriphCLKConfig+0x368>
        status = ret;
 80089d4:	4607      	mov	r7, r0
 80089d6:	e79d      	b.n	8008914 <HAL_RCCEx_PeriphCLKConfig+0x368>
      ret = RCCEx_PLLSAI1_Config(&(PeriphClkInit->PLLSAI1), DIVIDER_R_UPDATE);
 80089d8:	2102      	movs	r1, #2
 80089da:	1d20      	adds	r0, r4, #4
 80089dc:	f7ff fc88 	bl	80082f0 <RCCEx_PLLSAI1_Config>
      if(ret != HAL_OK)
 80089e0:	2800      	cmp	r0, #0
 80089e2:	d0ab      	beq.n	800893c <HAL_RCCEx_PeriphCLKConfig+0x390>
        status = ret;
 80089e4:	4607      	mov	r7, r0
 80089e6:	e7a9      	b.n	800893c <HAL_RCCEx_PeriphCLKConfig+0x390>
      ret = RCCEx_PLLSAI2_Config(&(PeriphClkInit->PLLSAI2), DIVIDER_R_UPDATE);
 80089e8:	2102      	movs	r1, #2
 80089ea:	f104 0020 	add.w	r0, r4, #32
 80089ee:	f7ff fd37 	bl	8008460 <RCCEx_PLLSAI2_Config>
      if(ret != HAL_OK)
 80089f2:	2800      	cmp	r0, #0
 80089f4:	d0a2      	beq.n	800893c <HAL_RCCEx_PeriphCLKConfig+0x390>
        status = ret;
 80089f6:	4607      	mov	r7, r0
 80089f8:	e7a0      	b.n	800893c <HAL_RCCEx_PeriphCLKConfig+0x390>
 80089fa:	bf00      	nop
 80089fc:	40021000 	.word	0x40021000

08008a00 <HAL_RCCEx_DisableLSECSS>:
  CLEAR_BIT(RCC->BDCR, RCC_BDCR_LSECSSON) ;
 8008a00:	4b05      	ldr	r3, [pc, #20]	; (8008a18 <HAL_RCCEx_DisableLSECSS+0x18>)
 8008a02:	f8d3 2090 	ldr.w	r2, [r3, #144]	; 0x90
 8008a06:	f022 0220 	bic.w	r2, r2, #32
 8008a0a:	f8c3 2090 	str.w	r2, [r3, #144]	; 0x90
  __HAL_RCC_DISABLE_IT(RCC_IT_LSECSS);
 8008a0e:	699a      	ldr	r2, [r3, #24]
 8008a10:	f422 7200 	bic.w	r2, r2, #512	; 0x200
 8008a14:	619a      	str	r2, [r3, #24]
}
 8008a16:	4770      	bx	lr
 8008a18:	40021000 	.word	0x40021000

08008a1c <HAL_RCCEx_EnableMSIPLLMode>:
  SET_BIT(RCC->CR, RCC_CR_MSIPLLEN) ;
 8008a1c:	4a02      	ldr	r2, [pc, #8]	; (8008a28 <HAL_RCCEx_EnableMSIPLLMode+0xc>)
 8008a1e:	6813      	ldr	r3, [r2, #0]
 8008a20:	f043 0304 	orr.w	r3, r3, #4
 8008a24:	6013      	str	r3, [r2, #0]
}
 8008a26:	4770      	bx	lr
 8008a28:	40021000 	.word	0x40021000

08008a2c <SPI_WaitFlagStateUntilTimeout>:
  * @param  Tickstart tick start value
  * @retval HAL status
  */
static HAL_StatusTypeDef SPI_WaitFlagStateUntilTimeout(SPI_HandleTypeDef *hspi, uint32_t Flag, FlagStatus State,
                                                       uint32_t Timeout, uint32_t Tickstart)
{
 8008a2c:	e92d 47f0 	stmdb	sp!, {r4, r5, r6, r7, r8, r9, sl, lr}
 8008a30:	b082      	sub	sp, #8
 8008a32:	4605      	mov	r5, r0
 8008a34:	4688      	mov	r8, r1
 8008a36:	4617      	mov	r7, r2
 8008a38:	461e      	mov	r6, r3
  __IO uint32_t count;
  uint32_t tmp_timeout;
  uint32_t tmp_tickstart;

  /* Adjust Timeout value  in case of end of transfer */
  tmp_timeout   = Timeout - (HAL_GetTick() - Tickstart);
 8008a3a:	f7fe f877 	bl	8006b2c <HAL_GetTick>
 8008a3e:	9b0a      	ldr	r3, [sp, #40]	; 0x28
 8008a40:	1a1b      	subs	r3, r3, r0
 8008a42:	eb03 0906 	add.w	r9, r3, r6
  tmp_tickstart = HAL_GetTick();
 8008a46:	f7fe f871 	bl	8006b2c <HAL_GetTick>
 8008a4a:	4682      	mov	sl, r0

  /* Calculate Timeout based on a software loop to avoid blocking issue if Systick is disabled */
  count = tmp_timeout * ((SystemCoreClock * 32U) >> 20U);
 8008a4c:	4b2a      	ldr	r3, [pc, #168]	; (8008af8 <SPI_WaitFlagStateUntilTimeout+0xcc>)
 8008a4e:	681b      	ldr	r3, [r3, #0]
 8008a50:	f3c3 33cb 	ubfx	r3, r3, #15, #12
 8008a54:	fb09 f303 	mul.w	r3, r9, r3
 8008a58:	9301      	str	r3, [sp, #4]

  while ((__HAL_SPI_GET_FLAG(hspi, Flag) ? SET : RESET) != State)
 8008a5a:	682b      	ldr	r3, [r5, #0]
 8008a5c:	689c      	ldr	r4, [r3, #8]
 8008a5e:	ea38 0404 	bics.w	r4, r8, r4
 8008a62:	bf0c      	ite	eq
 8008a64:	2301      	moveq	r3, #1
 8008a66:	2300      	movne	r3, #0
 8008a68:	42bb      	cmp	r3, r7
 8008a6a:	d040      	beq.n	8008aee <SPI_WaitFlagStateUntilTimeout+0xc2>
  {
    if (Timeout != HAL_MAX_DELAY)
 8008a6c:	f1b6 3fff 	cmp.w	r6, #4294967295
 8008a70:	d0f3      	beq.n	8008a5a <SPI_WaitFlagStateUntilTimeout+0x2e>
    {
      if (((HAL_GetTick() - tmp_tickstart) >= tmp_timeout) || (tmp_timeout == 0U))
 8008a72:	f7fe f85b 	bl	8006b2c <HAL_GetTick>
 8008a76:	eba0 000a 	sub.w	r0, r0, sl
 8008a7a:	4548      	cmp	r0, r9
 8008a7c:	d20a      	bcs.n	8008a94 <SPI_WaitFlagStateUntilTimeout+0x68>
 8008a7e:	f1b9 0f00 	cmp.w	r9, #0
 8008a82:	d007      	beq.n	8008a94 <SPI_WaitFlagStateUntilTimeout+0x68>
        __HAL_UNLOCK(hspi);

        return HAL_TIMEOUT;
      }
      /* If Systick is disabled or not incremented, deactivate timeout to go in disable loop procedure */
      if(count == 0U)
 8008a84:	9a01      	ldr	r2, [sp, #4]
 8008a86:	b102      	cbz	r2, 8008a8a <SPI_WaitFlagStateUntilTimeout+0x5e>
 8008a88:	464a      	mov	r2, r9
      {
        tmp_timeout = 0U;
      }
      count--;
 8008a8a:	9b01      	ldr	r3, [sp, #4]
 8008a8c:	3b01      	subs	r3, #1
 8008a8e:	9301      	str	r3, [sp, #4]
 8008a90:	4691      	mov	r9, r2
 8008a92:	e7e2      	b.n	8008a5a <SPI_WaitFlagStateUntilTimeout+0x2e>
        __HAL_SPI_DISABLE_IT(hspi, (SPI_IT_TXE | SPI_IT_RXNE | SPI_IT_ERR));
 8008a94:	682a      	ldr	r2, [r5, #0]
 8008a96:	6853      	ldr	r3, [r2, #4]
 8008a98:	f023 03e0 	bic.w	r3, r3, #224	; 0xe0
 8008a9c:	6053      	str	r3, [r2, #4]
        if ((hspi->Init.Mode == SPI_MODE_MASTER) && ((hspi->Init.Direction == SPI_DIRECTION_1LINE)
 8008a9e:	686b      	ldr	r3, [r5, #4]
 8008aa0:	f5b3 7f82 	cmp.w	r3, #260	; 0x104
 8008aa4:	d00b      	beq.n	8008abe <SPI_WaitFlagStateUntilTimeout+0x92>
        if (hspi->Init.CRCCalculation == SPI_CRCCALCULATION_ENABLE)
 8008aa6:	6aab      	ldr	r3, [r5, #40]	; 0x28
 8008aa8:	f5b3 5f00 	cmp.w	r3, #8192	; 0x2000
 8008aac:	d014      	beq.n	8008ad8 <SPI_WaitFlagStateUntilTimeout+0xac>
        hspi->State = HAL_SPI_STATE_READY;
 8008aae:	2301      	movs	r3, #1
 8008ab0:	f885 305d 	strb.w	r3, [r5, #93]	; 0x5d
        __HAL_UNLOCK(hspi);
 8008ab4:	2300      	movs	r3, #0
 8008ab6:	f885 305c 	strb.w	r3, [r5, #92]	; 0x5c
        return HAL_TIMEOUT;
 8008aba:	2003      	movs	r0, #3
 8008abc:	e018      	b.n	8008af0 <SPI_WaitFlagStateUntilTimeout+0xc4>
        if ((hspi->Init.Mode == SPI_MODE_MASTER) && ((hspi->Init.Direction == SPI_DIRECTION_1LINE)
 8008abe:	68ab      	ldr	r3, [r5, #8]
 8008ac0:	f5b3 4f00 	cmp.w	r3, #32768	; 0x8000
 8008ac4:	d002      	beq.n	8008acc <SPI_WaitFlagStateUntilTimeout+0xa0>
                                                     || (hspi->Init.Direction == SPI_DIRECTION_2LINES_RXONLY)))
 8008ac6:	f5b3 6f80 	cmp.w	r3, #1024	; 0x400
 8008aca:	d1ec      	bne.n	8008aa6 <SPI_WaitFlagStateUntilTimeout+0x7a>
          __HAL_SPI_DISABLE(hspi);
 8008acc:	682a      	ldr	r2, [r5, #0]
 8008ace:	6813      	ldr	r3, [r2, #0]
 8008ad0:	f023 0340 	bic.w	r3, r3, #64	; 0x40
 8008ad4:	6013      	str	r3, [r2, #0]
 8008ad6:	e7e6      	b.n	8008aa6 <SPI_WaitFlagStateUntilTimeout+0x7a>
          SPI_RESET_CRC(hspi);
 8008ad8:	682a      	ldr	r2, [r5, #0]
 8008ada:	6813      	ldr	r3, [r2, #0]
 8008adc:	f423 5300 	bic.w	r3, r3, #8192	; 0x2000
 8008ae0:	6013      	str	r3, [r2, #0]
 8008ae2:	682a      	ldr	r2, [r5, #0]
 8008ae4:	6813      	ldr	r3, [r2, #0]
 8008ae6:	f443 5300 	orr.w	r3, r3, #8192	; 0x2000
 8008aea:	6013      	str	r3, [r2, #0]
 8008aec:	e7df      	b.n	8008aae <SPI_WaitFlagStateUntilTimeout+0x82>
    }
  }

  return HAL_OK;
 8008aee:	2000      	movs	r0, #0
}
 8008af0:	b002      	add	sp, #8
 8008af2:	e8bd 87f0 	ldmia.w	sp!, {r4, r5, r6, r7, r8, r9, sl, pc}
 8008af6:	bf00      	nop
 8008af8:	2000007c 	.word	0x2000007c

08008afc <SPI_WaitFifoStateUntilTimeout>:
  * @param  Tickstart tick start value
  * @retval HAL status
  */
static HAL_StatusTypeDef SPI_WaitFifoStateUntilTimeout(SPI_HandleTypeDef *hspi, uint32_t Fifo, uint32_t State,
                                                       uint32_t Timeout, uint32_t Tickstart)
{
 8008afc:	e92d 47f0 	stmdb	sp!, {r4, r5, r6, r7, r8, r9, sl, lr}
 8008b00:	b082      	sub	sp, #8
 8008b02:	4607      	mov	r7, r0
 8008b04:	460d      	mov	r5, r1
 8008b06:	4616      	mov	r6, r2
 8008b08:	4698      	mov	r8, r3
  __IO uint32_t count;
  uint32_t tmp_timeout;
  uint32_t tmp_tickstart;

  /* Adjust Timeout value  in case of end of transfer */
  tmp_timeout = Timeout - (HAL_GetTick() - Tickstart);
 8008b0a:	f7fe f80f 	bl	8006b2c <HAL_GetTick>
 8008b0e:	9b0a      	ldr	r3, [sp, #40]	; 0x28
 8008b10:	1a1b      	subs	r3, r3, r0
 8008b12:	eb03 0908 	add.w	r9, r3, r8
  tmp_tickstart = HAL_GetTick();
 8008b16:	f7fe f809 	bl	8006b2c <HAL_GetTick>
 8008b1a:	4682      	mov	sl, r0

  /* Calculate Timeout based on a software loop to avoid blocking issue if Systick is disabled */
  count = tmp_timeout * ((SystemCoreClock * 35U) >> 20U);
 8008b1c:	4b2f      	ldr	r3, [pc, #188]	; (8008bdc <SPI_WaitFifoStateUntilTimeout+0xe0>)
 8008b1e:	681b      	ldr	r3, [r3, #0]
 8008b20:	eb03 0383 	add.w	r3, r3, r3, lsl #2
 8008b24:	ebc3 03c3 	rsb	r3, r3, r3, lsl #3
 8008b28:	0d1b      	lsrs	r3, r3, #20
 8008b2a:	fb09 f303 	mul.w	r3, r9, r3
 8008b2e:	9300      	str	r3, [sp, #0]

  while ((hspi->Instance->SR & Fifo) != State)
 8008b30:	e002      	b.n	8008b38 <SPI_WaitFifoStateUntilTimeout+0x3c>
      tmpreg = READ_REG(*((__IO uint8_t *)&hspi->Instance->DR));
      /* To avoid GCC warning */
      UNUSED(tmpreg);
    }

    if (Timeout != HAL_MAX_DELAY)
 8008b32:	f1b8 3fff 	cmp.w	r8, #4294967295
 8008b36:	d10f      	bne.n	8008b58 <SPI_WaitFifoStateUntilTimeout+0x5c>
  while ((hspi->Instance->SR & Fifo) != State)
 8008b38:	683b      	ldr	r3, [r7, #0]
 8008b3a:	689c      	ldr	r4, [r3, #8]
 8008b3c:	ea04 0c05 	and.w	ip, r4, r5
 8008b40:	45b4      	cmp	ip, r6
 8008b42:	d047      	beq.n	8008bd4 <SPI_WaitFifoStateUntilTimeout+0xd8>
    if ((Fifo == SPI_SR_FRLVL) && (State == SPI_FRLVL_EMPTY))
 8008b44:	f5b5 6fc0 	cmp.w	r5, #1536	; 0x600
 8008b48:	d1f3      	bne.n	8008b32 <SPI_WaitFifoStateUntilTimeout+0x36>
 8008b4a:	2e00      	cmp	r6, #0
 8008b4c:	d1f1      	bne.n	8008b32 <SPI_WaitFifoStateUntilTimeout+0x36>
      tmpreg = READ_REG(*((__IO uint8_t *)&hspi->Instance->DR));
 8008b4e:	7b1b      	ldrb	r3, [r3, #12]
 8008b50:	b2db      	uxtb	r3, r3
 8008b52:	9301      	str	r3, [sp, #4]
      UNUSED(tmpreg);
 8008b54:	9b01      	ldr	r3, [sp, #4]
 8008b56:	e7ec      	b.n	8008b32 <SPI_WaitFifoStateUntilTimeout+0x36>
    {
      if (((HAL_GetTick() - tmp_tickstart) >= tmp_timeout) || (tmp_timeout == 0U))
 8008b58:	f7fd ffe8 	bl	8006b2c <HAL_GetTick>
 8008b5c:	eba0 000a 	sub.w	r0, r0, sl
 8008b60:	4548      	cmp	r0, r9
 8008b62:	d20a      	bcs.n	8008b7a <SPI_WaitFifoStateUntilTimeout+0x7e>
 8008b64:	f1b9 0f00 	cmp.w	r9, #0
 8008b68:	d007      	beq.n	8008b7a <SPI_WaitFifoStateUntilTimeout+0x7e>
        __HAL_UNLOCK(hspi);

        return HAL_TIMEOUT;
      }
      /* If Systick is disabled or not incremented, deactivate timeout to go in disable loop procedure */
      if(count == 0U)
 8008b6a:	9a00      	ldr	r2, [sp, #0]
 8008b6c:	b102      	cbz	r2, 8008b70 <SPI_WaitFifoStateUntilTimeout+0x74>
 8008b6e:	464a      	mov	r2, r9
      {
        tmp_timeout = 0U;
      }      
      count--;
 8008b70:	9b00      	ldr	r3, [sp, #0]
 8008b72:	3b01      	subs	r3, #1
 8008b74:	9300      	str	r3, [sp, #0]
 8008b76:	4691      	mov	r9, r2
 8008b78:	e7de      	b.n	8008b38 <SPI_WaitFifoStateUntilTimeout+0x3c>
        __HAL_SPI_DISABLE_IT(hspi, (SPI_IT_TXE | SPI_IT_RXNE | SPI_IT_ERR));
 8008b7a:	683a      	ldr	r2, [r7, #0]
 8008b7c:	6853      	ldr	r3, [r2, #4]
 8008b7e:	f023 03e0 	bic.w	r3, r3, #224	; 0xe0
 8008b82:	6053      	str	r3, [r2, #4]
        if ((hspi->Init.Mode == SPI_MODE_MASTER) && ((hspi->Init.Direction == SPI_DIRECTION_1LINE)
 8008b84:	687b      	ldr	r3, [r7, #4]
 8008b86:	f5b3 7f82 	cmp.w	r3, #260	; 0x104
 8008b8a:	d00b      	beq.n	8008ba4 <SPI_WaitFifoStateUntilTimeout+0xa8>
        if (hspi->Init.CRCCalculation == SPI_CRCCALCULATION_ENABLE)
 8008b8c:	6abb      	ldr	r3, [r7, #40]	; 0x28
 8008b8e:	f5b3 5f00 	cmp.w	r3, #8192	; 0x2000
 8008b92:	d014      	beq.n	8008bbe <SPI_WaitFifoStateUntilTimeout+0xc2>
        hspi->State = HAL_SPI_STATE_READY;
 8008b94:	2301      	movs	r3, #1
 8008b96:	f887 305d 	strb.w	r3, [r7, #93]	; 0x5d
        __HAL_UNLOCK(hspi);
 8008b9a:	2300      	movs	r3, #0
 8008b9c:	f887 305c 	strb.w	r3, [r7, #92]	; 0x5c
        return HAL_TIMEOUT;
 8008ba0:	2003      	movs	r0, #3
 8008ba2:	e018      	b.n	8008bd6 <SPI_WaitFifoStateUntilTimeout+0xda>
        if ((hspi->Init.Mode == SPI_MODE_MASTER) && ((hspi->Init.Direction == SPI_DIRECTION_1LINE)
 8008ba4:	68bb      	ldr	r3, [r7, #8]
 8008ba6:	f5b3 4f00 	cmp.w	r3, #32768	; 0x8000
 8008baa:	d002      	beq.n	8008bb2 <SPI_WaitFifoStateUntilTimeout+0xb6>
                                                     || (hspi->Init.Direction == SPI_DIRECTION_2LINES_RXONLY)))
 8008bac:	f5b3 6f80 	cmp.w	r3, #1024	; 0x400
 8008bb0:	d1ec      	bne.n	8008b8c <SPI_WaitFifoStateUntilTimeout+0x90>
          __HAL_SPI_DISABLE(hspi);
 8008bb2:	683a      	ldr	r2, [r7, #0]
 8008bb4:	6813      	ldr	r3, [r2, #0]
 8008bb6:	f023 0340 	bic.w	r3, r3, #64	; 0x40
 8008bba:	6013      	str	r3, [r2, #0]
 8008bbc:	e7e6      	b.n	8008b8c <SPI_WaitFifoStateUntilTimeout+0x90>
          SPI_RESET_CRC(hspi);
 8008bbe:	683a      	ldr	r2, [r7, #0]
 8008bc0:	6813      	ldr	r3, [r2, #0]
 8008bc2:	f423 5300 	bic.w	r3, r3, #8192	; 0x2000
 8008bc6:	6013      	str	r3, [r2, #0]
 8008bc8:	683a      	ldr	r2, [r7, #0]
 8008bca:	6813      	ldr	r3, [r2, #0]
 8008bcc:	f443 5300 	orr.w	r3, r3, #8192	; 0x2000
 8008bd0:	6013      	str	r3, [r2, #0]
 8008bd2:	e7df      	b.n	8008b94 <SPI_WaitFifoStateUntilTimeout+0x98>
    }
  }

  return HAL_OK;
 8008bd4:	2000      	movs	r0, #0
}
 8008bd6:	b002      	add	sp, #8
 8008bd8:	e8bd 87f0 	ldmia.w	sp!, {r4, r5, r6, r7, r8, r9, sl, pc}
 8008bdc:	2000007c 	.word	0x2000007c

08008be0 <SPI_EndRxTxTransaction>:
  * @param  Timeout Timeout duration
  * @param  Tickstart tick start value
  * @retval HAL status
  */
static HAL_StatusTypeDef SPI_EndRxTxTransaction(SPI_HandleTypeDef *hspi, uint32_t Timeout, uint32_t Tickstart)
{
 8008be0:	b570      	push	{r4, r5, r6, lr}
 8008be2:	b082      	sub	sp, #8
 8008be4:	4604      	mov	r4, r0
 8008be6:	460d      	mov	r5, r1
 8008be8:	4616      	mov	r6, r2
  /* Control if the TX fifo is empty */
  if (SPI_WaitFifoStateUntilTimeout(hspi, SPI_FLAG_FTLVL, SPI_FTLVL_EMPTY, Timeout, Tickstart) != HAL_OK)
 8008bea:	9200      	str	r2, [sp, #0]
 8008bec:	460b      	mov	r3, r1
 8008bee:	2200      	movs	r2, #0
 8008bf0:	f44f 51c0 	mov.w	r1, #6144	; 0x1800
 8008bf4:	f7ff ff82 	bl	8008afc <SPI_WaitFifoStateUntilTimeout>
 8008bf8:	b9b0      	cbnz	r0, 8008c28 <SPI_EndRxTxTransaction+0x48>
    SET_BIT(hspi->ErrorCode, HAL_SPI_ERROR_FLAG);
    return HAL_TIMEOUT;
  }

  /* Control the BSY flag */
  if (SPI_WaitFlagStateUntilTimeout(hspi, SPI_FLAG_BSY, RESET, Timeout, Tickstart) != HAL_OK)
 8008bfa:	9600      	str	r6, [sp, #0]
 8008bfc:	462b      	mov	r3, r5
 8008bfe:	2200      	movs	r2, #0
 8008c00:	2180      	movs	r1, #128	; 0x80
 8008c02:	4620      	mov	r0, r4
 8008c04:	f7ff ff12 	bl	8008a2c <SPI_WaitFlagStateUntilTimeout>
 8008c08:	b9a8      	cbnz	r0, 8008c36 <SPI_EndRxTxTransaction+0x56>
    SET_BIT(hspi->ErrorCode, HAL_SPI_ERROR_FLAG);
    return HAL_TIMEOUT;
  }

  /* Control if the RX fifo is empty */
  if (SPI_WaitFifoStateUntilTimeout(hspi, SPI_FLAG_FRLVL, SPI_FRLVL_EMPTY, Timeout, Tickstart) != HAL_OK)
 8008c0a:	9600      	str	r6, [sp, #0]
 8008c0c:	462b      	mov	r3, r5
 8008c0e:	2200      	movs	r2, #0
 8008c10:	f44f 61c0 	mov.w	r1, #1536	; 0x600
 8008c14:	4620      	mov	r0, r4
 8008c16:	f7ff ff71 	bl	8008afc <SPI_WaitFifoStateUntilTimeout>
 8008c1a:	b150      	cbz	r0, 8008c32 <SPI_EndRxTxTransaction+0x52>
  {
    SET_BIT(hspi->ErrorCode, HAL_SPI_ERROR_FLAG);
 8008c1c:	6e23      	ldr	r3, [r4, #96]	; 0x60
 8008c1e:	f043 0320 	orr.w	r3, r3, #32
 8008c22:	6623      	str	r3, [r4, #96]	; 0x60
    return HAL_TIMEOUT;
 8008c24:	2003      	movs	r0, #3
 8008c26:	e004      	b.n	8008c32 <SPI_EndRxTxTransaction+0x52>
    SET_BIT(hspi->ErrorCode, HAL_SPI_ERROR_FLAG);
 8008c28:	6e23      	ldr	r3, [r4, #96]	; 0x60
 8008c2a:	f043 0320 	orr.w	r3, r3, #32
 8008c2e:	6623      	str	r3, [r4, #96]	; 0x60
    return HAL_TIMEOUT;
 8008c30:	2003      	movs	r0, #3
  }

  return HAL_OK;
}
 8008c32:	b002      	add	sp, #8
 8008c34:	bd70      	pop	{r4, r5, r6, pc}
    SET_BIT(hspi->ErrorCode, HAL_SPI_ERROR_FLAG);
 8008c36:	6e23      	ldr	r3, [r4, #96]	; 0x60
 8008c38:	f043 0320 	orr.w	r3, r3, #32
 8008c3c:	6623      	str	r3, [r4, #96]	; 0x60
    return HAL_TIMEOUT;
 8008c3e:	2003      	movs	r0, #3
 8008c40:	e7f7      	b.n	8008c32 <SPI_EndRxTxTransaction+0x52>

08008c42 <HAL_SPI_MspInit>:
}
 8008c42:	4770      	bx	lr

08008c44 <HAL_SPI_Init>:
  if (hspi == NULL)
 8008c44:	2800      	cmp	r0, #0
 8008c46:	f000 8089 	beq.w	8008d5c <HAL_SPI_Init+0x118>
{
 8008c4a:	b510      	push	{r4, lr}
 8008c4c:	4604      	mov	r4, r0
  if (hspi->Init.TIMode == SPI_TIMODE_DISABLE)
 8008c4e:	6a43      	ldr	r3, [r0, #36]	; 0x24
 8008c50:	b933      	cbnz	r3, 8008c60 <HAL_SPI_Init+0x1c>
    if (hspi->Init.Mode == SPI_MODE_MASTER)
 8008c52:	6843      	ldr	r3, [r0, #4]
 8008c54:	f5b3 7f82 	cmp.w	r3, #260	; 0x104
 8008c58:	d005      	beq.n	8008c66 <HAL_SPI_Init+0x22>
      hspi->Init.BaudRatePrescaler = SPI_BAUDRATEPRESCALER_2;
 8008c5a:	2300      	movs	r3, #0
 8008c5c:	61c3      	str	r3, [r0, #28]
 8008c5e:	e002      	b.n	8008c66 <HAL_SPI_Init+0x22>
    hspi->Init.CLKPolarity = SPI_POLARITY_LOW;
 8008c60:	2300      	movs	r3, #0
 8008c62:	6103      	str	r3, [r0, #16]
    hspi->Init.CLKPhase    = SPI_PHASE_1EDGE;
 8008c64:	6143      	str	r3, [r0, #20]
  if (hspi->State == HAL_SPI_STATE_RESET)
 8008c66:	f894 305d 	ldrb.w	r3, [r4, #93]	; 0x5d
 8008c6a:	2b00      	cmp	r3, #0
 8008c6c:	d055      	beq.n	8008d1a <HAL_SPI_Init+0xd6>
  hspi->State = HAL_SPI_STATE_BUSY;
 8008c6e:	2302      	movs	r3, #2
 8008c70:	f884 305d 	strb.w	r3, [r4, #93]	; 0x5d
  __HAL_SPI_DISABLE(hspi);
 8008c74:	6822      	ldr	r2, [r4, #0]
 8008c76:	6813      	ldr	r3, [r2, #0]
 8008c78:	f023 0340 	bic.w	r3, r3, #64	; 0x40
 8008c7c:	6013      	str	r3, [r2, #0]
  if (hspi->Init.DataSize > SPI_DATASIZE_8BIT)
 8008c7e:	68e3      	ldr	r3, [r4, #12]
 8008c80:	f5b3 6fe0 	cmp.w	r3, #1792	; 0x700
 8008c84:	d94f      	bls.n	8008d26 <HAL_SPI_Init+0xe2>
    frxth = SPI_RXFIFO_THRESHOLD_HF;
 8008c86:	2200      	movs	r2, #0
  if ((hspi->Init.DataSize != SPI_DATASIZE_16BIT) && (hspi->Init.DataSize != SPI_DATASIZE_8BIT))
 8008c88:	f5b3 6f70 	cmp.w	r3, #3840	; 0xf00
 8008c8c:	d004      	beq.n	8008c98 <HAL_SPI_Init+0x54>
 8008c8e:	f5b3 6fe0 	cmp.w	r3, #1792	; 0x700
 8008c92:	d001      	beq.n	8008c98 <HAL_SPI_Init+0x54>
    hspi->Init.CRCCalculation = SPI_CRCCALCULATION_DISABLE;
 8008c94:	2300      	movs	r3, #0
 8008c96:	62a3      	str	r3, [r4, #40]	; 0x28
  WRITE_REG(hspi->Instance->CR1, ((hspi->Init.Mode & (SPI_CR1_MSTR | SPI_CR1_SSI)) |
 8008c98:	6863      	ldr	r3, [r4, #4]
 8008c9a:	f403 7382 	and.w	r3, r3, #260	; 0x104
 8008c9e:	68a1      	ldr	r1, [r4, #8]
 8008ca0:	f401 4104 	and.w	r1, r1, #33792	; 0x8400
 8008ca4:	430b      	orrs	r3, r1
 8008ca6:	6921      	ldr	r1, [r4, #16]
 8008ca8:	f001 0102 	and.w	r1, r1, #2
 8008cac:	430b      	orrs	r3, r1
 8008cae:	6961      	ldr	r1, [r4, #20]
 8008cb0:	f001 0101 	and.w	r1, r1, #1
 8008cb4:	430b      	orrs	r3, r1
 8008cb6:	69a1      	ldr	r1, [r4, #24]
 8008cb8:	f401 7100 	and.w	r1, r1, #512	; 0x200
 8008cbc:	430b      	orrs	r3, r1
 8008cbe:	69e1      	ldr	r1, [r4, #28]
 8008cc0:	f001 0138 	and.w	r1, r1, #56	; 0x38
 8008cc4:	430b      	orrs	r3, r1
 8008cc6:	6a21      	ldr	r1, [r4, #32]
 8008cc8:	f001 0180 	and.w	r1, r1, #128	; 0x80
 8008ccc:	430b      	orrs	r3, r1
 8008cce:	6aa1      	ldr	r1, [r4, #40]	; 0x28
 8008cd0:	f401 5100 	and.w	r1, r1, #8192	; 0x2000
 8008cd4:	6820      	ldr	r0, [r4, #0]
 8008cd6:	430b      	orrs	r3, r1
 8008cd8:	6003      	str	r3, [r0, #0]
  if (hspi->Init.CRCCalculation == SPI_CRCCALCULATION_ENABLE)
 8008cda:	6aa3      	ldr	r3, [r4, #40]	; 0x28
 8008cdc:	f5b3 5f00 	cmp.w	r3, #8192	; 0x2000
 8008ce0:	d024      	beq.n	8008d2c <HAL_SPI_Init+0xe8>
  WRITE_REG(hspi->Instance->CR2, (((hspi->Init.NSS >> 16U) & SPI_CR2_SSOE) |
 8008ce2:	8b63      	ldrh	r3, [r4, #26]
 8008ce4:	f003 0304 	and.w	r3, r3, #4
 8008ce8:	6a61      	ldr	r1, [r4, #36]	; 0x24
 8008cea:	f001 0110 	and.w	r1, r1, #16
 8008cee:	430b      	orrs	r3, r1
 8008cf0:	6b61      	ldr	r1, [r4, #52]	; 0x34
 8008cf2:	f001 0108 	and.w	r1, r1, #8
 8008cf6:	430b      	orrs	r3, r1
 8008cf8:	68e1      	ldr	r1, [r4, #12]
 8008cfa:	f401 6170 	and.w	r1, r1, #3840	; 0xf00
 8008cfe:	430b      	orrs	r3, r1
 8008d00:	6821      	ldr	r1, [r4, #0]
 8008d02:	431a      	orrs	r2, r3
 8008d04:	604a      	str	r2, [r1, #4]
  if (hspi->Init.CRCCalculation == SPI_CRCCALCULATION_ENABLE)
 8008d06:	6aa3      	ldr	r3, [r4, #40]	; 0x28
 8008d08:	f5b3 5f00 	cmp.w	r3, #8192	; 0x2000
 8008d0c:	d022      	beq.n	8008d54 <HAL_SPI_Init+0x110>
  hspi->ErrorCode = HAL_SPI_ERROR_NONE;
 8008d0e:	2000      	movs	r0, #0
 8008d10:	6620      	str	r0, [r4, #96]	; 0x60
  hspi->State     = HAL_SPI_STATE_READY;
 8008d12:	2301      	movs	r3, #1
 8008d14:	f884 305d 	strb.w	r3, [r4, #93]	; 0x5d
}
 8008d18:	bd10      	pop	{r4, pc}
    hspi->Lock = HAL_UNLOCKED;
 8008d1a:	f884 305c 	strb.w	r3, [r4, #92]	; 0x5c
    HAL_SPI_MspInit(hspi);
 8008d1e:	4620      	mov	r0, r4
 8008d20:	f7ff ff8f 	bl	8008c42 <HAL_SPI_MspInit>
 8008d24:	e7a3      	b.n	8008c6e <HAL_SPI_Init+0x2a>
    frxth = SPI_RXFIFO_THRESHOLD_QF;
 8008d26:	f44f 5280 	mov.w	r2, #4096	; 0x1000
 8008d2a:	e7ad      	b.n	8008c88 <HAL_SPI_Init+0x44>
    if (hspi->Init.CRCLength == SPI_CRC_LENGTH_DATASIZE)
 8008d2c:	6b23      	ldr	r3, [r4, #48]	; 0x30
 8008d2e:	b92b      	cbnz	r3, 8008d3c <HAL_SPI_Init+0xf8>
      if (hspi->Init.DataSize > SPI_DATASIZE_8BIT)
 8008d30:	68e3      	ldr	r3, [r4, #12]
 8008d32:	f5b3 6fe0 	cmp.w	r3, #1792	; 0x700
 8008d36:	d90a      	bls.n	8008d4e <HAL_SPI_Init+0x10a>
        hspi->Init.CRCLength = SPI_CRC_LENGTH_16BIT;
 8008d38:	2302      	movs	r3, #2
 8008d3a:	6323      	str	r3, [r4, #48]	; 0x30
    if (hspi->Init.CRCLength == SPI_CRC_LENGTH_16BIT)
 8008d3c:	6b23      	ldr	r3, [r4, #48]	; 0x30
 8008d3e:	2b02      	cmp	r3, #2
 8008d40:	d1cf      	bne.n	8008ce2 <HAL_SPI_Init+0x9e>
      SET_BIT(hspi->Instance->CR1, SPI_CR1_CRCL);
 8008d42:	6821      	ldr	r1, [r4, #0]
 8008d44:	680b      	ldr	r3, [r1, #0]
 8008d46:	f443 6300 	orr.w	r3, r3, #2048	; 0x800
 8008d4a:	600b      	str	r3, [r1, #0]
 8008d4c:	e7c9      	b.n	8008ce2 <HAL_SPI_Init+0x9e>
        hspi->Init.CRCLength = SPI_CRC_LENGTH_8BIT;
 8008d4e:	2301      	movs	r3, #1
 8008d50:	6323      	str	r3, [r4, #48]	; 0x30
 8008d52:	e7f3      	b.n	8008d3c <HAL_SPI_Init+0xf8>
    WRITE_REG(hspi->Instance->CRCPR, (hspi->Init.CRCPolynomial & SPI_CRCPR_CRCPOLY_Msk));
 8008d54:	6823      	ldr	r3, [r4, #0]
 8008d56:	8da2      	ldrh	r2, [r4, #44]	; 0x2c
 8008d58:	611a      	str	r2, [r3, #16]
 8008d5a:	e7d8      	b.n	8008d0e <HAL_SPI_Init+0xca>
    return HAL_ERROR;
 8008d5c:	2001      	movs	r0, #1
}
 8008d5e:	4770      	bx	lr

08008d60 <HAL_SPI_Transmit>:
{
 8008d60:	e92d 43f0 	stmdb	sp!, {r4, r5, r6, r7, r8, r9, lr}
 8008d64:	b083      	sub	sp, #12
 8008d66:	461d      	mov	r5, r3
  __HAL_LOCK(hspi);
 8008d68:	f890 305c 	ldrb.w	r3, [r0, #92]	; 0x5c
 8008d6c:	2b01      	cmp	r3, #1
 8008d6e:	f000 810f 	beq.w	8008f90 <HAL_SPI_Transmit+0x230>
 8008d72:	4604      	mov	r4, r0
 8008d74:	4688      	mov	r8, r1
 8008d76:	4691      	mov	r9, r2
 8008d78:	2301      	movs	r3, #1
 8008d7a:	f880 305c 	strb.w	r3, [r0, #92]	; 0x5c
  tickstart = HAL_GetTick();
 8008d7e:	f7fd fed5 	bl	8006b2c <HAL_GetTick>
 8008d82:	4607      	mov	r7, r0
  if (hspi->State != HAL_SPI_STATE_READY)
 8008d84:	f894 605d 	ldrb.w	r6, [r4, #93]	; 0x5d
 8008d88:	b2f6      	uxtb	r6, r6
 8008d8a:	2e01      	cmp	r6, #1
 8008d8c:	f040 80ed 	bne.w	8008f6a <HAL_SPI_Transmit+0x20a>
  if ((pData == NULL) || (Size == 0U))
 8008d90:	f1b8 0f00 	cmp.w	r8, #0
 8008d94:	f000 80ea 	beq.w	8008f6c <HAL_SPI_Transmit+0x20c>
 8008d98:	f1b9 0f00 	cmp.w	r9, #0
 8008d9c:	f000 80e6 	beq.w	8008f6c <HAL_SPI_Transmit+0x20c>
  hspi->State       = HAL_SPI_STATE_BUSY_TX;
 8008da0:	2303      	movs	r3, #3
 8008da2:	f884 305d 	strb.w	r3, [r4, #93]	; 0x5d
  hspi->ErrorCode   = HAL_SPI_ERROR_NONE;
 8008da6:	2300      	movs	r3, #0
 8008da8:	6623      	str	r3, [r4, #96]	; 0x60
  hspi->pTxBuffPtr  = (uint8_t *)pData;
 8008daa:	f8c4 8038 	str.w	r8, [r4, #56]	; 0x38
  hspi->TxXferSize  = Size;
 8008dae:	f8a4 903c 	strh.w	r9, [r4, #60]	; 0x3c
  hspi->TxXferCount = Size;
 8008db2:	f8a4 903e 	strh.w	r9, [r4, #62]	; 0x3e
  hspi->pRxBuffPtr  = (uint8_t *)NULL;
 8008db6:	6423      	str	r3, [r4, #64]	; 0x40
  hspi->RxXferSize  = 0U;
 8008db8:	f8a4 3044 	strh.w	r3, [r4, #68]	; 0x44
  hspi->RxXferCount = 0U;
 8008dbc:	f8a4 3046 	strh.w	r3, [r4, #70]	; 0x46
  hspi->TxISR       = NULL;
 8008dc0:	6523      	str	r3, [r4, #80]	; 0x50
  hspi->RxISR       = NULL;
 8008dc2:	64e3      	str	r3, [r4, #76]	; 0x4c
  if (hspi->Init.Direction == SPI_DIRECTION_1LINE)
 8008dc4:	68a3      	ldr	r3, [r4, #8]
 8008dc6:	f5b3 4f00 	cmp.w	r3, #32768	; 0x8000
 8008dca:	d022      	beq.n	8008e12 <HAL_SPI_Transmit+0xb2>
  if (hspi->Init.CRCCalculation == SPI_CRCCALCULATION_ENABLE)
 8008dcc:	6aa3      	ldr	r3, [r4, #40]	; 0x28
 8008dce:	f5b3 5f00 	cmp.w	r3, #8192	; 0x2000
 8008dd2:	d029      	beq.n	8008e28 <HAL_SPI_Transmit+0xc8>
  if ((hspi->Instance->CR1 & SPI_CR1_SPE) != SPI_CR1_SPE)
 8008dd4:	6823      	ldr	r3, [r4, #0]
 8008dd6:	681a      	ldr	r2, [r3, #0]
 8008dd8:	f012 0f40 	tst.w	r2, #64	; 0x40
 8008ddc:	d103      	bne.n	8008de6 <HAL_SPI_Transmit+0x86>
    __HAL_SPI_ENABLE(hspi);
 8008dde:	681a      	ldr	r2, [r3, #0]
 8008de0:	f042 0240 	orr.w	r2, r2, #64	; 0x40
 8008de4:	601a      	str	r2, [r3, #0]
  if (hspi->Init.DataSize > SPI_DATASIZE_8BIT)
 8008de6:	68e3      	ldr	r3, [r4, #12]
 8008de8:	f5b3 6fe0 	cmp.w	r3, #1792	; 0x700
 8008dec:	d94d      	bls.n	8008e8a <HAL_SPI_Transmit+0x12a>
    if ((hspi->Init.Mode == SPI_MODE_SLAVE) || (initial_TxXferCount == 0x01U))
 8008dee:	6863      	ldr	r3, [r4, #4]
 8008df0:	b113      	cbz	r3, 8008df8 <HAL_SPI_Transmit+0x98>
 8008df2:	f1b9 0f01 	cmp.w	r9, #1
 8008df6:	d12e      	bne.n	8008e56 <HAL_SPI_Transmit+0xf6>
      hspi->Instance->DR = *((uint16_t *)hspi->pTxBuffPtr);
 8008df8:	6ba2      	ldr	r2, [r4, #56]	; 0x38
 8008dfa:	6823      	ldr	r3, [r4, #0]
 8008dfc:	8812      	ldrh	r2, [r2, #0]
 8008dfe:	60da      	str	r2, [r3, #12]
      hspi->pTxBuffPtr += sizeof(uint16_t);
 8008e00:	6ba3      	ldr	r3, [r4, #56]	; 0x38
 8008e02:	3302      	adds	r3, #2
 8008e04:	63a3      	str	r3, [r4, #56]	; 0x38
      hspi->TxXferCount--;
 8008e06:	8fe3      	ldrh	r3, [r4, #62]	; 0x3e
 8008e08:	b29b      	uxth	r3, r3
 8008e0a:	3b01      	subs	r3, #1
 8008e0c:	b29b      	uxth	r3, r3
 8008e0e:	87e3      	strh	r3, [r4, #62]	; 0x3e
 8008e10:	e021      	b.n	8008e56 <HAL_SPI_Transmit+0xf6>
    __HAL_SPI_DISABLE(hspi);
 8008e12:	6822      	ldr	r2, [r4, #0]
 8008e14:	6813      	ldr	r3, [r2, #0]
 8008e16:	f023 0340 	bic.w	r3, r3, #64	; 0x40
 8008e1a:	6013      	str	r3, [r2, #0]
    SPI_1LINE_TX(hspi);
 8008e1c:	6822      	ldr	r2, [r4, #0]
 8008e1e:	6813      	ldr	r3, [r2, #0]
 8008e20:	f443 4380 	orr.w	r3, r3, #16384	; 0x4000
 8008e24:	6013      	str	r3, [r2, #0]
 8008e26:	e7d1      	b.n	8008dcc <HAL_SPI_Transmit+0x6c>
    SPI_RESET_CRC(hspi);
 8008e28:	6822      	ldr	r2, [r4, #0]
 8008e2a:	6813      	ldr	r3, [r2, #0]
 8008e2c:	f423 5300 	bic.w	r3, r3, #8192	; 0x2000
 8008e30:	6013      	str	r3, [r2, #0]
 8008e32:	6822      	ldr	r2, [r4, #0]
 8008e34:	6813      	ldr	r3, [r2, #0]
 8008e36:	f443 5300 	orr.w	r3, r3, #8192	; 0x2000
 8008e3a:	6013      	str	r3, [r2, #0]
 8008e3c:	e7ca      	b.n	8008dd4 <HAL_SPI_Transmit+0x74>
        if ((((HAL_GetTick() - tickstart) >=  Timeout) && (Timeout != HAL_MAX_DELAY)) || (Timeout == 0U))
 8008e3e:	f7fd fe75 	bl	8006b2c <HAL_GetTick>
 8008e42:	1bc0      	subs	r0, r0, r7
 8008e44:	42a8      	cmp	r0, r5
 8008e46:	d303      	bcc.n	8008e50 <HAL_SPI_Transmit+0xf0>
 8008e48:	f1b5 3fff 	cmp.w	r5, #4294967295
 8008e4c:	f040 8098 	bne.w	8008f80 <HAL_SPI_Transmit+0x220>
 8008e50:	2d00      	cmp	r5, #0
 8008e52:	f000 8097 	beq.w	8008f84 <HAL_SPI_Transmit+0x224>
    while (hspi->TxXferCount > 0U)
 8008e56:	8fe3      	ldrh	r3, [r4, #62]	; 0x3e
 8008e58:	b29b      	uxth	r3, r3
 8008e5a:	2b00      	cmp	r3, #0
 8008e5c:	d066      	beq.n	8008f2c <HAL_SPI_Transmit+0x1cc>
      if (__HAL_SPI_GET_FLAG(hspi, SPI_FLAG_TXE))
 8008e5e:	6823      	ldr	r3, [r4, #0]
 8008e60:	689a      	ldr	r2, [r3, #8]
 8008e62:	f012 0f02 	tst.w	r2, #2
 8008e66:	d0ea      	beq.n	8008e3e <HAL_SPI_Transmit+0xde>
        hspi->Instance->DR = *((uint16_t *)hspi->pTxBuffPtr);
 8008e68:	6ba2      	ldr	r2, [r4, #56]	; 0x38
 8008e6a:	8812      	ldrh	r2, [r2, #0]
 8008e6c:	60da      	str	r2, [r3, #12]
        hspi->pTxBuffPtr += sizeof(uint16_t);
 8008e6e:	6ba3      	ldr	r3, [r4, #56]	; 0x38
 8008e70:	3302      	adds	r3, #2
 8008e72:	63a3      	str	r3, [r4, #56]	; 0x38
        hspi->TxXferCount--;
 8008e74:	f8b4 c03e 	ldrh.w	ip, [r4, #62]	; 0x3e
 8008e78:	fa1f fc8c 	uxth.w	ip, ip
 8008e7c:	f10c 3cff 	add.w	ip, ip, #4294967295
 8008e80:	fa1f fc8c 	uxth.w	ip, ip
 8008e84:	f8a4 c03e 	strh.w	ip, [r4, #62]	; 0x3e
 8008e88:	e7e5      	b.n	8008e56 <HAL_SPI_Transmit+0xf6>
    if ((hspi->Init.Mode == SPI_MODE_SLAVE) || (initial_TxXferCount == 0x01U))
 8008e8a:	6863      	ldr	r3, [r4, #4]
 8008e8c:	b113      	cbz	r3, 8008e94 <HAL_SPI_Transmit+0x134>
 8008e8e:	f1b9 0f01 	cmp.w	r9, #1
 8008e92:	d133      	bne.n	8008efc <HAL_SPI_Transmit+0x19c>
      if (hspi->TxXferCount > 1U)
 8008e94:	8fe3      	ldrh	r3, [r4, #62]	; 0x3e
 8008e96:	b29b      	uxth	r3, r3
 8008e98:	2b01      	cmp	r3, #1
 8008e9a:	d90c      	bls.n	8008eb6 <HAL_SPI_Transmit+0x156>
        hspi->Instance->DR = *((uint16_t *)hspi->pTxBuffPtr);
 8008e9c:	6ba2      	ldr	r2, [r4, #56]	; 0x38
 8008e9e:	6823      	ldr	r3, [r4, #0]
 8008ea0:	8812      	ldrh	r2, [r2, #0]
 8008ea2:	60da      	str	r2, [r3, #12]
        hspi->pTxBuffPtr += sizeof(uint16_t);
 8008ea4:	6ba3      	ldr	r3, [r4, #56]	; 0x38
 8008ea6:	3302      	adds	r3, #2
 8008ea8:	63a3      	str	r3, [r4, #56]	; 0x38
        hspi->TxXferCount -= 2U;
 8008eaa:	8fe3      	ldrh	r3, [r4, #62]	; 0x3e
 8008eac:	b29b      	uxth	r3, r3
 8008eae:	3b02      	subs	r3, #2
 8008eb0:	b29b      	uxth	r3, r3
 8008eb2:	87e3      	strh	r3, [r4, #62]	; 0x3e
 8008eb4:	e022      	b.n	8008efc <HAL_SPI_Transmit+0x19c>
        *((__IO uint8_t *)&hspi->Instance->DR) = (*hspi->pTxBuffPtr);
 8008eb6:	6ba2      	ldr	r2, [r4, #56]	; 0x38
 8008eb8:	6823      	ldr	r3, [r4, #0]
 8008eba:	7812      	ldrb	r2, [r2, #0]
 8008ebc:	731a      	strb	r2, [r3, #12]
        hspi->pTxBuffPtr ++;
 8008ebe:	6ba3      	ldr	r3, [r4, #56]	; 0x38
 8008ec0:	3301      	adds	r3, #1
 8008ec2:	63a3      	str	r3, [r4, #56]	; 0x38
        hspi->TxXferCount--;
 8008ec4:	8fe3      	ldrh	r3, [r4, #62]	; 0x3e
 8008ec6:	b29b      	uxth	r3, r3
 8008ec8:	3b01      	subs	r3, #1
 8008eca:	b29b      	uxth	r3, r3
 8008ecc:	87e3      	strh	r3, [r4, #62]	; 0x3e
 8008ece:	e015      	b.n	8008efc <HAL_SPI_Transmit+0x19c>
          *((__IO uint8_t *)&hspi->Instance->DR) = (*hspi->pTxBuffPtr);
 8008ed0:	6ba3      	ldr	r3, [r4, #56]	; 0x38
 8008ed2:	781b      	ldrb	r3, [r3, #0]
 8008ed4:	7313      	strb	r3, [r2, #12]
          hspi->pTxBuffPtr++;
 8008ed6:	6ba3      	ldr	r3, [r4, #56]	; 0x38
 8008ed8:	3301      	adds	r3, #1
 8008eda:	63a3      	str	r3, [r4, #56]	; 0x38
          hspi->TxXferCount--;
 8008edc:	8fe3      	ldrh	r3, [r4, #62]	; 0x3e
 8008ede:	b29b      	uxth	r3, r3
 8008ee0:	3b01      	subs	r3, #1
 8008ee2:	b29b      	uxth	r3, r3
 8008ee4:	87e3      	strh	r3, [r4, #62]	; 0x3e
 8008ee6:	e009      	b.n	8008efc <HAL_SPI_Transmit+0x19c>
        if ((((HAL_GetTick() - tickstart) >=  Timeout) && (Timeout != HAL_MAX_DELAY)) || (Timeout == 0U))
 8008ee8:	f7fd fe20 	bl	8006b2c <HAL_GetTick>
 8008eec:	1bc0      	subs	r0, r0, r7
 8008eee:	42a8      	cmp	r0, r5
 8008ef0:	d302      	bcc.n	8008ef8 <HAL_SPI_Transmit+0x198>
 8008ef2:	f1b5 3fff 	cmp.w	r5, #4294967295
 8008ef6:	d147      	bne.n	8008f88 <HAL_SPI_Transmit+0x228>
 8008ef8:	2d00      	cmp	r5, #0
 8008efa:	d047      	beq.n	8008f8c <HAL_SPI_Transmit+0x22c>
    while (hspi->TxXferCount > 0U)
 8008efc:	8fe3      	ldrh	r3, [r4, #62]	; 0x3e
 8008efe:	b29b      	uxth	r3, r3
 8008f00:	b1a3      	cbz	r3, 8008f2c <HAL_SPI_Transmit+0x1cc>
      if (__HAL_SPI_GET_FLAG(hspi, SPI_FLAG_TXE))
 8008f02:	6822      	ldr	r2, [r4, #0]
 8008f04:	6893      	ldr	r3, [r2, #8]
 8008f06:	f013 0f02 	tst.w	r3, #2
 8008f0a:	d0ed      	beq.n	8008ee8 <HAL_SPI_Transmit+0x188>
        if (hspi->TxXferCount > 1U)
 8008f0c:	8fe3      	ldrh	r3, [r4, #62]	; 0x3e
 8008f0e:	b29b      	uxth	r3, r3
 8008f10:	2b01      	cmp	r3, #1
 8008f12:	d9dd      	bls.n	8008ed0 <HAL_SPI_Transmit+0x170>
          hspi->Instance->DR = *((uint16_t *)hspi->pTxBuffPtr);
 8008f14:	6ba3      	ldr	r3, [r4, #56]	; 0x38
 8008f16:	881b      	ldrh	r3, [r3, #0]
 8008f18:	60d3      	str	r3, [r2, #12]
          hspi->pTxBuffPtr += sizeof(uint16_t);
 8008f1a:	6ba3      	ldr	r3, [r4, #56]	; 0x38
 8008f1c:	3302      	adds	r3, #2
 8008f1e:	63a3      	str	r3, [r4, #56]	; 0x38
          hspi->TxXferCount -= 2U;
 8008f20:	8fe3      	ldrh	r3, [r4, #62]	; 0x3e
 8008f22:	b29b      	uxth	r3, r3
 8008f24:	3b02      	subs	r3, #2
 8008f26:	b29b      	uxth	r3, r3
 8008f28:	87e3      	strh	r3, [r4, #62]	; 0x3e
 8008f2a:	e7e7      	b.n	8008efc <HAL_SPI_Transmit+0x19c>
  if (hspi->Init.CRCCalculation == SPI_CRCCALCULATION_ENABLE)
 8008f2c:	6aa3      	ldr	r3, [r4, #40]	; 0x28
 8008f2e:	f5b3 5f00 	cmp.w	r3, #8192	; 0x2000
 8008f32:	d014      	beq.n	8008f5e <HAL_SPI_Transmit+0x1fe>
  if (SPI_EndRxTxTransaction(hspi, Timeout, tickstart) != HAL_OK)
 8008f34:	463a      	mov	r2, r7
 8008f36:	4629      	mov	r1, r5
 8008f38:	4620      	mov	r0, r4
 8008f3a:	f7ff fe51 	bl	8008be0 <SPI_EndRxTxTransaction>
 8008f3e:	b108      	cbz	r0, 8008f44 <HAL_SPI_Transmit+0x1e4>
    hspi->ErrorCode = HAL_SPI_ERROR_FLAG;
 8008f40:	2320      	movs	r3, #32
 8008f42:	6623      	str	r3, [r4, #96]	; 0x60
  if (hspi->Init.Direction == SPI_DIRECTION_2LINES)
 8008f44:	68a3      	ldr	r3, [r4, #8]
 8008f46:	b933      	cbnz	r3, 8008f56 <HAL_SPI_Transmit+0x1f6>
    __HAL_SPI_CLEAR_OVRFLAG(hspi);
 8008f48:	9301      	str	r3, [sp, #4]
 8008f4a:	6823      	ldr	r3, [r4, #0]
 8008f4c:	68da      	ldr	r2, [r3, #12]
 8008f4e:	9201      	str	r2, [sp, #4]
 8008f50:	689b      	ldr	r3, [r3, #8]
 8008f52:	9301      	str	r3, [sp, #4]
 8008f54:	9b01      	ldr	r3, [sp, #4]
  if (hspi->ErrorCode != HAL_SPI_ERROR_NONE)
 8008f56:	6e23      	ldr	r3, [r4, #96]	; 0x60
 8008f58:	b943      	cbnz	r3, 8008f6c <HAL_SPI_Transmit+0x20c>
  HAL_StatusTypeDef errorcode = HAL_OK;
 8008f5a:	2600      	movs	r6, #0
 8008f5c:	e006      	b.n	8008f6c <HAL_SPI_Transmit+0x20c>
    SET_BIT(hspi->Instance->CR1, SPI_CR1_CRCNEXT);
 8008f5e:	6822      	ldr	r2, [r4, #0]
 8008f60:	6813      	ldr	r3, [r2, #0]
 8008f62:	f443 5380 	orr.w	r3, r3, #4096	; 0x1000
 8008f66:	6013      	str	r3, [r2, #0]
 8008f68:	e7e4      	b.n	8008f34 <HAL_SPI_Transmit+0x1d4>
    errorcode = HAL_BUSY;
 8008f6a:	2602      	movs	r6, #2
  hspi->State = HAL_SPI_STATE_READY;
 8008f6c:	2301      	movs	r3, #1
 8008f6e:	f884 305d 	strb.w	r3, [r4, #93]	; 0x5d
  __HAL_UNLOCK(hspi);
 8008f72:	2300      	movs	r3, #0
 8008f74:	f884 305c 	strb.w	r3, [r4, #92]	; 0x5c
}
 8008f78:	4630      	mov	r0, r6
 8008f7a:	b003      	add	sp, #12
 8008f7c:	e8bd 83f0 	ldmia.w	sp!, {r4, r5, r6, r7, r8, r9, pc}
          errorcode = HAL_TIMEOUT;
 8008f80:	2603      	movs	r6, #3
 8008f82:	e7f3      	b.n	8008f6c <HAL_SPI_Transmit+0x20c>
 8008f84:	2603      	movs	r6, #3
 8008f86:	e7f1      	b.n	8008f6c <HAL_SPI_Transmit+0x20c>
          errorcode = HAL_TIMEOUT;
 8008f88:	2603      	movs	r6, #3
 8008f8a:	e7ef      	b.n	8008f6c <HAL_SPI_Transmit+0x20c>
 8008f8c:	2603      	movs	r6, #3
 8008f8e:	e7ed      	b.n	8008f6c <HAL_SPI_Transmit+0x20c>
  __HAL_LOCK(hspi);
 8008f90:	2602      	movs	r6, #2
 8008f92:	e7f1      	b.n	8008f78 <HAL_SPI_Transmit+0x218>

08008f94 <HAL_SPI_TransmitReceive>:
{
 8008f94:	e92d 4ff0 	stmdb	sp!, {r4, r5, r6, r7, r8, r9, sl, fp, lr}
 8008f98:	b085      	sub	sp, #20
 8008f9a:	461f      	mov	r7, r3
 8008f9c:	9d0e      	ldr	r5, [sp, #56]	; 0x38
  __IO uint32_t tmpreg = 0U;
 8008f9e:	2300      	movs	r3, #0
 8008fa0:	9303      	str	r3, [sp, #12]
  __HAL_LOCK(hspi);
 8008fa2:	f890 305c 	ldrb.w	r3, [r0, #92]	; 0x5c
 8008fa6:	2b01      	cmp	r3, #1
 8008fa8:	f000 81f7 	beq.w	800939a <HAL_SPI_TransmitReceive+0x406>
 8008fac:	4604      	mov	r4, r0
 8008fae:	468a      	mov	sl, r1
 8008fb0:	4693      	mov	fp, r2
 8008fb2:	2301      	movs	r3, #1
 8008fb4:	f880 305c 	strb.w	r3, [r0, #92]	; 0x5c
  tickstart = HAL_GetTick();
 8008fb8:	f7fd fdb8 	bl	8006b2c <HAL_GetTick>
 8008fbc:	4606      	mov	r6, r0
  tmp_state           = hspi->State;
 8008fbe:	f894 305d 	ldrb.w	r3, [r4, #93]	; 0x5d
 8008fc2:	b2db      	uxtb	r3, r3
  tmp_mode            = hspi->Init.Mode;
 8008fc4:	6861      	ldr	r1, [r4, #4]
  spi_cr1             = READ_REG(hspi->Instance->CR1);
 8008fc6:	6822      	ldr	r2, [r4, #0]
 8008fc8:	f8d2 8000 	ldr.w	r8, [r2]
  spi_cr2             = READ_REG(hspi->Instance->CR2);
 8008fcc:	f8d2 9004 	ldr.w	r9, [r2, #4]
  if (!((tmp_state == HAL_SPI_STATE_READY) || \
 8008fd0:	2b01      	cmp	r3, #1
 8008fd2:	d00a      	beq.n	8008fea <HAL_SPI_TransmitReceive+0x56>
 8008fd4:	f5b1 7f82 	cmp.w	r1, #260	; 0x104
 8008fd8:	f040 81c4 	bne.w	8009364 <HAL_SPI_TransmitReceive+0x3d0>
        ((tmp_mode == SPI_MODE_MASTER) && (hspi->Init.Direction == SPI_DIRECTION_2LINES) && (tmp_state == HAL_SPI_STATE_BUSY_RX))))
 8008fdc:	68a1      	ldr	r1, [r4, #8]
 8008fde:	2900      	cmp	r1, #0
 8008fe0:	f040 81cb 	bne.w	800937a <HAL_SPI_TransmitReceive+0x3e6>
 8008fe4:	2b04      	cmp	r3, #4
 8008fe6:	f040 81ca 	bne.w	800937e <HAL_SPI_TransmitReceive+0x3ea>
  if ((pTxData == NULL) || (pRxData == NULL) || (Size == 0U))
 8008fea:	f1ba 0f00 	cmp.w	sl, #0
 8008fee:	f000 81c8 	beq.w	8009382 <HAL_SPI_TransmitReceive+0x3ee>
 8008ff2:	f1bb 0f00 	cmp.w	fp, #0
 8008ff6:	f000 81c6 	beq.w	8009386 <HAL_SPI_TransmitReceive+0x3f2>
 8008ffa:	2f00      	cmp	r7, #0
 8008ffc:	f000 81c5 	beq.w	800938a <HAL_SPI_TransmitReceive+0x3f6>
  if (hspi->State != HAL_SPI_STATE_BUSY_RX)
 8009000:	f894 305d 	ldrb.w	r3, [r4, #93]	; 0x5d
 8009004:	b2db      	uxtb	r3, r3
 8009006:	2b04      	cmp	r3, #4
 8009008:	d002      	beq.n	8009010 <HAL_SPI_TransmitReceive+0x7c>
    hspi->State = HAL_SPI_STATE_BUSY_TX_RX;
 800900a:	2305      	movs	r3, #5
 800900c:	f884 305d 	strb.w	r3, [r4, #93]	; 0x5d
  hspi->ErrorCode   = HAL_SPI_ERROR_NONE;
 8009010:	2300      	movs	r3, #0
 8009012:	6623      	str	r3, [r4, #96]	; 0x60
  hspi->pRxBuffPtr  = (uint8_t *)pRxData;
 8009014:	f8c4 b040 	str.w	fp, [r4, #64]	; 0x40
  hspi->RxXferCount = Size;
 8009018:	f8a4 7046 	strh.w	r7, [r4, #70]	; 0x46
  hspi->RxXferSize  = Size;
 800901c:	f8a4 7044 	strh.w	r7, [r4, #68]	; 0x44
  hspi->pTxBuffPtr  = (uint8_t *)pTxData;
 8009020:	f8c4 a038 	str.w	sl, [r4, #56]	; 0x38
  hspi->TxXferCount = Size;
 8009024:	87e7      	strh	r7, [r4, #62]	; 0x3e
  hspi->TxXferSize  = Size;
 8009026:	87a7      	strh	r7, [r4, #60]	; 0x3c
  hspi->RxISR       = NULL;
 8009028:	64e3      	str	r3, [r4, #76]	; 0x4c
  hspi->TxISR       = NULL;
 800902a:	6523      	str	r3, [r4, #80]	; 0x50
  if (hspi->Init.CRCCalculation == SPI_CRCCALCULATION_ENABLE)
 800902c:	6aa3      	ldr	r3, [r4, #40]	; 0x28
 800902e:	f5b3 5f00 	cmp.w	r3, #8192	; 0x2000
 8009032:	d029      	beq.n	8009088 <HAL_SPI_TransmitReceive+0xf4>
  if ((hspi->Init.DataSize > SPI_DATASIZE_8BIT) || (initial_RxXferCount > 1U))
 8009034:	68e3      	ldr	r3, [r4, #12]
 8009036:	f5b3 6fe0 	cmp.w	r3, #1792	; 0x700
 800903a:	d801      	bhi.n	8009040 <HAL_SPI_TransmitReceive+0xac>
 800903c:	2f01      	cmp	r7, #1
 800903e:	d92d      	bls.n	800909c <HAL_SPI_TransmitReceive+0x108>
    CLEAR_BIT(hspi->Instance->CR2, SPI_RXFIFO_THRESHOLD);
 8009040:	6822      	ldr	r2, [r4, #0]
 8009042:	6853      	ldr	r3, [r2, #4]
 8009044:	f423 5380 	bic.w	r3, r3, #4096	; 0x1000
 8009048:	6053      	str	r3, [r2, #4]
  if ((hspi->Instance->CR1 & SPI_CR1_SPE) != SPI_CR1_SPE)
 800904a:	6823      	ldr	r3, [r4, #0]
 800904c:	681a      	ldr	r2, [r3, #0]
 800904e:	f012 0f40 	tst.w	r2, #64	; 0x40
 8009052:	d103      	bne.n	800905c <HAL_SPI_TransmitReceive+0xc8>
    __HAL_SPI_ENABLE(hspi);
 8009054:	681a      	ldr	r2, [r3, #0]
 8009056:	f042 0240 	orr.w	r2, r2, #64	; 0x40
 800905a:	601a      	str	r2, [r3, #0]
  if (hspi->Init.DataSize > SPI_DATASIZE_8BIT)
 800905c:	68e3      	ldr	r3, [r4, #12]
 800905e:	f5b3 6fe0 	cmp.w	r3, #1792	; 0x700
 8009062:	d97d      	bls.n	8009160 <HAL_SPI_TransmitReceive+0x1cc>
    if ((hspi->Init.Mode == SPI_MODE_SLAVE) || (initial_TxXferCount == 0x01U))
 8009064:	6863      	ldr	r3, [r4, #4]
 8009066:	b10b      	cbz	r3, 800906c <HAL_SPI_TransmitReceive+0xd8>
 8009068:	2f01      	cmp	r7, #1
 800906a:	d10b      	bne.n	8009084 <HAL_SPI_TransmitReceive+0xf0>
      hspi->Instance->DR = *((uint16_t *)hspi->pTxBuffPtr);
 800906c:	6ba2      	ldr	r2, [r4, #56]	; 0x38
 800906e:	6823      	ldr	r3, [r4, #0]
 8009070:	8812      	ldrh	r2, [r2, #0]
 8009072:	60da      	str	r2, [r3, #12]
      hspi->pTxBuffPtr += sizeof(uint16_t);
 8009074:	6ba3      	ldr	r3, [r4, #56]	; 0x38
 8009076:	3302      	adds	r3, #2
 8009078:	63a3      	str	r3, [r4, #56]	; 0x38
      hspi->TxXferCount--;
 800907a:	8fe3      	ldrh	r3, [r4, #62]	; 0x3e
 800907c:	b29b      	uxth	r3, r3
 800907e:	3b01      	subs	r3, #1
 8009080:	b29b      	uxth	r3, r3
 8009082:	87e3      	strh	r3, [r4, #62]	; 0x3e
        txallowed = 1U;
 8009084:	2701      	movs	r7, #1
 8009086:	e042      	b.n	800910e <HAL_SPI_TransmitReceive+0x17a>
    SPI_RESET_CRC(hspi);
 8009088:	6813      	ldr	r3, [r2, #0]
 800908a:	f423 5300 	bic.w	r3, r3, #8192	; 0x2000
 800908e:	6013      	str	r3, [r2, #0]
 8009090:	6822      	ldr	r2, [r4, #0]
 8009092:	6813      	ldr	r3, [r2, #0]
 8009094:	f443 5300 	orr.w	r3, r3, #8192	; 0x2000
 8009098:	6013      	str	r3, [r2, #0]
 800909a:	e7cb      	b.n	8009034 <HAL_SPI_TransmitReceive+0xa0>
    SET_BIT(hspi->Instance->CR2, SPI_RXFIFO_THRESHOLD);
 800909c:	6822      	ldr	r2, [r4, #0]
 800909e:	6853      	ldr	r3, [r2, #4]
 80090a0:	f443 5380 	orr.w	r3, r3, #4096	; 0x1000
 80090a4:	6053      	str	r3, [r2, #4]
 80090a6:	e7d0      	b.n	800904a <HAL_SPI_TransmitReceive+0xb6>
          if ((READ_BIT(spi_cr1, SPI_CR1_MSTR) == 0U) && (READ_BIT(spi_cr2, SPI_CR2_NSSP) == SPI_CR2_NSSP))
 80090a8:	f018 0f04 	tst.w	r8, #4
 80090ac:	d107      	bne.n	80090be <HAL_SPI_TransmitReceive+0x12a>
 80090ae:	f019 0f08 	tst.w	r9, #8
 80090b2:	d004      	beq.n	80090be <HAL_SPI_TransmitReceive+0x12a>
            SET_BIT(hspi->Instance->CR1, SPI_CR1_SSM);
 80090b4:	6822      	ldr	r2, [r4, #0]
 80090b6:	6813      	ldr	r3, [r2, #0]
 80090b8:	f443 7300 	orr.w	r3, r3, #512	; 0x200
 80090bc:	6013      	str	r3, [r2, #0]
          SET_BIT(hspi->Instance->CR1, SPI_CR1_CRCNEXT);
 80090be:	6822      	ldr	r2, [r4, #0]
 80090c0:	6813      	ldr	r3, [r2, #0]
 80090c2:	f443 5380 	orr.w	r3, r3, #4096	; 0x1000
 80090c6:	6013      	str	r3, [r2, #0]
        txallowed = 0U;
 80090c8:	2700      	movs	r7, #0
 80090ca:	e000      	b.n	80090ce <HAL_SPI_TransmitReceive+0x13a>
 80090cc:	2700      	movs	r7, #0
      if ((__HAL_SPI_GET_FLAG(hspi, SPI_FLAG_RXNE)) && (hspi->RxXferCount > 0U))
 80090ce:	6823      	ldr	r3, [r4, #0]
 80090d0:	689a      	ldr	r2, [r3, #8]
 80090d2:	f012 0f01 	tst.w	r2, #1
 80090d6:	d011      	beq.n	80090fc <HAL_SPI_TransmitReceive+0x168>
 80090d8:	f8b4 2046 	ldrh.w	r2, [r4, #70]	; 0x46
 80090dc:	b292      	uxth	r2, r2
 80090de:	b16a      	cbz	r2, 80090fc <HAL_SPI_TransmitReceive+0x168>
        *((uint16_t *)hspi->pRxBuffPtr) = (uint16_t)hspi->Instance->DR;
 80090e0:	68da      	ldr	r2, [r3, #12]
 80090e2:	6c23      	ldr	r3, [r4, #64]	; 0x40
 80090e4:	801a      	strh	r2, [r3, #0]
        hspi->pRxBuffPtr += sizeof(uint16_t);
 80090e6:	6c23      	ldr	r3, [r4, #64]	; 0x40
 80090e8:	3302      	adds	r3, #2
 80090ea:	6423      	str	r3, [r4, #64]	; 0x40
        hspi->RxXferCount--;
 80090ec:	f8b4 3046 	ldrh.w	r3, [r4, #70]	; 0x46
 80090f0:	b29b      	uxth	r3, r3
 80090f2:	3b01      	subs	r3, #1
 80090f4:	b29b      	uxth	r3, r3
 80090f6:	f8a4 3046 	strh.w	r3, [r4, #70]	; 0x46
        txallowed = 1U;
 80090fa:	2701      	movs	r7, #1
      if (((HAL_GetTick() - tickstart) >=  Timeout) && (Timeout != HAL_MAX_DELAY))
 80090fc:	f7fd fd16 	bl	8006b2c <HAL_GetTick>
 8009100:	1b80      	subs	r0, r0, r6
 8009102:	42a8      	cmp	r0, r5
 8009104:	d303      	bcc.n	800910e <HAL_SPI_TransmitReceive+0x17a>
 8009106:	f1b5 3fff 	cmp.w	r5, #4294967295
 800910a:	f040 8140 	bne.w	800938e <HAL_SPI_TransmitReceive+0x3fa>
    while ((hspi->TxXferCount > 0U) || (hspi->RxXferCount > 0U))
 800910e:	8fe3      	ldrh	r3, [r4, #62]	; 0x3e
 8009110:	b29b      	uxth	r3, r3
 8009112:	b92b      	cbnz	r3, 8009120 <HAL_SPI_TransmitReceive+0x18c>
 8009114:	f8b4 3046 	ldrh.w	r3, [r4, #70]	; 0x46
 8009118:	b29b      	uxth	r3, r3
 800911a:	2b00      	cmp	r3, #0
 800911c:	f000 80d1 	beq.w	80092c2 <HAL_SPI_TransmitReceive+0x32e>
      if ((__HAL_SPI_GET_FLAG(hspi, SPI_FLAG_TXE)) && (hspi->TxXferCount > 0U) && (txallowed == 1U))
 8009120:	6823      	ldr	r3, [r4, #0]
 8009122:	689a      	ldr	r2, [r3, #8]
 8009124:	f012 0f02 	tst.w	r2, #2
 8009128:	d0d1      	beq.n	80090ce <HAL_SPI_TransmitReceive+0x13a>
 800912a:	8fe2      	ldrh	r2, [r4, #62]	; 0x3e
 800912c:	b292      	uxth	r2, r2
 800912e:	2a00      	cmp	r2, #0
 8009130:	d0cd      	beq.n	80090ce <HAL_SPI_TransmitReceive+0x13a>
 8009132:	2f00      	cmp	r7, #0
 8009134:	d0cb      	beq.n	80090ce <HAL_SPI_TransmitReceive+0x13a>
        hspi->Instance->DR = *((uint16_t *)hspi->pTxBuffPtr);
 8009136:	6ba2      	ldr	r2, [r4, #56]	; 0x38
 8009138:	8812      	ldrh	r2, [r2, #0]
 800913a:	60da      	str	r2, [r3, #12]
        hspi->pTxBuffPtr += sizeof(uint16_t);
 800913c:	6ba3      	ldr	r3, [r4, #56]	; 0x38
 800913e:	3302      	adds	r3, #2
 8009140:	63a3      	str	r3, [r4, #56]	; 0x38
        hspi->TxXferCount--;
 8009142:	8fe3      	ldrh	r3, [r4, #62]	; 0x3e
 8009144:	b29b      	uxth	r3, r3
 8009146:	3b01      	subs	r3, #1
 8009148:	b29b      	uxth	r3, r3
 800914a:	87e3      	strh	r3, [r4, #62]	; 0x3e
        if ((hspi->TxXferCount == 0U) && (hspi->Init.CRCCalculation == SPI_CRCCALCULATION_ENABLE))
 800914c:	8fe3      	ldrh	r3, [r4, #62]	; 0x3e
 800914e:	b29b      	uxth	r3, r3
 8009150:	2b00      	cmp	r3, #0
 8009152:	d1bb      	bne.n	80090cc <HAL_SPI_TransmitReceive+0x138>
 8009154:	6aa3      	ldr	r3, [r4, #40]	; 0x28
 8009156:	f5b3 5f00 	cmp.w	r3, #8192	; 0x2000
 800915a:	d0a5      	beq.n	80090a8 <HAL_SPI_TransmitReceive+0x114>
        txallowed = 0U;
 800915c:	2700      	movs	r7, #0
 800915e:	e7b6      	b.n	80090ce <HAL_SPI_TransmitReceive+0x13a>
    if ((hspi->Init.Mode == SPI_MODE_SLAVE) || (initial_TxXferCount == 0x01U))
 8009160:	6863      	ldr	r3, [r4, #4]
 8009162:	b10b      	cbz	r3, 8009168 <HAL_SPI_TransmitReceive+0x1d4>
 8009164:	2f01      	cmp	r7, #1
 8009166:	d10f      	bne.n	8009188 <HAL_SPI_TransmitReceive+0x1f4>
      if (hspi->TxXferCount > 1U)
 8009168:	8fe3      	ldrh	r3, [r4, #62]	; 0x3e
 800916a:	b29b      	uxth	r3, r3
 800916c:	2b01      	cmp	r3, #1
 800916e:	d90d      	bls.n	800918c <HAL_SPI_TransmitReceive+0x1f8>
        hspi->Instance->DR = *((uint16_t *)hspi->pTxBuffPtr);
 8009170:	6ba2      	ldr	r2, [r4, #56]	; 0x38
 8009172:	6823      	ldr	r3, [r4, #0]
 8009174:	8812      	ldrh	r2, [r2, #0]
 8009176:	60da      	str	r2, [r3, #12]
        hspi->pTxBuffPtr += sizeof(uint16_t);
 8009178:	6ba3      	ldr	r3, [r4, #56]	; 0x38
 800917a:	3302      	adds	r3, #2
 800917c:	63a3      	str	r3, [r4, #56]	; 0x38
        hspi->TxXferCount -= 2U;
 800917e:	8fe3      	ldrh	r3, [r4, #62]	; 0x3e
 8009180:	b29b      	uxth	r3, r3
 8009182:	3b02      	subs	r3, #2
 8009184:	b29b      	uxth	r3, r3
 8009186:	87e3      	strh	r3, [r4, #62]	; 0x3e
        txallowed = 1U;
 8009188:	2701      	movs	r7, #1
 800918a:	e065      	b.n	8009258 <HAL_SPI_TransmitReceive+0x2c4>
        *(__IO uint8_t *)&hspi->Instance->DR = (*hspi->pTxBuffPtr);
 800918c:	6ba2      	ldr	r2, [r4, #56]	; 0x38
 800918e:	6823      	ldr	r3, [r4, #0]
 8009190:	7812      	ldrb	r2, [r2, #0]
 8009192:	731a      	strb	r2, [r3, #12]
        hspi->pTxBuffPtr++;
 8009194:	6ba3      	ldr	r3, [r4, #56]	; 0x38
 8009196:	3301      	adds	r3, #1
 8009198:	63a3      	str	r3, [r4, #56]	; 0x38
        hspi->TxXferCount--;
 800919a:	8fe3      	ldrh	r3, [r4, #62]	; 0x3e
 800919c:	b29b      	uxth	r3, r3
 800919e:	3b01      	subs	r3, #1
 80091a0:	b29b      	uxth	r3, r3
 80091a2:	87e3      	strh	r3, [r4, #62]	; 0x3e
 80091a4:	e7f0      	b.n	8009188 <HAL_SPI_TransmitReceive+0x1f4>
        if (hspi->TxXferCount > 1U)
 80091a6:	8fe2      	ldrh	r2, [r4, #62]	; 0x3e
 80091a8:	b292      	uxth	r2, r2
 80091aa:	2a01      	cmp	r2, #1
 80091ac:	d913      	bls.n	80091d6 <HAL_SPI_TransmitReceive+0x242>
          hspi->Instance->DR = *((uint16_t *)hspi->pTxBuffPtr);
 80091ae:	6ba2      	ldr	r2, [r4, #56]	; 0x38
 80091b0:	8812      	ldrh	r2, [r2, #0]
 80091b2:	60da      	str	r2, [r3, #12]
          hspi->pTxBuffPtr += sizeof(uint16_t);
 80091b4:	6ba3      	ldr	r3, [r4, #56]	; 0x38
 80091b6:	3302      	adds	r3, #2
 80091b8:	63a3      	str	r3, [r4, #56]	; 0x38
          hspi->TxXferCount -= 2U;
 80091ba:	8fe3      	ldrh	r3, [r4, #62]	; 0x3e
 80091bc:	b29b      	uxth	r3, r3
 80091be:	3b02      	subs	r3, #2
 80091c0:	b29b      	uxth	r3, r3
 80091c2:	87e3      	strh	r3, [r4, #62]	; 0x3e
        if ((hspi->TxXferCount == 0U) && (hspi->Init.CRCCalculation == SPI_CRCCALCULATION_ENABLE))
 80091c4:	8fe3      	ldrh	r3, [r4, #62]	; 0x3e
 80091c6:	b29b      	uxth	r3, r3
 80091c8:	bb1b      	cbnz	r3, 8009212 <HAL_SPI_TransmitReceive+0x27e>
 80091ca:	6aa3      	ldr	r3, [r4, #40]	; 0x28
 80091cc:	f5b3 5f00 	cmp.w	r3, #8192	; 0x2000
 80091d0:	d00d      	beq.n	80091ee <HAL_SPI_TransmitReceive+0x25a>
        txallowed = 0U;
 80091d2:	2700      	movs	r7, #0
 80091d4:	e052      	b.n	800927c <HAL_SPI_TransmitReceive+0x2e8>
          *(__IO uint8_t *)&hspi->Instance->DR = (*hspi->pTxBuffPtr);
 80091d6:	6ba2      	ldr	r2, [r4, #56]	; 0x38
 80091d8:	7812      	ldrb	r2, [r2, #0]
 80091da:	731a      	strb	r2, [r3, #12]
          hspi->pTxBuffPtr++;
 80091dc:	6ba3      	ldr	r3, [r4, #56]	; 0x38
 80091de:	3301      	adds	r3, #1
 80091e0:	63a3      	str	r3, [r4, #56]	; 0x38
          hspi->TxXferCount--;
 80091e2:	8fe3      	ldrh	r3, [r4, #62]	; 0x3e
 80091e4:	b29b      	uxth	r3, r3
 80091e6:	3b01      	subs	r3, #1
 80091e8:	b29b      	uxth	r3, r3
 80091ea:	87e3      	strh	r3, [r4, #62]	; 0x3e
 80091ec:	e7ea      	b.n	80091c4 <HAL_SPI_TransmitReceive+0x230>
          if ((READ_BIT(spi_cr1, SPI_CR1_MSTR) == 0U) && (READ_BIT(spi_cr2, SPI_CR2_NSSP) == SPI_CR2_NSSP))
 80091ee:	f018 0f04 	tst.w	r8, #4
 80091f2:	d107      	bne.n	8009204 <HAL_SPI_TransmitReceive+0x270>
 80091f4:	f019 0f08 	tst.w	r9, #8
 80091f8:	d004      	beq.n	8009204 <HAL_SPI_TransmitReceive+0x270>
            SET_BIT(hspi->Instance->CR1, SPI_CR1_SSM);
 80091fa:	6822      	ldr	r2, [r4, #0]
 80091fc:	6813      	ldr	r3, [r2, #0]
 80091fe:	f443 7300 	orr.w	r3, r3, #512	; 0x200
 8009202:	6013      	str	r3, [r2, #0]
          SET_BIT(hspi->Instance->CR1, SPI_CR1_CRCNEXT);
 8009204:	6822      	ldr	r2, [r4, #0]
 8009206:	6813      	ldr	r3, [r2, #0]
 8009208:	f443 5380 	orr.w	r3, r3, #4096	; 0x1000
 800920c:	6013      	str	r3, [r2, #0]
        txallowed = 0U;
 800920e:	2700      	movs	r7, #0
 8009210:	e034      	b.n	800927c <HAL_SPI_TransmitReceive+0x2e8>
 8009212:	2700      	movs	r7, #0
 8009214:	e032      	b.n	800927c <HAL_SPI_TransmitReceive+0x2e8>
            SET_BIT(hspi->Instance->CR2, SPI_RXFIFO_THRESHOLD);
 8009216:	6822      	ldr	r2, [r4, #0]
 8009218:	6853      	ldr	r3, [r2, #4]
 800921a:	f443 5380 	orr.w	r3, r3, #4096	; 0x1000
 800921e:	6053      	str	r3, [r2, #4]
        txallowed = 1U;
 8009220:	2701      	movs	r7, #1
 8009222:	e00d      	b.n	8009240 <HAL_SPI_TransmitReceive+0x2ac>
          (*(uint8_t *)hspi->pRxBuffPtr) = *(__IO uint8_t *)&hspi->Instance->DR;
 8009224:	6c22      	ldr	r2, [r4, #64]	; 0x40
 8009226:	7b1b      	ldrb	r3, [r3, #12]
 8009228:	7013      	strb	r3, [r2, #0]
          hspi->pRxBuffPtr++;
 800922a:	6c23      	ldr	r3, [r4, #64]	; 0x40
 800922c:	3301      	adds	r3, #1
 800922e:	6423      	str	r3, [r4, #64]	; 0x40
          hspi->RxXferCount--;
 8009230:	f8b4 3046 	ldrh.w	r3, [r4, #70]	; 0x46
 8009234:	b29b      	uxth	r3, r3
 8009236:	3b01      	subs	r3, #1
 8009238:	b29b      	uxth	r3, r3
 800923a:	f8a4 3046 	strh.w	r3, [r4, #70]	; 0x46
        txallowed = 1U;
 800923e:	2701      	movs	r7, #1
      if ((((HAL_GetTick() - tickstart) >=  Timeout) && ((Timeout != HAL_MAX_DELAY))) || (Timeout == 0U))
 8009240:	f7fd fc74 	bl	8006b2c <HAL_GetTick>
 8009244:	1b80      	subs	r0, r0, r6
 8009246:	42a8      	cmp	r0, r5
 8009248:	d303      	bcc.n	8009252 <HAL_SPI_TransmitReceive+0x2be>
 800924a:	f1b5 3fff 	cmp.w	r5, #4294967295
 800924e:	f040 80a0 	bne.w	8009392 <HAL_SPI_TransmitReceive+0x3fe>
 8009252:	2d00      	cmp	r5, #0
 8009254:	f000 809f 	beq.w	8009396 <HAL_SPI_TransmitReceive+0x402>
    while ((hspi->TxXferCount > 0U) || (hspi->RxXferCount > 0U))
 8009258:	8fe3      	ldrh	r3, [r4, #62]	; 0x3e
 800925a:	b29b      	uxth	r3, r3
 800925c:	b923      	cbnz	r3, 8009268 <HAL_SPI_TransmitReceive+0x2d4>
 800925e:	f8b4 3046 	ldrh.w	r3, [r4, #70]	; 0x46
 8009262:	b29b      	uxth	r3, r3
 8009264:	2b00      	cmp	r3, #0
 8009266:	d02c      	beq.n	80092c2 <HAL_SPI_TransmitReceive+0x32e>
      if ((__HAL_SPI_GET_FLAG(hspi, SPI_FLAG_TXE)) && (hspi->TxXferCount > 0U) && (txallowed == 1U))
 8009268:	6823      	ldr	r3, [r4, #0]
 800926a:	689a      	ldr	r2, [r3, #8]
 800926c:	f012 0f02 	tst.w	r2, #2
 8009270:	d004      	beq.n	800927c <HAL_SPI_TransmitReceive+0x2e8>
 8009272:	8fe2      	ldrh	r2, [r4, #62]	; 0x3e
 8009274:	b292      	uxth	r2, r2
 8009276:	b10a      	cbz	r2, 800927c <HAL_SPI_TransmitReceive+0x2e8>
 8009278:	2f00      	cmp	r7, #0
 800927a:	d194      	bne.n	80091a6 <HAL_SPI_TransmitReceive+0x212>
      if ((__HAL_SPI_GET_FLAG(hspi, SPI_FLAG_RXNE)) && (hspi->RxXferCount > 0U))
 800927c:	6823      	ldr	r3, [r4, #0]
 800927e:	689a      	ldr	r2, [r3, #8]
 8009280:	f012 0f01 	tst.w	r2, #1
 8009284:	d0dc      	beq.n	8009240 <HAL_SPI_TransmitReceive+0x2ac>
 8009286:	f8b4 2046 	ldrh.w	r2, [r4, #70]	; 0x46
 800928a:	b292      	uxth	r2, r2
 800928c:	2a00      	cmp	r2, #0
 800928e:	d0d7      	beq.n	8009240 <HAL_SPI_TransmitReceive+0x2ac>
        if (hspi->RxXferCount > 1U)
 8009290:	f8b4 2046 	ldrh.w	r2, [r4, #70]	; 0x46
 8009294:	b292      	uxth	r2, r2
 8009296:	2a01      	cmp	r2, #1
 8009298:	d9c4      	bls.n	8009224 <HAL_SPI_TransmitReceive+0x290>
          *((uint16_t *)hspi->pRxBuffPtr) = (uint16_t)hspi->Instance->DR;
 800929a:	68da      	ldr	r2, [r3, #12]
 800929c:	6c23      	ldr	r3, [r4, #64]	; 0x40
 800929e:	801a      	strh	r2, [r3, #0]
          hspi->pRxBuffPtr += sizeof(uint16_t);
 80092a0:	6c23      	ldr	r3, [r4, #64]	; 0x40
 80092a2:	3302      	adds	r3, #2
 80092a4:	6423      	str	r3, [r4, #64]	; 0x40
          hspi->RxXferCount -= 2U;
 80092a6:	f8b4 3046 	ldrh.w	r3, [r4, #70]	; 0x46
 80092aa:	b29b      	uxth	r3, r3
 80092ac:	3b02      	subs	r3, #2
 80092ae:	b29b      	uxth	r3, r3
 80092b0:	f8a4 3046 	strh.w	r3, [r4, #70]	; 0x46
          if (hspi->RxXferCount <= 1U)
 80092b4:	f8b4 3046 	ldrh.w	r3, [r4, #70]	; 0x46
 80092b8:	b29b      	uxth	r3, r3
 80092ba:	2b01      	cmp	r3, #1
 80092bc:	d9ab      	bls.n	8009216 <HAL_SPI_TransmitReceive+0x282>
        txallowed = 1U;
 80092be:	2701      	movs	r7, #1
 80092c0:	e7be      	b.n	8009240 <HAL_SPI_TransmitReceive+0x2ac>
  if (hspi->Init.CRCCalculation == SPI_CRCCALCULATION_ENABLE)
 80092c2:	6aa3      	ldr	r3, [r4, #40]	; 0x28
 80092c4:	f5b3 5f00 	cmp.w	r3, #8192	; 0x2000
 80092c8:	d017      	beq.n	80092fa <HAL_SPI_TransmitReceive+0x366>
  if (__HAL_SPI_GET_FLAG(hspi, SPI_FLAG_CRCERR))
 80092ca:	6823      	ldr	r3, [r4, #0]
 80092cc:	689a      	ldr	r2, [r3, #8]
 80092ce:	f012 0f10 	tst.w	r2, #16
 80092d2:	d045      	beq.n	8009360 <HAL_SPI_TransmitReceive+0x3cc>
    SET_BIT(hspi->ErrorCode, HAL_SPI_ERROR_CRC);
 80092d4:	6e22      	ldr	r2, [r4, #96]	; 0x60
 80092d6:	f042 0202 	orr.w	r2, r2, #2
 80092da:	6622      	str	r2, [r4, #96]	; 0x60
    __HAL_SPI_CLEAR_CRCERRFLAG(hspi);
 80092dc:	f64f 72ef 	movw	r2, #65519	; 0xffef
 80092e0:	609a      	str	r2, [r3, #8]
    errorcode = HAL_ERROR;
 80092e2:	2701      	movs	r7, #1
  if (SPI_EndRxTxTransaction(hspi, Timeout, tickstart) != HAL_OK)
 80092e4:	4632      	mov	r2, r6
 80092e6:	4629      	mov	r1, r5
 80092e8:	4620      	mov	r0, r4
 80092ea:	f7ff fc79 	bl	8008be0 <SPI_EndRxTxTransaction>
 80092ee:	2800      	cmp	r0, #0
 80092f0:	d039      	beq.n	8009366 <HAL_SPI_TransmitReceive+0x3d2>
    hspi->ErrorCode = HAL_SPI_ERROR_FLAG;
 80092f2:	2320      	movs	r3, #32
 80092f4:	6623      	str	r3, [r4, #96]	; 0x60
    errorcode = HAL_ERROR;
 80092f6:	2701      	movs	r7, #1
 80092f8:	e035      	b.n	8009366 <HAL_SPI_TransmitReceive+0x3d2>
    if (SPI_WaitFlagStateUntilTimeout(hspi, SPI_FLAG_RXNE, SET, Timeout, tickstart) != HAL_OK)
 80092fa:	9600      	str	r6, [sp, #0]
 80092fc:	462b      	mov	r3, r5
 80092fe:	2201      	movs	r2, #1
 8009300:	4611      	mov	r1, r2
 8009302:	4620      	mov	r0, r4
 8009304:	f7ff fb92 	bl	8008a2c <SPI_WaitFlagStateUntilTimeout>
 8009308:	b9c8      	cbnz	r0, 800933e <HAL_SPI_TransmitReceive+0x3aa>
    if (hspi->Init.DataSize == SPI_DATASIZE_16BIT)
 800930a:	68e3      	ldr	r3, [r4, #12]
 800930c:	f5b3 6f70 	cmp.w	r3, #3840	; 0xf00
 8009310:	d01b      	beq.n	800934a <HAL_SPI_TransmitReceive+0x3b6>
      tmpreg = READ_REG(*(__IO uint8_t *)&hspi->Instance->DR);
 8009312:	6823      	ldr	r3, [r4, #0]
 8009314:	7b1b      	ldrb	r3, [r3, #12]
 8009316:	b2db      	uxtb	r3, r3
 8009318:	9303      	str	r3, [sp, #12]
      UNUSED(tmpreg);
 800931a:	9b03      	ldr	r3, [sp, #12]
      if (hspi->Init.CRCLength == SPI_CRC_LENGTH_16BIT)
 800931c:	6b23      	ldr	r3, [r4, #48]	; 0x30
 800931e:	2b02      	cmp	r3, #2
 8009320:	d1d3      	bne.n	80092ca <HAL_SPI_TransmitReceive+0x336>
        if (SPI_WaitFlagStateUntilTimeout(hspi, SPI_FLAG_RXNE, SET, Timeout, tickstart) != HAL_OK)
 8009322:	9600      	str	r6, [sp, #0]
 8009324:	462b      	mov	r3, r5
 8009326:	2201      	movs	r2, #1
 8009328:	4611      	mov	r1, r2
 800932a:	4620      	mov	r0, r4
 800932c:	f7ff fb7e 	bl	8008a2c <SPI_WaitFlagStateUntilTimeout>
 8009330:	b980      	cbnz	r0, 8009354 <HAL_SPI_TransmitReceive+0x3c0>
        tmpreg = READ_REG(*(__IO uint8_t *)&hspi->Instance->DR);
 8009332:	6823      	ldr	r3, [r4, #0]
 8009334:	7b1b      	ldrb	r3, [r3, #12]
 8009336:	b2db      	uxtb	r3, r3
 8009338:	9303      	str	r3, [sp, #12]
        UNUSED(tmpreg);
 800933a:	9b03      	ldr	r3, [sp, #12]
 800933c:	e7c5      	b.n	80092ca <HAL_SPI_TransmitReceive+0x336>
      SET_BIT(hspi->ErrorCode, HAL_SPI_ERROR_CRC);
 800933e:	6e23      	ldr	r3, [r4, #96]	; 0x60
 8009340:	f043 0302 	orr.w	r3, r3, #2
 8009344:	6623      	str	r3, [r4, #96]	; 0x60
      errorcode = HAL_TIMEOUT;
 8009346:	2703      	movs	r7, #3
      goto error;
 8009348:	e00d      	b.n	8009366 <HAL_SPI_TransmitReceive+0x3d2>
      tmpreg = READ_REG(hspi->Instance->DR);
 800934a:	6823      	ldr	r3, [r4, #0]
 800934c:	68db      	ldr	r3, [r3, #12]
 800934e:	9303      	str	r3, [sp, #12]
      UNUSED(tmpreg);
 8009350:	9b03      	ldr	r3, [sp, #12]
 8009352:	e7ba      	b.n	80092ca <HAL_SPI_TransmitReceive+0x336>
          SET_BIT(hspi->ErrorCode, HAL_SPI_ERROR_CRC);
 8009354:	6e23      	ldr	r3, [r4, #96]	; 0x60
 8009356:	f043 0302 	orr.w	r3, r3, #2
 800935a:	6623      	str	r3, [r4, #96]	; 0x60
          errorcode = HAL_TIMEOUT;
 800935c:	2703      	movs	r7, #3
          goto error;
 800935e:	e002      	b.n	8009366 <HAL_SPI_TransmitReceive+0x3d2>
  HAL_StatusTypeDef    errorcode = HAL_OK;
 8009360:	2700      	movs	r7, #0
 8009362:	e7bf      	b.n	80092e4 <HAL_SPI_TransmitReceive+0x350>
    errorcode = HAL_BUSY;
 8009364:	2702      	movs	r7, #2
  hspi->State = HAL_SPI_STATE_READY;
 8009366:	2301      	movs	r3, #1
 8009368:	f884 305d 	strb.w	r3, [r4, #93]	; 0x5d
  __HAL_UNLOCK(hspi);
 800936c:	2300      	movs	r3, #0
 800936e:	f884 305c 	strb.w	r3, [r4, #92]	; 0x5c
}
 8009372:	4638      	mov	r0, r7
 8009374:	b005      	add	sp, #20
 8009376:	e8bd 8ff0 	ldmia.w	sp!, {r4, r5, r6, r7, r8, r9, sl, fp, pc}
    errorcode = HAL_BUSY;
 800937a:	2702      	movs	r7, #2
 800937c:	e7f3      	b.n	8009366 <HAL_SPI_TransmitReceive+0x3d2>
 800937e:	2702      	movs	r7, #2
 8009380:	e7f1      	b.n	8009366 <HAL_SPI_TransmitReceive+0x3d2>
    errorcode = HAL_ERROR;
 8009382:	2701      	movs	r7, #1
 8009384:	e7ef      	b.n	8009366 <HAL_SPI_TransmitReceive+0x3d2>
 8009386:	2701      	movs	r7, #1
 8009388:	e7ed      	b.n	8009366 <HAL_SPI_TransmitReceive+0x3d2>
 800938a:	2701      	movs	r7, #1
 800938c:	e7eb      	b.n	8009366 <HAL_SPI_TransmitReceive+0x3d2>
        errorcode = HAL_TIMEOUT;
 800938e:	2703      	movs	r7, #3
 8009390:	e7e9      	b.n	8009366 <HAL_SPI_TransmitReceive+0x3d2>
        errorcode = HAL_TIMEOUT;
 8009392:	2703      	movs	r7, #3
 8009394:	e7e7      	b.n	8009366 <HAL_SPI_TransmitReceive+0x3d2>
 8009396:	2703      	movs	r7, #3
 8009398:	e7e5      	b.n	8009366 <HAL_SPI_TransmitReceive+0x3d2>
  __HAL_LOCK(hspi);
 800939a:	2702      	movs	r7, #2
 800939c:	e7e9      	b.n	8009372 <HAL_SPI_TransmitReceive+0x3de>

0800939e <HAL_SPI_GetState>:
  return hspi->State;
 800939e:	f890 005d 	ldrb.w	r0, [r0, #93]	; 0x5d
}
 80093a2:	4770      	bx	lr

080093a4 <TIM_OC1_SetConfig>:
  * @param  TIMx to select the TIM peripheral
  * @param  OC_Config The output configuration structure
  * @retval None
  */
static void TIM_OC1_SetConfig(TIM_TypeDef *TIMx, TIM_OC_InitTypeDef *OC_Config)
{
 80093a4:	b430      	push	{r4, r5}
  uint32_t tmpccmrx;
  uint32_t tmpccer;
  uint32_t tmpcr2;

  /* Disable the Channel 1: Reset the CC1E Bit */
  TIMx->CCER &= ~TIM_CCER_CC1E;
 80093a6:	6a03      	ldr	r3, [r0, #32]
 80093a8:	f023 0301 	bic.w	r3, r3, #1
 80093ac:	6203      	str	r3, [r0, #32]

  /* Get the TIMx CCER register value */
  tmpccer = TIMx->CCER;
 80093ae:	6a02      	ldr	r2, [r0, #32]
  /* Get the TIMx CR2 register value */
  tmpcr2 =  TIMx->CR2;
 80093b0:	6844      	ldr	r4, [r0, #4]

  /* Get the TIMx CCMR1 register value */
  tmpccmrx = TIMx->CCMR1;
 80093b2:	6983      	ldr	r3, [r0, #24]

  /* Reset the Output Compare Mode Bits */
  tmpccmrx &= ~TIM_CCMR1_OC1M;
  tmpccmrx &= ~TIM_CCMR1_CC1S;
 80093b4:	f423 3380 	bic.w	r3, r3, #65536	; 0x10000
 80093b8:	f023 0373 	bic.w	r3, r3, #115	; 0x73
  /* Select the Output Compare Mode */
  tmpccmrx |= OC_Config->OCMode;
 80093bc:	680d      	ldr	r5, [r1, #0]
 80093be:	431d      	orrs	r5, r3

  /* Reset the Output Polarity level */
  tmpccer &= ~TIM_CCER_CC1P;
 80093c0:	f022 0202 	bic.w	r2, r2, #2
  /* Set the Output Compare Polarity */
  tmpccer |= OC_Config->OCPolarity;
 80093c4:	688b      	ldr	r3, [r1, #8]
 80093c6:	4313      	orrs	r3, r2

  if (IS_TIM_CCXN_INSTANCE(TIMx, TIM_CHANNEL_1))
 80093c8:	4a1c      	ldr	r2, [pc, #112]	; (800943c <TIM_OC1_SetConfig+0x98>)
 80093ca:	4290      	cmp	r0, r2
 80093cc:	d00f      	beq.n	80093ee <TIM_OC1_SetConfig+0x4a>
 80093ce:	f502 6200 	add.w	r2, r2, #2048	; 0x800
 80093d2:	4290      	cmp	r0, r2
 80093d4:	d00b      	beq.n	80093ee <TIM_OC1_SetConfig+0x4a>
 80093d6:	f502 6240 	add.w	r2, r2, #3072	; 0xc00
 80093da:	4290      	cmp	r0, r2
 80093dc:	d007      	beq.n	80093ee <TIM_OC1_SetConfig+0x4a>
 80093de:	f502 6280 	add.w	r2, r2, #1024	; 0x400
 80093e2:	4290      	cmp	r0, r2
 80093e4:	d003      	beq.n	80093ee <TIM_OC1_SetConfig+0x4a>
 80093e6:	f502 6280 	add.w	r2, r2, #1024	; 0x400
 80093ea:	4290      	cmp	r0, r2
 80093ec:	d105      	bne.n	80093fa <TIM_OC1_SetConfig+0x56>
  {
    /* Check parameters */
    assert_param(IS_TIM_OCN_POLARITY(OC_Config->OCNPolarity));

    /* Reset the Output N Polarity level */
    tmpccer &= ~TIM_CCER_CC1NP;
 80093ee:	f023 0308 	bic.w	r3, r3, #8
    /* Set the Output N Polarity */
    tmpccer |= OC_Config->OCNPolarity;
 80093f2:	68ca      	ldr	r2, [r1, #12]
 80093f4:	431a      	orrs	r2, r3
    /* Reset the Output N State */
    tmpccer &= ~TIM_CCER_CC1NE;
 80093f6:	f022 0304 	bic.w	r3, r2, #4
  }

  if (IS_TIM_BREAK_INSTANCE(TIMx))
 80093fa:	4a10      	ldr	r2, [pc, #64]	; (800943c <TIM_OC1_SetConfig+0x98>)
 80093fc:	4290      	cmp	r0, r2
 80093fe:	d00f      	beq.n	8009420 <TIM_OC1_SetConfig+0x7c>
 8009400:	f502 6200 	add.w	r2, r2, #2048	; 0x800
 8009404:	4290      	cmp	r0, r2
 8009406:	d00b      	beq.n	8009420 <TIM_OC1_SetConfig+0x7c>
 8009408:	f502 6240 	add.w	r2, r2, #3072	; 0xc00
 800940c:	4290      	cmp	r0, r2
 800940e:	d007      	beq.n	8009420 <TIM_OC1_SetConfig+0x7c>
 8009410:	f502 6280 	add.w	r2, r2, #1024	; 0x400
 8009414:	4290      	cmp	r0, r2
 8009416:	d003      	beq.n	8009420 <TIM_OC1_SetConfig+0x7c>
 8009418:	f502 6280 	add.w	r2, r2, #1024	; 0x400
 800941c:	4290      	cmp	r0, r2
 800941e:	d105      	bne.n	800942c <TIM_OC1_SetConfig+0x88>
    assert_param(IS_TIM_OCNIDLE_STATE(OC_Config->OCNIdleState));
    assert_param(IS_TIM_OCIDLE_STATE(OC_Config->OCIdleState));

    /* Reset the Output Compare and Output Compare N IDLE State */
    tmpcr2 &= ~TIM_CR2_OIS1;
    tmpcr2 &= ~TIM_CR2_OIS1N;
 8009420:	f424 7440 	bic.w	r4, r4, #768	; 0x300
    /* Set the Output Idle state */
    tmpcr2 |= OC_Config->OCIdleState;
 8009424:	694a      	ldr	r2, [r1, #20]
 8009426:	4322      	orrs	r2, r4
    /* Set the Output N Idle state */
    tmpcr2 |= OC_Config->OCNIdleState;
 8009428:	698c      	ldr	r4, [r1, #24]
 800942a:	4314      	orrs	r4, r2
  }

  /* Write to TIMx CR2 */
  TIMx->CR2 = tmpcr2;
 800942c:	6044      	str	r4, [r0, #4]

  /* Write to TIMx CCMR1 */
  TIMx->CCMR1 = tmpccmrx;
 800942e:	6185      	str	r5, [r0, #24]

  /* Set the Capture Compare Register value */
  TIMx->CCR1 = OC_Config->Pulse;
 8009430:	684a      	ldr	r2, [r1, #4]
 8009432:	6342      	str	r2, [r0, #52]	; 0x34

  /* Write to TIMx CCER */
  TIMx->CCER = tmpccer;
 8009434:	6203      	str	r3, [r0, #32]
}
 8009436:	bc30      	pop	{r4, r5}
 8009438:	4770      	bx	lr
 800943a:	bf00      	nop
 800943c:	40012c00 	.word	0x40012c00

08009440 <TIM_OC3_SetConfig>:
  * @param  TIMx to select the TIM peripheral
  * @param  OC_Config The output configuration structure
  * @retval None
  */
static void TIM_OC3_SetConfig(TIM_TypeDef *TIMx, TIM_OC_InitTypeDef *OC_Config)
{
 8009440:	b430      	push	{r4, r5}
  uint32_t tmpccmrx;
  uint32_t tmpccer;
  uint32_t tmpcr2;

  /* Disable the Channel 3: Reset the CC2E Bit */
  TIMx->CCER &= ~TIM_CCER_CC3E;
 8009442:	6a03      	ldr	r3, [r0, #32]
 8009444:	f423 7380 	bic.w	r3, r3, #256	; 0x100
 8009448:	6203      	str	r3, [r0, #32]

  /* Get the TIMx CCER register value */
  tmpccer = TIMx->CCER;
 800944a:	6a03      	ldr	r3, [r0, #32]
  /* Get the TIMx CR2 register value */
  tmpcr2 =  TIMx->CR2;
 800944c:	6844      	ldr	r4, [r0, #4]

  /* Get the TIMx CCMR2 register value */
  tmpccmrx = TIMx->CCMR2;
 800944e:	69c2      	ldr	r2, [r0, #28]

  /* Reset the Output Compare mode and Capture/Compare selection Bits */
  tmpccmrx &= ~TIM_CCMR2_OC3M;
  tmpccmrx &= ~TIM_CCMR2_CC3S;
 8009450:	f422 3280 	bic.w	r2, r2, #65536	; 0x10000
 8009454:	f022 0273 	bic.w	r2, r2, #115	; 0x73
  /* Select the Output Compare Mode */
  tmpccmrx |= OC_Config->OCMode;
 8009458:	680d      	ldr	r5, [r1, #0]
 800945a:	4315      	orrs	r5, r2

  /* Reset the Output Polarity level */
  tmpccer &= ~TIM_CCER_CC3P;
 800945c:	f423 7300 	bic.w	r3, r3, #512	; 0x200
  /* Set the Output Compare Polarity */
  tmpccer |= (OC_Config->OCPolarity << 8U);
 8009460:	688a      	ldr	r2, [r1, #8]
 8009462:	ea43 2302 	orr.w	r3, r3, r2, lsl #8

  if (IS_TIM_CCXN_INSTANCE(TIMx, TIM_CHANNEL_3))
 8009466:	4a18      	ldr	r2, [pc, #96]	; (80094c8 <TIM_OC3_SetConfig+0x88>)
 8009468:	4290      	cmp	r0, r2
 800946a:	d003      	beq.n	8009474 <TIM_OC3_SetConfig+0x34>
 800946c:	f502 6200 	add.w	r2, r2, #2048	; 0x800
 8009470:	4290      	cmp	r0, r2
 8009472:	d106      	bne.n	8009482 <TIM_OC3_SetConfig+0x42>
  {
    assert_param(IS_TIM_OCN_POLARITY(OC_Config->OCNPolarity));

    /* Reset the Output N Polarity level */
    tmpccer &= ~TIM_CCER_CC3NP;
 8009474:	f423 6300 	bic.w	r3, r3, #2048	; 0x800
    /* Set the Output N Polarity */
    tmpccer |= (OC_Config->OCNPolarity << 8U);
 8009478:	68ca      	ldr	r2, [r1, #12]
 800947a:	ea43 2302 	orr.w	r3, r3, r2, lsl #8
    /* Reset the Output N State */
    tmpccer &= ~TIM_CCER_CC3NE;
 800947e:	f423 6380 	bic.w	r3, r3, #1024	; 0x400
  }

  if (IS_TIM_BREAK_INSTANCE(TIMx))
 8009482:	4a11      	ldr	r2, [pc, #68]	; (80094c8 <TIM_OC3_SetConfig+0x88>)
 8009484:	4290      	cmp	r0, r2
 8009486:	d00f      	beq.n	80094a8 <TIM_OC3_SetConfig+0x68>
 8009488:	f502 6200 	add.w	r2, r2, #2048	; 0x800
 800948c:	4290      	cmp	r0, r2
 800948e:	d00b      	beq.n	80094a8 <TIM_OC3_SetConfig+0x68>
 8009490:	f502 6240 	add.w	r2, r2, #3072	; 0xc00
 8009494:	4290      	cmp	r0, r2
 8009496:	d007      	beq.n	80094a8 <TIM_OC3_SetConfig+0x68>
 8009498:	f502 6280 	add.w	r2, r2, #1024	; 0x400
 800949c:	4290      	cmp	r0, r2
 800949e:	d003      	beq.n	80094a8 <TIM_OC3_SetConfig+0x68>
 80094a0:	f502 6280 	add.w	r2, r2, #1024	; 0x400
 80094a4:	4290      	cmp	r0, r2
 80094a6:	d107      	bne.n	80094b8 <TIM_OC3_SetConfig+0x78>
    assert_param(IS_TIM_OCNIDLE_STATE(OC_Config->OCNIdleState));
    assert_param(IS_TIM_OCIDLE_STATE(OC_Config->OCIdleState));

    /* Reset the Output Compare and Output Compare N IDLE State */
    tmpcr2 &= ~TIM_CR2_OIS3;
    tmpcr2 &= ~TIM_CR2_OIS3N;
 80094a8:	f424 5240 	bic.w	r2, r4, #12288	; 0x3000
    /* Set the Output Idle state */
    tmpcr2 |= (OC_Config->OCIdleState << 4U);
 80094ac:	694c      	ldr	r4, [r1, #20]
 80094ae:	ea42 1204 	orr.w	r2, r2, r4, lsl #4
    /* Set the Output N Idle state */
    tmpcr2 |= (OC_Config->OCNIdleState << 4U);
 80094b2:	698c      	ldr	r4, [r1, #24]
 80094b4:	ea42 1404 	orr.w	r4, r2, r4, lsl #4
  }

  /* Write to TIMx CR2 */
  TIMx->CR2 = tmpcr2;
 80094b8:	6044      	str	r4, [r0, #4]

  /* Write to TIMx CCMR2 */
  TIMx->CCMR2 = tmpccmrx;
 80094ba:	61c5      	str	r5, [r0, #28]

  /* Set the Capture Compare Register value */
  TIMx->CCR3 = OC_Config->Pulse;
 80094bc:	684a      	ldr	r2, [r1, #4]
 80094be:	63c2      	str	r2, [r0, #60]	; 0x3c

  /* Write to TIMx CCER */
  TIMx->CCER = tmpccer;
 80094c0:	6203      	str	r3, [r0, #32]
}
 80094c2:	bc30      	pop	{r4, r5}
 80094c4:	4770      	bx	lr
 80094c6:	bf00      	nop
 80094c8:	40012c00 	.word	0x40012c00

080094cc <TIM_OC4_SetConfig>:
  * @param  TIMx to select the TIM peripheral
  * @param  OC_Config The output configuration structure
  * @retval None
  */
static void TIM_OC4_SetConfig(TIM_TypeDef *TIMx, TIM_OC_InitTypeDef *OC_Config)
{
 80094cc:	b430      	push	{r4, r5}
  uint32_t tmpccmrx;
  uint32_t tmpccer;
  uint32_t tmpcr2;

  /* Disable the Channel 4: Reset the CC4E Bit */
  TIMx->CCER &= ~TIM_CCER_CC4E;
 80094ce:	6a03      	ldr	r3, [r0, #32]
 80094d0:	f423 5380 	bic.w	r3, r3, #4096	; 0x1000
 80094d4:	6203      	str	r3, [r0, #32]

  /* Get the TIMx CCER register value */
  tmpccer = TIMx->CCER;
 80094d6:	6a03      	ldr	r3, [r0, #32]
  /* Get the TIMx CR2 register value */
  tmpcr2 =  TIMx->CR2;
 80094d8:	6844      	ldr	r4, [r0, #4]

  /* Get the TIMx CCMR2 register value */
  tmpccmrx = TIMx->CCMR2;
 80094da:	69c2      	ldr	r2, [r0, #28]

  /* Reset the Output Compare mode and Capture/Compare selection Bits */
  tmpccmrx &= ~TIM_CCMR2_OC4M;
  tmpccmrx &= ~TIM_CCMR2_CC4S;
 80094dc:	f022 7280 	bic.w	r2, r2, #16777216	; 0x1000000
 80094e0:	f422 42e6 	bic.w	r2, r2, #29440	; 0x7300

  /* Select the Output Compare Mode */
  tmpccmrx |= (OC_Config->OCMode << 8U);
 80094e4:	680d      	ldr	r5, [r1, #0]
 80094e6:	ea42 2205 	orr.w	r2, r2, r5, lsl #8

  /* Reset the Output Polarity level */
  tmpccer &= ~TIM_CCER_CC4P;
 80094ea:	f423 5300 	bic.w	r3, r3, #8192	; 0x2000
  /* Set the Output Compare Polarity */
  tmpccer |= (OC_Config->OCPolarity << 12U);
 80094ee:	688d      	ldr	r5, [r1, #8]
 80094f0:	ea43 3305 	orr.w	r3, r3, r5, lsl #12

  if (IS_TIM_BREAK_INSTANCE(TIMx))
 80094f4:	4d0f      	ldr	r5, [pc, #60]	; (8009534 <TIM_OC4_SetConfig+0x68>)
 80094f6:	42a8      	cmp	r0, r5
 80094f8:	d00f      	beq.n	800951a <TIM_OC4_SetConfig+0x4e>
 80094fa:	f505 6500 	add.w	r5, r5, #2048	; 0x800
 80094fe:	42a8      	cmp	r0, r5
 8009500:	d00b      	beq.n	800951a <TIM_OC4_SetConfig+0x4e>
 8009502:	f505 6540 	add.w	r5, r5, #3072	; 0xc00
 8009506:	42a8      	cmp	r0, r5
 8009508:	d007      	beq.n	800951a <TIM_OC4_SetConfig+0x4e>
 800950a:	f505 6580 	add.w	r5, r5, #1024	; 0x400
 800950e:	42a8      	cmp	r0, r5
 8009510:	d003      	beq.n	800951a <TIM_OC4_SetConfig+0x4e>
 8009512:	f505 6580 	add.w	r5, r5, #1024	; 0x400
 8009516:	42a8      	cmp	r0, r5
 8009518:	d104      	bne.n	8009524 <TIM_OC4_SetConfig+0x58>
  {
    /* Check parameters */
    assert_param(IS_TIM_OCIDLE_STATE(OC_Config->OCIdleState));

    /* Reset the Output Compare IDLE State */
    tmpcr2 &= ~TIM_CR2_OIS4;
 800951a:	f424 4480 	bic.w	r4, r4, #16384	; 0x4000

    /* Set the Output Idle state */
    tmpcr2 |= (OC_Config->OCIdleState << 6U);
 800951e:	694d      	ldr	r5, [r1, #20]
 8009520:	ea44 1485 	orr.w	r4, r4, r5, lsl #6
  }

  /* Write to TIMx CR2 */
  TIMx->CR2 = tmpcr2;
 8009524:	6044      	str	r4, [r0, #4]

  /* Write to TIMx CCMR2 */
  TIMx->CCMR2 = tmpccmrx;
 8009526:	61c2      	str	r2, [r0, #28]

  /* Set the Capture Compare Register value */
  TIMx->CCR4 = OC_Config->Pulse;
 8009528:	684a      	ldr	r2, [r1, #4]
 800952a:	6402      	str	r2, [r0, #64]	; 0x40

  /* Write to TIMx CCER */
  TIMx->CCER = tmpccer;
 800952c:	6203      	str	r3, [r0, #32]
}
 800952e:	bc30      	pop	{r4, r5}
 8009530:	4770      	bx	lr
 8009532:	bf00      	nop
 8009534:	40012c00 	.word	0x40012c00

08009538 <TIM_OC5_SetConfig>:
  * @param  OC_Config The output configuration structure
  * @retval None
  */
static void TIM_OC5_SetConfig(TIM_TypeDef *TIMx,
                              TIM_OC_InitTypeDef *OC_Config)
{
 8009538:	b430      	push	{r4, r5}
  uint32_t tmpccmrx;
  uint32_t tmpccer;
  uint32_t tmpcr2;

  /* Disable the output: Reset the CCxE Bit */
  TIMx->CCER &= ~TIM_CCER_CC5E;
 800953a:	6a03      	ldr	r3, [r0, #32]
 800953c:	f423 3380 	bic.w	r3, r3, #65536	; 0x10000
 8009540:	6203      	str	r3, [r0, #32]

  /* Get the TIMx CCER register value */
  tmpccer = TIMx->CCER;
 8009542:	6a03      	ldr	r3, [r0, #32]
  /* Get the TIMx CR2 register value */
  tmpcr2 =  TIMx->CR2;
 8009544:	6844      	ldr	r4, [r0, #4]
  /* Get the TIMx CCMR1 register value */
  tmpccmrx = TIMx->CCMR3;
 8009546:	6d42      	ldr	r2, [r0, #84]	; 0x54

  /* Reset the Output Compare Mode Bits */
  tmpccmrx &= ~(TIM_CCMR3_OC5M);
 8009548:	f422 3280 	bic.w	r2, r2, #65536	; 0x10000
 800954c:	f022 0270 	bic.w	r2, r2, #112	; 0x70
  /* Select the Output Compare Mode */
  tmpccmrx |= OC_Config->OCMode;
 8009550:	680d      	ldr	r5, [r1, #0]
 8009552:	4315      	orrs	r5, r2

  /* Reset the Output Polarity level */
  tmpccer &= ~TIM_CCER_CC5P;
 8009554:	f423 3300 	bic.w	r3, r3, #131072	; 0x20000
  /* Set the Output Compare Polarity */
  tmpccer |= (OC_Config->OCPolarity << 16U);
 8009558:	688a      	ldr	r2, [r1, #8]
 800955a:	ea43 4302 	orr.w	r3, r3, r2, lsl #16

  if (IS_TIM_BREAK_INSTANCE(TIMx))
 800955e:	4a0f      	ldr	r2, [pc, #60]	; (800959c <TIM_OC5_SetConfig+0x64>)
 8009560:	4290      	cmp	r0, r2
 8009562:	d00f      	beq.n	8009584 <TIM_OC5_SetConfig+0x4c>
 8009564:	f502 6200 	add.w	r2, r2, #2048	; 0x800
 8009568:	4290      	cmp	r0, r2
 800956a:	d00b      	beq.n	8009584 <TIM_OC5_SetConfig+0x4c>
 800956c:	f502 6240 	add.w	r2, r2, #3072	; 0xc00
 8009570:	4290      	cmp	r0, r2
 8009572:	d007      	beq.n	8009584 <TIM_OC5_SetConfig+0x4c>
 8009574:	f502 6280 	add.w	r2, r2, #1024	; 0x400
 8009578:	4290      	cmp	r0, r2
 800957a:	d003      	beq.n	8009584 <TIM_OC5_SetConfig+0x4c>
 800957c:	f502 6280 	add.w	r2, r2, #1024	; 0x400
 8009580:	4290      	cmp	r0, r2
 8009582:	d104      	bne.n	800958e <TIM_OC5_SetConfig+0x56>
  {
    /* Reset the Output Compare IDLE State */
    tmpcr2 &= ~TIM_CR2_OIS5;
 8009584:	f424 3480 	bic.w	r4, r4, #65536	; 0x10000
    /* Set the Output Idle state */
    tmpcr2 |= (OC_Config->OCIdleState << 8U);
 8009588:	694a      	ldr	r2, [r1, #20]
 800958a:	ea44 2402 	orr.w	r4, r4, r2, lsl #8
  }
  /* Write to TIMx CR2 */
  TIMx->CR2 = tmpcr2;
 800958e:	6044      	str	r4, [r0, #4]

  /* Write to TIMx CCMR3 */
  TIMx->CCMR3 = tmpccmrx;
 8009590:	6545      	str	r5, [r0, #84]	; 0x54

  /* Set the Capture Compare Register value */
  TIMx->CCR5 = OC_Config->Pulse;
 8009592:	684a      	ldr	r2, [r1, #4]
 8009594:	6582      	str	r2, [r0, #88]	; 0x58

  /* Write to TIMx CCER */
  TIMx->CCER = tmpccer;
 8009596:	6203      	str	r3, [r0, #32]
}
 8009598:	bc30      	pop	{r4, r5}
 800959a:	4770      	bx	lr
 800959c:	40012c00 	.word	0x40012c00

080095a0 <TIM_OC6_SetConfig>:
  * @param  OC_Config The output configuration structure
  * @retval None
  */
static void TIM_OC6_SetConfig(TIM_TypeDef *TIMx,
                              TIM_OC_InitTypeDef *OC_Config)
{
 80095a0:	b430      	push	{r4, r5}
  uint32_t tmpccmrx;
  uint32_t tmpccer;
  uint32_t tmpcr2;

  /* Disable the output: Reset the CCxE Bit */
  TIMx->CCER &= ~TIM_CCER_CC6E;
 80095a2:	6a03      	ldr	r3, [r0, #32]
 80095a4:	f423 1380 	bic.w	r3, r3, #1048576	; 0x100000
 80095a8:	6203      	str	r3, [r0, #32]

  /* Get the TIMx CCER register value */
  tmpccer = TIMx->CCER;
 80095aa:	6a03      	ldr	r3, [r0, #32]
  /* Get the TIMx CR2 register value */
  tmpcr2 =  TIMx->CR2;
 80095ac:	6844      	ldr	r4, [r0, #4]
  /* Get the TIMx CCMR1 register value */
  tmpccmrx = TIMx->CCMR3;
 80095ae:	6d42      	ldr	r2, [r0, #84]	; 0x54

  /* Reset the Output Compare Mode Bits */
  tmpccmrx &= ~(TIM_CCMR3_OC6M);
 80095b0:	f022 7280 	bic.w	r2, r2, #16777216	; 0x1000000
 80095b4:	f422 42e0 	bic.w	r2, r2, #28672	; 0x7000
  /* Select the Output Compare Mode */
  tmpccmrx |= (OC_Config->OCMode << 8U);
 80095b8:	680d      	ldr	r5, [r1, #0]
 80095ba:	ea42 2205 	orr.w	r2, r2, r5, lsl #8

  /* Reset the Output Polarity level */
  tmpccer &= (uint32_t)~TIM_CCER_CC6P;
 80095be:	f423 1300 	bic.w	r3, r3, #2097152	; 0x200000
  /* Set the Output Compare Polarity */
  tmpccer |= (OC_Config->OCPolarity << 20U);
 80095c2:	688d      	ldr	r5, [r1, #8]
 80095c4:	ea43 5305 	orr.w	r3, r3, r5, lsl #20

  if (IS_TIM_BREAK_INSTANCE(TIMx))
 80095c8:	4d0f      	ldr	r5, [pc, #60]	; (8009608 <TIM_OC6_SetConfig+0x68>)
 80095ca:	42a8      	cmp	r0, r5
 80095cc:	d00f      	beq.n	80095ee <TIM_OC6_SetConfig+0x4e>
 80095ce:	f505 6500 	add.w	r5, r5, #2048	; 0x800
 80095d2:	42a8      	cmp	r0, r5
 80095d4:	d00b      	beq.n	80095ee <TIM_OC6_SetConfig+0x4e>
 80095d6:	f505 6540 	add.w	r5, r5, #3072	; 0xc00
 80095da:	42a8      	cmp	r0, r5
 80095dc:	d007      	beq.n	80095ee <TIM_OC6_SetConfig+0x4e>
 80095de:	f505 6580 	add.w	r5, r5, #1024	; 0x400
 80095e2:	42a8      	cmp	r0, r5
 80095e4:	d003      	beq.n	80095ee <TIM_OC6_SetConfig+0x4e>
 80095e6:	f505 6580 	add.w	r5, r5, #1024	; 0x400
 80095ea:	42a8      	cmp	r0, r5
 80095ec:	d104      	bne.n	80095f8 <TIM_OC6_SetConfig+0x58>
  {
    /* Reset the Output Compare IDLE State */
    tmpcr2 &= ~TIM_CR2_OIS6;
 80095ee:	f424 2480 	bic.w	r4, r4, #262144	; 0x40000
    /* Set the Output Idle state */
    tmpcr2 |= (OC_Config->OCIdleState << 10U);
 80095f2:	694d      	ldr	r5, [r1, #20]
 80095f4:	ea44 2485 	orr.w	r4, r4, r5, lsl #10
  }

  /* Write to TIMx CR2 */
  TIMx->CR2 = tmpcr2;
 80095f8:	6044      	str	r4, [r0, #4]

  /* Write to TIMx CCMR3 */
  TIMx->CCMR3 = tmpccmrx;
 80095fa:	6542      	str	r2, [r0, #84]	; 0x54

  /* Set the Capture Compare Register value */
  TIMx->CCR6 = OC_Config->Pulse;
 80095fc:	684a      	ldr	r2, [r1, #4]
 80095fe:	65c2      	str	r2, [r0, #92]	; 0x5c

  /* Write to TIMx CCER */
  TIMx->CCER = tmpccer;
 8009600:	6203      	str	r3, [r0, #32]
}
 8009602:	bc30      	pop	{r4, r5}
 8009604:	4770      	bx	lr
 8009606:	bf00      	nop
 8009608:	40012c00 	.word	0x40012c00

0800960c <HAL_TIM_Base_Start_IT>:
  if (htim->State != HAL_TIM_STATE_READY)
 800960c:	f890 303d 	ldrb.w	r3, [r0, #61]	; 0x3d
 8009610:	b2db      	uxtb	r3, r3
 8009612:	2b01      	cmp	r3, #1
 8009614:	d136      	bne.n	8009684 <HAL_TIM_Base_Start_IT+0x78>
  htim->State = HAL_TIM_STATE_BUSY;
 8009616:	2302      	movs	r3, #2
 8009618:	f880 303d 	strb.w	r3, [r0, #61]	; 0x3d
  __HAL_TIM_ENABLE_IT(htim, TIM_IT_UPDATE);
 800961c:	6802      	ldr	r2, [r0, #0]
 800961e:	68d3      	ldr	r3, [r2, #12]
 8009620:	f043 0301 	orr.w	r3, r3, #1
 8009624:	60d3      	str	r3, [r2, #12]
  if (IS_TIM_SLAVE_INSTANCE(htim->Instance))
 8009626:	6803      	ldr	r3, [r0, #0]
 8009628:	4a19      	ldr	r2, [pc, #100]	; (8009690 <HAL_TIM_Base_Start_IT+0x84>)
 800962a:	4293      	cmp	r3, r2
 800962c:	d01c      	beq.n	8009668 <HAL_TIM_Base_Start_IT+0x5c>
 800962e:	f1b3 4f80 	cmp.w	r3, #1073741824	; 0x40000000
 8009632:	d019      	beq.n	8009668 <HAL_TIM_Base_Start_IT+0x5c>
 8009634:	f5a2 3294 	sub.w	r2, r2, #75776	; 0x12800
 8009638:	4293      	cmp	r3, r2
 800963a:	d015      	beq.n	8009668 <HAL_TIM_Base_Start_IT+0x5c>
 800963c:	f502 6280 	add.w	r2, r2, #1024	; 0x400
 8009640:	4293      	cmp	r3, r2
 8009642:	d011      	beq.n	8009668 <HAL_TIM_Base_Start_IT+0x5c>
 8009644:	f502 6280 	add.w	r2, r2, #1024	; 0x400
 8009648:	4293      	cmp	r3, r2
 800964a:	d00d      	beq.n	8009668 <HAL_TIM_Base_Start_IT+0x5c>
 800964c:	f502 3294 	add.w	r2, r2, #75776	; 0x12800
 8009650:	4293      	cmp	r3, r2
 8009652:	d009      	beq.n	8009668 <HAL_TIM_Base_Start_IT+0x5c>
 8009654:	f502 6240 	add.w	r2, r2, #3072	; 0xc00
 8009658:	4293      	cmp	r3, r2
 800965a:	d005      	beq.n	8009668 <HAL_TIM_Base_Start_IT+0x5c>
    __HAL_TIM_ENABLE(htim);
 800965c:	681a      	ldr	r2, [r3, #0]
 800965e:	f042 0201 	orr.w	r2, r2, #1
 8009662:	601a      	str	r2, [r3, #0]
  return HAL_OK;
 8009664:	2000      	movs	r0, #0
 8009666:	4770      	bx	lr
    tmpsmcr = htim->Instance->SMCR & TIM_SMCR_SMS;
 8009668:	6899      	ldr	r1, [r3, #8]
 800966a:	4a0a      	ldr	r2, [pc, #40]	; (8009694 <HAL_TIM_Base_Start_IT+0x88>)
 800966c:	400a      	ands	r2, r1
    if (!IS_TIM_SLAVEMODE_TRIGGER_ENABLED(tmpsmcr))
 800966e:	2a06      	cmp	r2, #6
 8009670:	d00a      	beq.n	8009688 <HAL_TIM_Base_Start_IT+0x7c>
 8009672:	f5b2 3f80 	cmp.w	r2, #65536	; 0x10000
 8009676:	d009      	beq.n	800968c <HAL_TIM_Base_Start_IT+0x80>
      __HAL_TIM_ENABLE(htim);
 8009678:	681a      	ldr	r2, [r3, #0]
 800967a:	f042 0201 	orr.w	r2, r2, #1
 800967e:	601a      	str	r2, [r3, #0]
  return HAL_OK;
 8009680:	2000      	movs	r0, #0
 8009682:	4770      	bx	lr
    return HAL_ERROR;
 8009684:	2001      	movs	r0, #1
 8009686:	4770      	bx	lr
  return HAL_OK;
 8009688:	2000      	movs	r0, #0
 800968a:	4770      	bx	lr
 800968c:	2000      	movs	r0, #0
}
 800968e:	4770      	bx	lr
 8009690:	40012c00 	.word	0x40012c00
 8009694:	00010007 	.word	0x00010007

08009698 <HAL_TIM_ReadCapturedValue>:
  switch (Channel)
 8009698:	290c      	cmp	r1, #12
 800969a:	d814      	bhi.n	80096c6 <HAL_TIM_ReadCapturedValue+0x2e>
 800969c:	e8df f001 	tbb	[pc, r1]
 80096a0:	13131307 	.word	0x13131307
 80096a4:	1313130a 	.word	0x1313130a
 80096a8:	1313130d 	.word	0x1313130d
 80096ac:	10          	.byte	0x10
 80096ad:	00          	.byte	0x00
      tmpreg =  htim->Instance->CCR1;
 80096ae:	6803      	ldr	r3, [r0, #0]
 80096b0:	6b58      	ldr	r0, [r3, #52]	; 0x34
      break;
 80096b2:	4770      	bx	lr
      tmpreg =   htim->Instance->CCR2;
 80096b4:	6803      	ldr	r3, [r0, #0]
 80096b6:	6b98      	ldr	r0, [r3, #56]	; 0x38
      break;
 80096b8:	4770      	bx	lr
      tmpreg =   htim->Instance->CCR3;
 80096ba:	6803      	ldr	r3, [r0, #0]
 80096bc:	6bd8      	ldr	r0, [r3, #60]	; 0x3c
      break;
 80096be:	4770      	bx	lr
      tmpreg =   htim->Instance->CCR4;
 80096c0:	6803      	ldr	r3, [r0, #0]
 80096c2:	6c18      	ldr	r0, [r3, #64]	; 0x40
      break;
 80096c4:	4770      	bx	lr
  switch (Channel)
 80096c6:	2000      	movs	r0, #0
}
 80096c8:	4770      	bx	lr

080096ca <HAL_TIM_IC_CaptureCallback>:
}
 80096ca:	4770      	bx	lr

080096cc <HAL_TIM_PWM_PulseFinishedCallback>:
}
 80096cc:	4770      	bx	lr

080096ce <HAL_TIM_TriggerCallback>:
}
 80096ce:	4770      	bx	lr

080096d0 <HAL_TIM_IRQHandler>:
{
 80096d0:	b510      	push	{r4, lr}
 80096d2:	4604      	mov	r4, r0
  if (__HAL_TIM_GET_FLAG(htim, TIM_FLAG_CC1) != RESET)
 80096d4:	6803      	ldr	r3, [r0, #0]
 80096d6:	691a      	ldr	r2, [r3, #16]
 80096d8:	f012 0f02 	tst.w	r2, #2
 80096dc:	d011      	beq.n	8009702 <HAL_TIM_IRQHandler+0x32>
    if (__HAL_TIM_GET_IT_SOURCE(htim, TIM_IT_CC1) != RESET)
 80096de:	68da      	ldr	r2, [r3, #12]
 80096e0:	f012 0f02 	tst.w	r2, #2
 80096e4:	d00d      	beq.n	8009702 <HAL_TIM_IRQHandler+0x32>
        __HAL_TIM_CLEAR_IT(htim, TIM_IT_CC1);
 80096e6:	f06f 0202 	mvn.w	r2, #2
 80096ea:	611a      	str	r2, [r3, #16]
        htim->Channel = HAL_TIM_ACTIVE_CHANNEL_1;
 80096ec:	2301      	movs	r3, #1
 80096ee:	7703      	strb	r3, [r0, #28]
        if ((htim->Instance->CCMR1 & TIM_CCMR1_CC1S) != 0x00U)
 80096f0:	6803      	ldr	r3, [r0, #0]
 80096f2:	699b      	ldr	r3, [r3, #24]
 80096f4:	f013 0f03 	tst.w	r3, #3
 80096f8:	d079      	beq.n	80097ee <HAL_TIM_IRQHandler+0x11e>
          HAL_TIM_IC_CaptureCallback(htim);
 80096fa:	f7ff ffe6 	bl	80096ca <HAL_TIM_IC_CaptureCallback>
        htim->Channel = HAL_TIM_ACTIVE_CHANNEL_CLEARED;
 80096fe:	2300      	movs	r3, #0
 8009700:	7723      	strb	r3, [r4, #28]
  if (__HAL_TIM_GET_FLAG(htim, TIM_FLAG_CC2) != RESET)
 8009702:	6823      	ldr	r3, [r4, #0]
 8009704:	691a      	ldr	r2, [r3, #16]
 8009706:	f012 0f04 	tst.w	r2, #4
 800970a:	d012      	beq.n	8009732 <HAL_TIM_IRQHandler+0x62>
    if (__HAL_TIM_GET_IT_SOURCE(htim, TIM_IT_CC2) != RESET)
 800970c:	68da      	ldr	r2, [r3, #12]
 800970e:	f012 0f04 	tst.w	r2, #4
 8009712:	d00e      	beq.n	8009732 <HAL_TIM_IRQHandler+0x62>
      __HAL_TIM_CLEAR_IT(htim, TIM_IT_CC2);
 8009714:	f06f 0204 	mvn.w	r2, #4
 8009718:	611a      	str	r2, [r3, #16]
      htim->Channel = HAL_TIM_ACTIVE_CHANNEL_2;
 800971a:	2302      	movs	r3, #2
 800971c:	7723      	strb	r3, [r4, #28]
      if ((htim->Instance->CCMR1 & TIM_CCMR1_CC2S) != 0x00U)
 800971e:	6823      	ldr	r3, [r4, #0]
 8009720:	699b      	ldr	r3, [r3, #24]
 8009722:	f413 7f40 	tst.w	r3, #768	; 0x300
 8009726:	d068      	beq.n	80097fa <HAL_TIM_IRQHandler+0x12a>
        HAL_TIM_IC_CaptureCallback(htim);
 8009728:	4620      	mov	r0, r4
 800972a:	f7ff ffce 	bl	80096ca <HAL_TIM_IC_CaptureCallback>
      htim->Channel = HAL_TIM_ACTIVE_CHANNEL_CLEARED;
 800972e:	2300      	movs	r3, #0
 8009730:	7723      	strb	r3, [r4, #28]
  if (__HAL_TIM_GET_FLAG(htim, TIM_FLAG_CC3) != RESET)
 8009732:	6823      	ldr	r3, [r4, #0]
 8009734:	691a      	ldr	r2, [r3, #16]
 8009736:	f012 0f08 	tst.w	r2, #8
 800973a:	d012      	beq.n	8009762 <HAL_TIM_IRQHandler+0x92>
    if (__HAL_TIM_GET_IT_SOURCE(htim, TIM_IT_CC3) != RESET)
 800973c:	68da      	ldr	r2, [r3, #12]
 800973e:	f012 0f08 	tst.w	r2, #8
 8009742:	d00e      	beq.n	8009762 <HAL_TIM_IRQHandler+0x92>
      __HAL_TIM_CLEAR_IT(htim, TIM_IT_CC3);
 8009744:	f06f 0208 	mvn.w	r2, #8
 8009748:	611a      	str	r2, [r3, #16]
      htim->Channel = HAL_TIM_ACTIVE_CHANNEL_3;
 800974a:	2304      	movs	r3, #4
 800974c:	7723      	strb	r3, [r4, #28]
      if ((htim->Instance->CCMR2 & TIM_CCMR2_CC3S) != 0x00U)
 800974e:	6823      	ldr	r3, [r4, #0]
 8009750:	69db      	ldr	r3, [r3, #28]
 8009752:	f013 0f03 	tst.w	r3, #3
 8009756:	d057      	beq.n	8009808 <HAL_TIM_IRQHandler+0x138>
        HAL_TIM_IC_CaptureCallback(htim);
 8009758:	4620      	mov	r0, r4
 800975a:	f7ff ffb6 	bl	80096ca <HAL_TIM_IC_CaptureCallback>
      htim->Channel = HAL_TIM_ACTIVE_CHANNEL_CLEARED;
 800975e:	2300      	movs	r3, #0
 8009760:	7723      	strb	r3, [r4, #28]
  if (__HAL_TIM_GET_FLAG(htim, TIM_FLAG_CC4) != RESET)
 8009762:	6823      	ldr	r3, [r4, #0]
 8009764:	691a      	ldr	r2, [r3, #16]
 8009766:	f012 0f10 	tst.w	r2, #16
 800976a:	d012      	beq.n	8009792 <HAL_TIM_IRQHandler+0xc2>
    if (__HAL_TIM_GET_IT_SOURCE(htim, TIM_IT_CC4) != RESET)
 800976c:	68da      	ldr	r2, [r3, #12]
 800976e:	f012 0f10 	tst.w	r2, #16
 8009772:	d00e      	beq.n	8009792 <HAL_TIM_IRQHandler+0xc2>
      __HAL_TIM_CLEAR_IT(htim, TIM_IT_CC4);
 8009774:	f06f 0210 	mvn.w	r2, #16
 8009778:	611a      	str	r2, [r3, #16]
      htim->Channel = HAL_TIM_ACTIVE_CHANNEL_4;
 800977a:	2308      	movs	r3, #8
 800977c:	7723      	strb	r3, [r4, #28]
      if ((htim->Instance->CCMR2 & TIM_CCMR2_CC4S) != 0x00U)
 800977e:	6823      	ldr	r3, [r4, #0]
 8009780:	69db      	ldr	r3, [r3, #28]
 8009782:	f413 7f40 	tst.w	r3, #768	; 0x300
 8009786:	d046      	beq.n	8009816 <HAL_TIM_IRQHandler+0x146>
        HAL_TIM_IC_CaptureCallback(htim);
 8009788:	4620      	mov	r0, r4
 800978a:	f7ff ff9e 	bl	80096ca <HAL_TIM_IC_CaptureCallback>
      htim->Channel = HAL_TIM_ACTIVE_CHANNEL_CLEARED;
 800978e:	2300      	movs	r3, #0
 8009790:	7723      	strb	r3, [r4, #28]
  if (__HAL_TIM_GET_FLAG(htim, TIM_FLAG_UPDATE) != RESET)
 8009792:	6823      	ldr	r3, [r4, #0]
 8009794:	691a      	ldr	r2, [r3, #16]
 8009796:	f012 0f01 	tst.w	r2, #1
 800979a:	d003      	beq.n	80097a4 <HAL_TIM_IRQHandler+0xd4>
    if (__HAL_TIM_GET_IT_SOURCE(htim, TIM_IT_UPDATE) != RESET)
 800979c:	68da      	ldr	r2, [r3, #12]
 800979e:	f012 0f01 	tst.w	r2, #1
 80097a2:	d13f      	bne.n	8009824 <HAL_TIM_IRQHandler+0x154>
  if (__HAL_TIM_GET_FLAG(htim, TIM_FLAG_BREAK) != RESET)
 80097a4:	6823      	ldr	r3, [r4, #0]
 80097a6:	691a      	ldr	r2, [r3, #16]
 80097a8:	f012 0f80 	tst.w	r2, #128	; 0x80
 80097ac:	d003      	beq.n	80097b6 <HAL_TIM_IRQHandler+0xe6>
    if (__HAL_TIM_GET_IT_SOURCE(htim, TIM_IT_BREAK) != RESET)
 80097ae:	68da      	ldr	r2, [r3, #12]
 80097b0:	f012 0f80 	tst.w	r2, #128	; 0x80
 80097b4:	d13d      	bne.n	8009832 <HAL_TIM_IRQHandler+0x162>
  if (__HAL_TIM_GET_FLAG(htim, TIM_FLAG_BREAK2) != RESET)
 80097b6:	6823      	ldr	r3, [r4, #0]
 80097b8:	691a      	ldr	r2, [r3, #16]
 80097ba:	f412 7f80 	tst.w	r2, #256	; 0x100
 80097be:	d003      	beq.n	80097c8 <HAL_TIM_IRQHandler+0xf8>
    if (__HAL_TIM_GET_IT_SOURCE(htim, TIM_IT_BREAK) != RESET)
 80097c0:	68da      	ldr	r2, [r3, #12]
 80097c2:	f012 0f80 	tst.w	r2, #128	; 0x80
 80097c6:	d13b      	bne.n	8009840 <HAL_TIM_IRQHandler+0x170>
  if (__HAL_TIM_GET_FLAG(htim, TIM_FLAG_TRIGGER) != RESET)
 80097c8:	6823      	ldr	r3, [r4, #0]
 80097ca:	691a      	ldr	r2, [r3, #16]
 80097cc:	f012 0f40 	tst.w	r2, #64	; 0x40
 80097d0:	d003      	beq.n	80097da <HAL_TIM_IRQHandler+0x10a>
    if (__HAL_TIM_GET_IT_SOURCE(htim, TIM_IT_TRIGGER) != RESET)
 80097d2:	68da      	ldr	r2, [r3, #12]
 80097d4:	f012 0f40 	tst.w	r2, #64	; 0x40
 80097d8:	d139      	bne.n	800984e <HAL_TIM_IRQHandler+0x17e>
  if (__HAL_TIM_GET_FLAG(htim, TIM_FLAG_COM) != RESET)
 80097da:	6823      	ldr	r3, [r4, #0]
 80097dc:	691a      	ldr	r2, [r3, #16]
 80097de:	f012 0f20 	tst.w	r2, #32
 80097e2:	d003      	beq.n	80097ec <HAL_TIM_IRQHandler+0x11c>
    if (__HAL_TIM_GET_IT_SOURCE(htim, TIM_IT_COM) != RESET)
 80097e4:	68da      	ldr	r2, [r3, #12]
 80097e6:	f012 0f20 	tst.w	r2, #32
 80097ea:	d137      	bne.n	800985c <HAL_TIM_IRQHandler+0x18c>
}
 80097ec:	bd10      	pop	{r4, pc}
          HAL_TIM_OC_DelayElapsedCallback(htim);
 80097ee:	f7fc f807 	bl	8005800 <HAL_TIM_OC_DelayElapsedCallback>
          HAL_TIM_PWM_PulseFinishedCallback(htim);
 80097f2:	4620      	mov	r0, r4
 80097f4:	f7ff ff6a 	bl	80096cc <HAL_TIM_PWM_PulseFinishedCallback>
 80097f8:	e781      	b.n	80096fe <HAL_TIM_IRQHandler+0x2e>
        HAL_TIM_OC_DelayElapsedCallback(htim);
 80097fa:	4620      	mov	r0, r4
 80097fc:	f7fc f800 	bl	8005800 <HAL_TIM_OC_DelayElapsedCallback>
        HAL_TIM_PWM_PulseFinishedCallback(htim);
 8009800:	4620      	mov	r0, r4
 8009802:	f7ff ff63 	bl	80096cc <HAL_TIM_PWM_PulseFinishedCallback>
 8009806:	e792      	b.n	800972e <HAL_TIM_IRQHandler+0x5e>
        HAL_TIM_OC_DelayElapsedCallback(htim);
 8009808:	4620      	mov	r0, r4
 800980a:	f7fb fff9 	bl	8005800 <HAL_TIM_OC_DelayElapsedCallback>
        HAL_TIM_PWM_PulseFinishedCallback(htim);
 800980e:	4620      	mov	r0, r4
 8009810:	f7ff ff5c 	bl	80096cc <HAL_TIM_PWM_PulseFinishedCallback>
 8009814:	e7a3      	b.n	800975e <HAL_TIM_IRQHandler+0x8e>
        HAL_TIM_OC_DelayElapsedCallback(htim);
 8009816:	4620      	mov	r0, r4
 8009818:	f7fb fff2 	bl	8005800 <HAL_TIM_OC_DelayElapsedCallback>
        HAL_TIM_PWM_PulseFinishedCallback(htim);
 800981c:	4620      	mov	r0, r4
 800981e:	f7ff ff55 	bl	80096cc <HAL_TIM_PWM_PulseFinishedCallback>
 8009822:	e7b4      	b.n	800978e <HAL_TIM_IRQHandler+0xbe>
      __HAL_TIM_CLEAR_IT(htim, TIM_IT_UPDATE);
 8009824:	f06f 0201 	mvn.w	r2, #1
 8009828:	611a      	str	r2, [r3, #16]
      HAL_TIM_PeriodElapsedCallback(htim);
 800982a:	4620      	mov	r0, r4
 800982c:	f7fb fffe 	bl	800582c <HAL_TIM_PeriodElapsedCallback>
 8009830:	e7b8      	b.n	80097a4 <HAL_TIM_IRQHandler+0xd4>
      __HAL_TIM_CLEAR_IT(htim, TIM_IT_BREAK);
 8009832:	f06f 0280 	mvn.w	r2, #128	; 0x80
 8009836:	611a      	str	r2, [r3, #16]
      HAL_TIMEx_BreakCallback(htim);
 8009838:	4620      	mov	r0, r4
 800983a:	f000 fac0 	bl	8009dbe <HAL_TIMEx_BreakCallback>
 800983e:	e7ba      	b.n	80097b6 <HAL_TIM_IRQHandler+0xe6>
      __HAL_TIM_CLEAR_FLAG(htim, TIM_FLAG_BREAK2);
 8009840:	f46f 7280 	mvn.w	r2, #256	; 0x100
 8009844:	611a      	str	r2, [r3, #16]
      HAL_TIMEx_Break2Callback(htim);
 8009846:	4620      	mov	r0, r4
 8009848:	f000 faba 	bl	8009dc0 <HAL_TIMEx_Break2Callback>
 800984c:	e7bc      	b.n	80097c8 <HAL_TIM_IRQHandler+0xf8>
      __HAL_TIM_CLEAR_IT(htim, TIM_IT_TRIGGER);
 800984e:	f06f 0240 	mvn.w	r2, #64	; 0x40
 8009852:	611a      	str	r2, [r3, #16]
      HAL_TIM_TriggerCallback(htim);
 8009854:	4620      	mov	r0, r4
 8009856:	f7ff ff3a 	bl	80096ce <HAL_TIM_TriggerCallback>
 800985a:	e7be      	b.n	80097da <HAL_TIM_IRQHandler+0x10a>
      __HAL_TIM_CLEAR_IT(htim, TIM_FLAG_COM);
 800985c:	f06f 0220 	mvn.w	r2, #32
 8009860:	611a      	str	r2, [r3, #16]
      HAL_TIMEx_CommutCallback(htim);
 8009862:	4620      	mov	r0, r4
 8009864:	f000 faaa 	bl	8009dbc <HAL_TIMEx_CommutCallback>
}
 8009868:	e7c0      	b.n	80097ec <HAL_TIM_IRQHandler+0x11c>
	...

0800986c <TIM_Base_SetConfig>:
  tmpcr1 = TIMx->CR1;
 800986c:	6803      	ldr	r3, [r0, #0]
  if (IS_TIM_COUNTER_MODE_SELECT_INSTANCE(TIMx))
 800986e:	4a30      	ldr	r2, [pc, #192]	; (8009930 <TIM_Base_SetConfig+0xc4>)
 8009870:	4290      	cmp	r0, r2
 8009872:	d012      	beq.n	800989a <TIM_Base_SetConfig+0x2e>
 8009874:	f1b0 4f80 	cmp.w	r0, #1073741824	; 0x40000000
 8009878:	d00f      	beq.n	800989a <TIM_Base_SetConfig+0x2e>
 800987a:	f5a2 3294 	sub.w	r2, r2, #75776	; 0x12800
 800987e:	4290      	cmp	r0, r2
 8009880:	d00b      	beq.n	800989a <TIM_Base_SetConfig+0x2e>
 8009882:	f502 6280 	add.w	r2, r2, #1024	; 0x400
 8009886:	4290      	cmp	r0, r2
 8009888:	d007      	beq.n	800989a <TIM_Base_SetConfig+0x2e>
 800988a:	f502 6280 	add.w	r2, r2, #1024	; 0x400
 800988e:	4290      	cmp	r0, r2
 8009890:	d003      	beq.n	800989a <TIM_Base_SetConfig+0x2e>
 8009892:	f502 3294 	add.w	r2, r2, #75776	; 0x12800
 8009896:	4290      	cmp	r0, r2
 8009898:	d103      	bne.n	80098a2 <TIM_Base_SetConfig+0x36>
    tmpcr1 &= ~(TIM_CR1_DIR | TIM_CR1_CMS);
 800989a:	f023 0370 	bic.w	r3, r3, #112	; 0x70
    tmpcr1 |= Structure->CounterMode;
 800989e:	684a      	ldr	r2, [r1, #4]
 80098a0:	4313      	orrs	r3, r2
  if (IS_TIM_CLOCK_DIVISION_INSTANCE(TIMx))
 80098a2:	4a23      	ldr	r2, [pc, #140]	; (8009930 <TIM_Base_SetConfig+0xc4>)
 80098a4:	4290      	cmp	r0, r2
 80098a6:	d01e      	beq.n	80098e6 <TIM_Base_SetConfig+0x7a>
 80098a8:	f1b0 4f80 	cmp.w	r0, #1073741824	; 0x40000000
 80098ac:	d01b      	beq.n	80098e6 <TIM_Base_SetConfig+0x7a>
 80098ae:	f5a2 3294 	sub.w	r2, r2, #75776	; 0x12800
 80098b2:	4290      	cmp	r0, r2
 80098b4:	d017      	beq.n	80098e6 <TIM_Base_SetConfig+0x7a>
 80098b6:	f502 6280 	add.w	r2, r2, #1024	; 0x400
 80098ba:	4290      	cmp	r0, r2
 80098bc:	d013      	beq.n	80098e6 <TIM_Base_SetConfig+0x7a>
 80098be:	f502 6280 	add.w	r2, r2, #1024	; 0x400
 80098c2:	4290      	cmp	r0, r2
 80098c4:	d00f      	beq.n	80098e6 <TIM_Base_SetConfig+0x7a>
 80098c6:	f502 3294 	add.w	r2, r2, #75776	; 0x12800
 80098ca:	4290      	cmp	r0, r2
 80098cc:	d00b      	beq.n	80098e6 <TIM_Base_SetConfig+0x7a>
 80098ce:	f502 6240 	add.w	r2, r2, #3072	; 0xc00
 80098d2:	4290      	cmp	r0, r2
 80098d4:	d007      	beq.n	80098e6 <TIM_Base_SetConfig+0x7a>
 80098d6:	f502 6280 	add.w	r2, r2, #1024	; 0x400
 80098da:	4290      	cmp	r0, r2
 80098dc:	d003      	beq.n	80098e6 <TIM_Base_SetConfig+0x7a>
 80098de:	f502 6280 	add.w	r2, r2, #1024	; 0x400
 80098e2:	4290      	cmp	r0, r2
 80098e4:	d103      	bne.n	80098ee <TIM_Base_SetConfig+0x82>
    tmpcr1 &= ~TIM_CR1_CKD;
 80098e6:	f423 7340 	bic.w	r3, r3, #768	; 0x300
    tmpcr1 |= (uint32_t)Structure->ClockDivision;
 80098ea:	68ca      	ldr	r2, [r1, #12]
 80098ec:	4313      	orrs	r3, r2
  MODIFY_REG(tmpcr1, TIM_CR1_ARPE, Structure->AutoReloadPreload);
 80098ee:	f023 0380 	bic.w	r3, r3, #128	; 0x80
 80098f2:	694a      	ldr	r2, [r1, #20]
 80098f4:	4313      	orrs	r3, r2
  TIMx->CR1 = tmpcr1;
 80098f6:	6003      	str	r3, [r0, #0]
  TIMx->ARR = (uint32_t)Structure->Period ;
 80098f8:	688b      	ldr	r3, [r1, #8]
 80098fa:	62c3      	str	r3, [r0, #44]	; 0x2c
  TIMx->PSC = Structure->Prescaler;
 80098fc:	680b      	ldr	r3, [r1, #0]
 80098fe:	6283      	str	r3, [r0, #40]	; 0x28
  if (IS_TIM_REPETITION_COUNTER_INSTANCE(TIMx))
 8009900:	4b0b      	ldr	r3, [pc, #44]	; (8009930 <TIM_Base_SetConfig+0xc4>)
 8009902:	4298      	cmp	r0, r3
 8009904:	d00f      	beq.n	8009926 <TIM_Base_SetConfig+0xba>
 8009906:	f503 6300 	add.w	r3, r3, #2048	; 0x800
 800990a:	4298      	cmp	r0, r3
 800990c:	d00b      	beq.n	8009926 <TIM_Base_SetConfig+0xba>
 800990e:	f503 6340 	add.w	r3, r3, #3072	; 0xc00
 8009912:	4298      	cmp	r0, r3
 8009914:	d007      	beq.n	8009926 <TIM_Base_SetConfig+0xba>
 8009916:	f503 6380 	add.w	r3, r3, #1024	; 0x400
 800991a:	4298      	cmp	r0, r3
 800991c:	d003      	beq.n	8009926 <TIM_Base_SetConfig+0xba>
 800991e:	f503 6380 	add.w	r3, r3, #1024	; 0x400
 8009922:	4298      	cmp	r0, r3
 8009924:	d101      	bne.n	800992a <TIM_Base_SetConfig+0xbe>
    TIMx->RCR = Structure->RepetitionCounter;
 8009926:	690b      	ldr	r3, [r1, #16]
 8009928:	6303      	str	r3, [r0, #48]	; 0x30
  TIMx->EGR = TIM_EGR_UG;
 800992a:	2301      	movs	r3, #1
 800992c:	6143      	str	r3, [r0, #20]
}
 800992e:	4770      	bx	lr
 8009930:	40012c00 	.word	0x40012c00

08009934 <HAL_TIM_Base_Init>:
  if (htim == NULL)
 8009934:	b360      	cbz	r0, 8009990 <HAL_TIM_Base_Init+0x5c>
{
 8009936:	b510      	push	{r4, lr}
 8009938:	4604      	mov	r4, r0
  if (htim->State == HAL_TIM_STATE_RESET)
 800993a:	f890 303d 	ldrb.w	r3, [r0, #61]	; 0x3d
 800993e:	b313      	cbz	r3, 8009986 <HAL_TIM_Base_Init+0x52>
  htim->State = HAL_TIM_STATE_BUSY;
 8009940:	2302      	movs	r3, #2
 8009942:	f884 303d 	strb.w	r3, [r4, #61]	; 0x3d
  TIM_Base_SetConfig(htim->Instance, &htim->Init);
 8009946:	4621      	mov	r1, r4
 8009948:	f851 0b04 	ldr.w	r0, [r1], #4
 800994c:	f7ff ff8e 	bl	800986c <TIM_Base_SetConfig>
  htim->DMABurstState = HAL_DMA_BURST_STATE_READY;
 8009950:	2301      	movs	r3, #1
 8009952:	f884 3048 	strb.w	r3, [r4, #72]	; 0x48
  TIM_CHANNEL_STATE_SET_ALL(htim, HAL_TIM_CHANNEL_STATE_READY);
 8009956:	f884 303e 	strb.w	r3, [r4, #62]	; 0x3e
 800995a:	f884 303f 	strb.w	r3, [r4, #63]	; 0x3f
 800995e:	f884 3040 	strb.w	r3, [r4, #64]	; 0x40
 8009962:	f884 3041 	strb.w	r3, [r4, #65]	; 0x41
 8009966:	f884 3042 	strb.w	r3, [r4, #66]	; 0x42
 800996a:	f884 3043 	strb.w	r3, [r4, #67]	; 0x43
  TIM_CHANNEL_N_STATE_SET_ALL(htim, HAL_TIM_CHANNEL_STATE_READY);
 800996e:	f884 3044 	strb.w	r3, [r4, #68]	; 0x44
 8009972:	f884 3045 	strb.w	r3, [r4, #69]	; 0x45
 8009976:	f884 3046 	strb.w	r3, [r4, #70]	; 0x46
 800997a:	f884 3047 	strb.w	r3, [r4, #71]	; 0x47
  htim->State = HAL_TIM_STATE_READY;
 800997e:	f884 303d 	strb.w	r3, [r4, #61]	; 0x3d
  return HAL_OK;
 8009982:	2000      	movs	r0, #0
}
 8009984:	bd10      	pop	{r4, pc}
    htim->Lock = HAL_UNLOCKED;
 8009986:	f880 303c 	strb.w	r3, [r0, #60]	; 0x3c
    HAL_TIM_Base_MspInit(htim);
 800998a:	f7fc fc25 	bl	80061d8 <HAL_TIM_Base_MspInit>
 800998e:	e7d7      	b.n	8009940 <HAL_TIM_Base_Init+0xc>
    return HAL_ERROR;
 8009990:	2001      	movs	r0, #1
}
 8009992:	4770      	bx	lr

08009994 <HAL_TIM_OC_Init>:
  if (htim == NULL)
 8009994:	b360      	cbz	r0, 80099f0 <HAL_TIM_OC_Init+0x5c>
{
 8009996:	b510      	push	{r4, lr}
 8009998:	4604      	mov	r4, r0
  if (htim->State == HAL_TIM_STATE_RESET)
 800999a:	f890 303d 	ldrb.w	r3, [r0, #61]	; 0x3d
 800999e:	b313      	cbz	r3, 80099e6 <HAL_TIM_OC_Init+0x52>
  htim->State = HAL_TIM_STATE_BUSY;
 80099a0:	2302      	movs	r3, #2
 80099a2:	f884 303d 	strb.w	r3, [r4, #61]	; 0x3d
  TIM_Base_SetConfig(htim->Instance,  &htim->Init);
 80099a6:	4621      	mov	r1, r4
 80099a8:	f851 0b04 	ldr.w	r0, [r1], #4
 80099ac:	f7ff ff5e 	bl	800986c <TIM_Base_SetConfig>
  htim->DMABurstState = HAL_DMA_BURST_STATE_READY;
 80099b0:	2301      	movs	r3, #1
 80099b2:	f884 3048 	strb.w	r3, [r4, #72]	; 0x48
  TIM_CHANNEL_STATE_SET_ALL(htim, HAL_TIM_CHANNEL_STATE_READY);
 80099b6:	f884 303e 	strb.w	r3, [r4, #62]	; 0x3e
 80099ba:	f884 303f 	strb.w	r3, [r4, #63]	; 0x3f
 80099be:	f884 3040 	strb.w	r3, [r4, #64]	; 0x40
 80099c2:	f884 3041 	strb.w	r3, [r4, #65]	; 0x41
 80099c6:	f884 3042 	strb.w	r3, [r4, #66]	; 0x42
 80099ca:	f884 3043 	strb.w	r3, [r4, #67]	; 0x43
  TIM_CHANNEL_N_STATE_SET_ALL(htim, HAL_TIM_CHANNEL_STATE_READY);
 80099ce:	f884 3044 	strb.w	r3, [r4, #68]	; 0x44
 80099d2:	f884 3045 	strb.w	r3, [r4, #69]	; 0x45
 80099d6:	f884 3046 	strb.w	r3, [r4, #70]	; 0x46
 80099da:	f884 3047 	strb.w	r3, [r4, #71]	; 0x47
  htim->State = HAL_TIM_STATE_READY;
 80099de:	f884 303d 	strb.w	r3, [r4, #61]	; 0x3d
  return HAL_OK;
 80099e2:	2000      	movs	r0, #0
}
 80099e4:	bd10      	pop	{r4, pc}
    htim->Lock = HAL_UNLOCKED;
 80099e6:	f880 303c 	strb.w	r3, [r0, #60]	; 0x3c
    HAL_TIM_OC_MspInit(htim);
 80099ea:	f7fc fc2d 	bl	8006248 <HAL_TIM_OC_MspInit>
 80099ee:	e7d7      	b.n	80099a0 <HAL_TIM_OC_Init+0xc>
    return HAL_ERROR;
 80099f0:	2001      	movs	r0, #1
}
 80099f2:	4770      	bx	lr

080099f4 <TIM_OC2_SetConfig>:
{
 80099f4:	b430      	push	{r4, r5}
  TIMx->CCER &= ~TIM_CCER_CC2E;
 80099f6:	6a03      	ldr	r3, [r0, #32]
 80099f8:	f023 0310 	bic.w	r3, r3, #16
 80099fc:	6203      	str	r3, [r0, #32]
  tmpccer = TIMx->CCER;
 80099fe:	6a03      	ldr	r3, [r0, #32]
  tmpcr2 =  TIMx->CR2;
 8009a00:	6844      	ldr	r4, [r0, #4]
  tmpccmrx = TIMx->CCMR1;
 8009a02:	6982      	ldr	r2, [r0, #24]
  tmpccmrx &= ~TIM_CCMR1_CC2S;
 8009a04:	f022 7280 	bic.w	r2, r2, #16777216	; 0x1000000
 8009a08:	f422 42e6 	bic.w	r2, r2, #29440	; 0x7300
  tmpccmrx |= (OC_Config->OCMode << 8U);
 8009a0c:	680d      	ldr	r5, [r1, #0]
 8009a0e:	ea42 2205 	orr.w	r2, r2, r5, lsl #8
  tmpccer &= ~TIM_CCER_CC2P;
 8009a12:	f023 0320 	bic.w	r3, r3, #32
  tmpccer |= (OC_Config->OCPolarity << 4U);
 8009a16:	688d      	ldr	r5, [r1, #8]
 8009a18:	ea43 1305 	orr.w	r3, r3, r5, lsl #4
  if (IS_TIM_CCXN_INSTANCE(TIMx, TIM_CHANNEL_2))
 8009a1c:	4d17      	ldr	r5, [pc, #92]	; (8009a7c <TIM_OC2_SetConfig+0x88>)
 8009a1e:	42a8      	cmp	r0, r5
 8009a20:	d003      	beq.n	8009a2a <TIM_OC2_SetConfig+0x36>
 8009a22:	f505 6500 	add.w	r5, r5, #2048	; 0x800
 8009a26:	42a8      	cmp	r0, r5
 8009a28:	d106      	bne.n	8009a38 <TIM_OC2_SetConfig+0x44>
    tmpccer &= ~TIM_CCER_CC2NP;
 8009a2a:	f023 0380 	bic.w	r3, r3, #128	; 0x80
    tmpccer |= (OC_Config->OCNPolarity << 4U);
 8009a2e:	68cd      	ldr	r5, [r1, #12]
 8009a30:	ea43 1305 	orr.w	r3, r3, r5, lsl #4
    tmpccer &= ~TIM_CCER_CC2NE;
 8009a34:	f023 0340 	bic.w	r3, r3, #64	; 0x40
  if (IS_TIM_BREAK_INSTANCE(TIMx))
 8009a38:	4d10      	ldr	r5, [pc, #64]	; (8009a7c <TIM_OC2_SetConfig+0x88>)
 8009a3a:	42a8      	cmp	r0, r5
 8009a3c:	d00f      	beq.n	8009a5e <TIM_OC2_SetConfig+0x6a>
 8009a3e:	f505 6500 	add.w	r5, r5, #2048	; 0x800
 8009a42:	42a8      	cmp	r0, r5
 8009a44:	d00b      	beq.n	8009a5e <TIM_OC2_SetConfig+0x6a>
 8009a46:	f505 6540 	add.w	r5, r5, #3072	; 0xc00
 8009a4a:	42a8      	cmp	r0, r5
 8009a4c:	d007      	beq.n	8009a5e <TIM_OC2_SetConfig+0x6a>
 8009a4e:	f505 6580 	add.w	r5, r5, #1024	; 0x400
 8009a52:	42a8      	cmp	r0, r5
 8009a54:	d003      	beq.n	8009a5e <TIM_OC2_SetConfig+0x6a>
 8009a56:	f505 6580 	add.w	r5, r5, #1024	; 0x400
 8009a5a:	42a8      	cmp	r0, r5
 8009a5c:	d107      	bne.n	8009a6e <TIM_OC2_SetConfig+0x7a>
    tmpcr2 &= ~TIM_CR2_OIS2N;
 8009a5e:	f424 6c40 	bic.w	ip, r4, #3072	; 0xc00
    tmpcr2 |= (OC_Config->OCIdleState << 2U);
 8009a62:	694c      	ldr	r4, [r1, #20]
 8009a64:	ea4c 0c84 	orr.w	ip, ip, r4, lsl #2
    tmpcr2 |= (OC_Config->OCNIdleState << 2U);
 8009a68:	698c      	ldr	r4, [r1, #24]
 8009a6a:	ea4c 0484 	orr.w	r4, ip, r4, lsl #2
  TIMx->CR2 = tmpcr2;
 8009a6e:	6044      	str	r4, [r0, #4]
  TIMx->CCMR1 = tmpccmrx;
 8009a70:	6182      	str	r2, [r0, #24]
  TIMx->CCR2 = OC_Config->Pulse;
 8009a72:	684a      	ldr	r2, [r1, #4]
 8009a74:	6382      	str	r2, [r0, #56]	; 0x38
  TIMx->CCER = tmpccer;
 8009a76:	6203      	str	r3, [r0, #32]
}
 8009a78:	bc30      	pop	{r4, r5}
 8009a7a:	4770      	bx	lr
 8009a7c:	40012c00 	.word	0x40012c00

08009a80 <HAL_TIM_OC_ConfigChannel>:
  __HAL_LOCK(htim);
 8009a80:	f890 303c 	ldrb.w	r3, [r0, #60]	; 0x3c
 8009a84:	2b01      	cmp	r3, #1
 8009a86:	d02e      	beq.n	8009ae6 <HAL_TIM_OC_ConfigChannel+0x66>
{
 8009a88:	b510      	push	{r4, lr}
 8009a8a:	4604      	mov	r4, r0
  __HAL_LOCK(htim);
 8009a8c:	2301      	movs	r3, #1
 8009a8e:	f880 303c 	strb.w	r3, [r0, #60]	; 0x3c
  switch (Channel)
 8009a92:	2a14      	cmp	r2, #20
 8009a94:	d80f      	bhi.n	8009ab6 <HAL_TIM_OC_ConfigChannel+0x36>
 8009a96:	e8df f002 	tbb	[pc, r2]
 8009a9a:	0e0b      	.short	0x0e0b
 8009a9c:	0e120e0e 	.word	0x0e120e0e
 8009aa0:	0e160e0e 	.word	0x0e160e0e
 8009aa4:	0e1a0e0e 	.word	0x0e1a0e0e
 8009aa8:	0e1e0e0e 	.word	0x0e1e0e0e
 8009aac:	0e0e      	.short	0x0e0e
 8009aae:	22          	.byte	0x22
 8009aaf:	00          	.byte	0x00
      TIM_OC1_SetConfig(htim->Instance, sConfig);
 8009ab0:	6800      	ldr	r0, [r0, #0]
 8009ab2:	f7ff fc77 	bl	80093a4 <TIM_OC1_SetConfig>
  __HAL_UNLOCK(htim);
 8009ab6:	2000      	movs	r0, #0
 8009ab8:	f884 003c 	strb.w	r0, [r4, #60]	; 0x3c
}
 8009abc:	bd10      	pop	{r4, pc}
      TIM_OC2_SetConfig(htim->Instance, sConfig);
 8009abe:	6800      	ldr	r0, [r0, #0]
 8009ac0:	f7ff ff98 	bl	80099f4 <TIM_OC2_SetConfig>
      break;
 8009ac4:	e7f7      	b.n	8009ab6 <HAL_TIM_OC_ConfigChannel+0x36>
      TIM_OC3_SetConfig(htim->Instance, sConfig);
 8009ac6:	6800      	ldr	r0, [r0, #0]
 8009ac8:	f7ff fcba 	bl	8009440 <TIM_OC3_SetConfig>
      break;
 8009acc:	e7f3      	b.n	8009ab6 <HAL_TIM_OC_ConfigChannel+0x36>
      TIM_OC4_SetConfig(htim->Instance, sConfig);
 8009ace:	6800      	ldr	r0, [r0, #0]
 8009ad0:	f7ff fcfc 	bl	80094cc <TIM_OC4_SetConfig>
      break;
 8009ad4:	e7ef      	b.n	8009ab6 <HAL_TIM_OC_ConfigChannel+0x36>
      TIM_OC5_SetConfig(htim->Instance, sConfig);
 8009ad6:	6800      	ldr	r0, [r0, #0]
 8009ad8:	f7ff fd2e 	bl	8009538 <TIM_OC5_SetConfig>
      break;
 8009adc:	e7eb      	b.n	8009ab6 <HAL_TIM_OC_ConfigChannel+0x36>
      TIM_OC6_SetConfig(htim->Instance, sConfig);
 8009ade:	6800      	ldr	r0, [r0, #0]
 8009ae0:	f7ff fd5e 	bl	80095a0 <TIM_OC6_SetConfig>
      break;
 8009ae4:	e7e7      	b.n	8009ab6 <HAL_TIM_OC_ConfigChannel+0x36>
  __HAL_LOCK(htim);
 8009ae6:	2002      	movs	r0, #2
}
 8009ae8:	4770      	bx	lr

08009aea <TIM_CCxChannelCmd>:

  /* Check the parameters */
  assert_param(IS_TIM_CC1_INSTANCE(TIMx));
  assert_param(IS_TIM_CHANNELS(Channel));

  tmp = TIM_CCER_CC1E << (Channel & 0x1FU); /* 0x1FU = 31 bits max shift */
 8009aea:	f001 011f 	and.w	r1, r1, #31
 8009aee:	f04f 0c01 	mov.w	ip, #1
 8009af2:	fa0c fc01 	lsl.w	ip, ip, r1

  /* Reset the CCxE Bit */
  TIMx->CCER &= ~tmp;
 8009af6:	6a03      	ldr	r3, [r0, #32]
 8009af8:	ea23 030c 	bic.w	r3, r3, ip
 8009afc:	6203      	str	r3, [r0, #32]

  /* Set or reset the CCxE Bit */
  TIMx->CCER |= (uint32_t)(ChannelState << (Channel & 0x1FU)); /* 0x1FU = 31 bits max shift */
 8009afe:	6a03      	ldr	r3, [r0, #32]
 8009b00:	408a      	lsls	r2, r1
 8009b02:	4313      	orrs	r3, r2
 8009b04:	6203      	str	r3, [r0, #32]
}
 8009b06:	4770      	bx	lr

08009b08 <HAL_TIM_OC_Start_IT>:
{
 8009b08:	b510      	push	{r4, lr}
 8009b0a:	4604      	mov	r4, r0
  if (TIM_CHANNEL_STATE_GET(htim, Channel) != HAL_TIM_CHANNEL_STATE_READY)
 8009b0c:	2910      	cmp	r1, #16
 8009b0e:	d83c      	bhi.n	8009b8a <HAL_TIM_OC_Start_IT+0x82>
 8009b10:	e8df f001 	tbb	[pc, r1]
 8009b14:	3b3b3b09 	.word	0x3b3b3b09
 8009b18:	3b3b3b1f 	.word	0x3b3b3b1f
 8009b1c:	3b3b3b26 	.word	0x3b3b3b26
 8009b20:	3b3b3b2d 	.word	0x3b3b3b2d
 8009b24:	34          	.byte	0x34
 8009b25:	00          	.byte	0x00
 8009b26:	f890 303e 	ldrb.w	r3, [r0, #62]	; 0x3e
 8009b2a:	b2db      	uxtb	r3, r3
 8009b2c:	3b01      	subs	r3, #1
 8009b2e:	bf18      	it	ne
 8009b30:	2301      	movne	r3, #1
 8009b32:	2b00      	cmp	r3, #0
 8009b34:	f040 80b4 	bne.w	8009ca0 <HAL_TIM_OC_Start_IT+0x198>
  TIM_CHANNEL_STATE_SET(htim, Channel, HAL_TIM_CHANNEL_STATE_BUSY);
 8009b38:	2910      	cmp	r1, #16
 8009b3a:	d84b      	bhi.n	8009bd4 <HAL_TIM_OC_Start_IT+0xcc>
 8009b3c:	e8df f001 	tbb	[pc, r1]
 8009b40:	4a4a4a2c 	.word	0x4a4a4a2c
 8009b44:	4a4a4a3a 	.word	0x4a4a4a3a
 8009b48:	4a4a4a3e 	.word	0x4a4a4a3e
 8009b4c:	4a4a4a42 	.word	0x4a4a4a42
 8009b50:	46          	.byte	0x46
 8009b51:	00          	.byte	0x00
  if (TIM_CHANNEL_STATE_GET(htim, Channel) != HAL_TIM_CHANNEL_STATE_READY)
 8009b52:	f890 303f 	ldrb.w	r3, [r0, #63]	; 0x3f
 8009b56:	b2db      	uxtb	r3, r3
 8009b58:	3b01      	subs	r3, #1
 8009b5a:	bf18      	it	ne
 8009b5c:	2301      	movne	r3, #1
 8009b5e:	e7e8      	b.n	8009b32 <HAL_TIM_OC_Start_IT+0x2a>
 8009b60:	f890 3040 	ldrb.w	r3, [r0, #64]	; 0x40
 8009b64:	b2db      	uxtb	r3, r3
 8009b66:	3b01      	subs	r3, #1
 8009b68:	bf18      	it	ne
 8009b6a:	2301      	movne	r3, #1
 8009b6c:	e7e1      	b.n	8009b32 <HAL_TIM_OC_Start_IT+0x2a>
 8009b6e:	f890 3041 	ldrb.w	r3, [r0, #65]	; 0x41
 8009b72:	b2db      	uxtb	r3, r3
 8009b74:	3b01      	subs	r3, #1
 8009b76:	bf18      	it	ne
 8009b78:	2301      	movne	r3, #1
 8009b7a:	e7da      	b.n	8009b32 <HAL_TIM_OC_Start_IT+0x2a>
 8009b7c:	f890 3042 	ldrb.w	r3, [r0, #66]	; 0x42
 8009b80:	b2db      	uxtb	r3, r3
 8009b82:	3b01      	subs	r3, #1
 8009b84:	bf18      	it	ne
 8009b86:	2301      	movne	r3, #1
 8009b88:	e7d3      	b.n	8009b32 <HAL_TIM_OC_Start_IT+0x2a>
 8009b8a:	f890 3043 	ldrb.w	r3, [r0, #67]	; 0x43
 8009b8e:	b2db      	uxtb	r3, r3
 8009b90:	3b01      	subs	r3, #1
 8009b92:	bf18      	it	ne
 8009b94:	2301      	movne	r3, #1
 8009b96:	e7cc      	b.n	8009b32 <HAL_TIM_OC_Start_IT+0x2a>
  TIM_CHANNEL_STATE_SET(htim, Channel, HAL_TIM_CHANNEL_STATE_BUSY);
 8009b98:	2302      	movs	r3, #2
 8009b9a:	f884 303e 	strb.w	r3, [r4, #62]	; 0x3e
  switch (Channel)
 8009b9e:	290c      	cmp	r1, #12
 8009ba0:	d821      	bhi.n	8009be6 <HAL_TIM_OC_Start_IT+0xde>
 8009ba2:	e8df f001 	tbb	[pc, r1]
 8009ba6:	201b      	.short	0x201b
 8009ba8:	205d2020 	.word	0x205d2020
 8009bac:	20632020 	.word	0x20632020
 8009bb0:	2020      	.short	0x2020
 8009bb2:	69          	.byte	0x69
 8009bb3:	00          	.byte	0x00
  TIM_CHANNEL_STATE_SET(htim, Channel, HAL_TIM_CHANNEL_STATE_BUSY);
 8009bb4:	2302      	movs	r3, #2
 8009bb6:	f884 303f 	strb.w	r3, [r4, #63]	; 0x3f
 8009bba:	e7f0      	b.n	8009b9e <HAL_TIM_OC_Start_IT+0x96>
 8009bbc:	2302      	movs	r3, #2
 8009bbe:	f884 3040 	strb.w	r3, [r4, #64]	; 0x40
 8009bc2:	e7ec      	b.n	8009b9e <HAL_TIM_OC_Start_IT+0x96>
 8009bc4:	2302      	movs	r3, #2
 8009bc6:	f884 3041 	strb.w	r3, [r4, #65]	; 0x41
 8009bca:	e7e8      	b.n	8009b9e <HAL_TIM_OC_Start_IT+0x96>
 8009bcc:	2302      	movs	r3, #2
 8009bce:	f884 3042 	strb.w	r3, [r4, #66]	; 0x42
 8009bd2:	e7e4      	b.n	8009b9e <HAL_TIM_OC_Start_IT+0x96>
 8009bd4:	2302      	movs	r3, #2
 8009bd6:	f884 3043 	strb.w	r3, [r4, #67]	; 0x43
 8009bda:	e7e0      	b.n	8009b9e <HAL_TIM_OC_Start_IT+0x96>
      __HAL_TIM_ENABLE_IT(htim, TIM_IT_CC1);
 8009bdc:	6822      	ldr	r2, [r4, #0]
 8009bde:	68d3      	ldr	r3, [r2, #12]
 8009be0:	f043 0302 	orr.w	r3, r3, #2
 8009be4:	60d3      	str	r3, [r2, #12]
  TIM_CCxChannelCmd(htim->Instance, Channel, TIM_CCx_ENABLE);
 8009be6:	2201      	movs	r2, #1
 8009be8:	6820      	ldr	r0, [r4, #0]
 8009bea:	f7ff ff7e 	bl	8009aea <TIM_CCxChannelCmd>
  if (IS_TIM_BREAK_INSTANCE(htim->Instance) != RESET)
 8009bee:	6823      	ldr	r3, [r4, #0]
 8009bf0:	4a2e      	ldr	r2, [pc, #184]	; (8009cac <HAL_TIM_OC_Start_IT+0x1a4>)
 8009bf2:	4293      	cmp	r3, r2
 8009bf4:	d00f      	beq.n	8009c16 <HAL_TIM_OC_Start_IT+0x10e>
 8009bf6:	f502 6200 	add.w	r2, r2, #2048	; 0x800
 8009bfa:	4293      	cmp	r3, r2
 8009bfc:	d00b      	beq.n	8009c16 <HAL_TIM_OC_Start_IT+0x10e>
 8009bfe:	f502 6240 	add.w	r2, r2, #3072	; 0xc00
 8009c02:	4293      	cmp	r3, r2
 8009c04:	d007      	beq.n	8009c16 <HAL_TIM_OC_Start_IT+0x10e>
 8009c06:	f502 6280 	add.w	r2, r2, #1024	; 0x400
 8009c0a:	4293      	cmp	r3, r2
 8009c0c:	d003      	beq.n	8009c16 <HAL_TIM_OC_Start_IT+0x10e>
 8009c0e:	f502 6280 	add.w	r2, r2, #1024	; 0x400
 8009c12:	4293      	cmp	r3, r2
 8009c14:	d103      	bne.n	8009c1e <HAL_TIM_OC_Start_IT+0x116>
    __HAL_TIM_MOE_ENABLE(htim);
 8009c16:	6c5a      	ldr	r2, [r3, #68]	; 0x44
 8009c18:	f442 4200 	orr.w	r2, r2, #32768	; 0x8000
 8009c1c:	645a      	str	r2, [r3, #68]	; 0x44
  if (IS_TIM_SLAVE_INSTANCE(htim->Instance))
 8009c1e:	6823      	ldr	r3, [r4, #0]
 8009c20:	4a22      	ldr	r2, [pc, #136]	; (8009cac <HAL_TIM_OC_Start_IT+0x1a4>)
 8009c22:	4293      	cmp	r3, r2
 8009c24:	d02e      	beq.n	8009c84 <HAL_TIM_OC_Start_IT+0x17c>
 8009c26:	f1b3 4f80 	cmp.w	r3, #1073741824	; 0x40000000
 8009c2a:	d02b      	beq.n	8009c84 <HAL_TIM_OC_Start_IT+0x17c>
 8009c2c:	f5a2 3294 	sub.w	r2, r2, #75776	; 0x12800
 8009c30:	4293      	cmp	r3, r2
 8009c32:	d027      	beq.n	8009c84 <HAL_TIM_OC_Start_IT+0x17c>
 8009c34:	f502 6280 	add.w	r2, r2, #1024	; 0x400
 8009c38:	4293      	cmp	r3, r2
 8009c3a:	d023      	beq.n	8009c84 <HAL_TIM_OC_Start_IT+0x17c>
 8009c3c:	f502 6280 	add.w	r2, r2, #1024	; 0x400
 8009c40:	4293      	cmp	r3, r2
 8009c42:	d01f      	beq.n	8009c84 <HAL_TIM_OC_Start_IT+0x17c>
 8009c44:	f502 3294 	add.w	r2, r2, #75776	; 0x12800
 8009c48:	4293      	cmp	r3, r2
 8009c4a:	d01b      	beq.n	8009c84 <HAL_TIM_OC_Start_IT+0x17c>
 8009c4c:	f502 6240 	add.w	r2, r2, #3072	; 0xc00
 8009c50:	4293      	cmp	r3, r2
 8009c52:	d017      	beq.n	8009c84 <HAL_TIM_OC_Start_IT+0x17c>
    __HAL_TIM_ENABLE(htim);
 8009c54:	681a      	ldr	r2, [r3, #0]
 8009c56:	f042 0201 	orr.w	r2, r2, #1
 8009c5a:	601a      	str	r2, [r3, #0]
  return HAL_OK;
 8009c5c:	2000      	movs	r0, #0
 8009c5e:	e020      	b.n	8009ca2 <HAL_TIM_OC_Start_IT+0x19a>
      __HAL_TIM_ENABLE_IT(htim, TIM_IT_CC2);
 8009c60:	6822      	ldr	r2, [r4, #0]
 8009c62:	68d3      	ldr	r3, [r2, #12]
 8009c64:	f043 0304 	orr.w	r3, r3, #4
 8009c68:	60d3      	str	r3, [r2, #12]
      break;
 8009c6a:	e7bc      	b.n	8009be6 <HAL_TIM_OC_Start_IT+0xde>
      __HAL_TIM_ENABLE_IT(htim, TIM_IT_CC3);
 8009c6c:	6822      	ldr	r2, [r4, #0]
 8009c6e:	68d3      	ldr	r3, [r2, #12]
 8009c70:	f043 0308 	orr.w	r3, r3, #8
 8009c74:	60d3      	str	r3, [r2, #12]
      break;
 8009c76:	e7b6      	b.n	8009be6 <HAL_TIM_OC_Start_IT+0xde>
      __HAL_TIM_ENABLE_IT(htim, TIM_IT_CC4);
 8009c78:	6822      	ldr	r2, [r4, #0]
 8009c7a:	68d3      	ldr	r3, [r2, #12]
 8009c7c:	f043 0310 	orr.w	r3, r3, #16
 8009c80:	60d3      	str	r3, [r2, #12]
      break;
 8009c82:	e7b0      	b.n	8009be6 <HAL_TIM_OC_Start_IT+0xde>
    tmpsmcr = htim->Instance->SMCR & TIM_SMCR_SMS;
 8009c84:	6899      	ldr	r1, [r3, #8]
 8009c86:	4a0a      	ldr	r2, [pc, #40]	; (8009cb0 <HAL_TIM_OC_Start_IT+0x1a8>)
 8009c88:	400a      	ands	r2, r1
    if (!IS_TIM_SLAVEMODE_TRIGGER_ENABLED(tmpsmcr))
 8009c8a:	2a06      	cmp	r2, #6
 8009c8c:	d00a      	beq.n	8009ca4 <HAL_TIM_OC_Start_IT+0x19c>
 8009c8e:	f5b2 3f80 	cmp.w	r2, #65536	; 0x10000
 8009c92:	d009      	beq.n	8009ca8 <HAL_TIM_OC_Start_IT+0x1a0>
      __HAL_TIM_ENABLE(htim);
 8009c94:	681a      	ldr	r2, [r3, #0]
 8009c96:	f042 0201 	orr.w	r2, r2, #1
 8009c9a:	601a      	str	r2, [r3, #0]
  return HAL_OK;
 8009c9c:	2000      	movs	r0, #0
 8009c9e:	e000      	b.n	8009ca2 <HAL_TIM_OC_Start_IT+0x19a>
    return HAL_ERROR;
 8009ca0:	2001      	movs	r0, #1
}
 8009ca2:	bd10      	pop	{r4, pc}
  return HAL_OK;
 8009ca4:	2000      	movs	r0, #0
 8009ca6:	e7fc      	b.n	8009ca2 <HAL_TIM_OC_Start_IT+0x19a>
 8009ca8:	2000      	movs	r0, #0
 8009caa:	e7fa      	b.n	8009ca2 <HAL_TIM_OC_Start_IT+0x19a>
 8009cac:	40012c00 	.word	0x40012c00
 8009cb0:	00010007 	.word	0x00010007

08009cb4 <HAL_TIM_OC_Stop_IT>:
{
 8009cb4:	b538      	push	{r3, r4, r5, lr}
 8009cb6:	4605      	mov	r5, r0
 8009cb8:	460c      	mov	r4, r1
  switch (Channel)
 8009cba:	290c      	cmp	r1, #12
 8009cbc:	d80d      	bhi.n	8009cda <HAL_TIM_OC_Stop_IT+0x26>
 8009cbe:	e8df f001 	tbb	[pc, r1]
 8009cc2:	0c07      	.short	0x0c07
 8009cc4:	0c480c0c 	.word	0x0c480c0c
 8009cc8:	0c4e0c0c 	.word	0x0c4e0c0c
 8009ccc:	0c0c      	.short	0x0c0c
 8009cce:	54          	.byte	0x54
 8009ccf:	00          	.byte	0x00
      __HAL_TIM_DISABLE_IT(htim, TIM_IT_CC1);
 8009cd0:	6802      	ldr	r2, [r0, #0]
 8009cd2:	68d3      	ldr	r3, [r2, #12]
 8009cd4:	f023 0302 	bic.w	r3, r3, #2
 8009cd8:	60d3      	str	r3, [r2, #12]
  TIM_CCxChannelCmd(htim->Instance, Channel, TIM_CCx_DISABLE);
 8009cda:	2200      	movs	r2, #0
 8009cdc:	4621      	mov	r1, r4
 8009cde:	6828      	ldr	r0, [r5, #0]
 8009ce0:	f7ff ff03 	bl	8009aea <TIM_CCxChannelCmd>
  if (IS_TIM_BREAK_INSTANCE(htim->Instance) != RESET)
 8009ce4:	682b      	ldr	r3, [r5, #0]
 8009ce6:	4a34      	ldr	r2, [pc, #208]	; (8009db8 <HAL_TIM_OC_Stop_IT+0x104>)
 8009ce8:	4293      	cmp	r3, r2
 8009cea:	d00f      	beq.n	8009d0c <HAL_TIM_OC_Stop_IT+0x58>
 8009cec:	f502 6200 	add.w	r2, r2, #2048	; 0x800
 8009cf0:	4293      	cmp	r3, r2
 8009cf2:	d00b      	beq.n	8009d0c <HAL_TIM_OC_Stop_IT+0x58>
 8009cf4:	f502 6240 	add.w	r2, r2, #3072	; 0xc00
 8009cf8:	4293      	cmp	r3, r2
 8009cfa:	d007      	beq.n	8009d0c <HAL_TIM_OC_Stop_IT+0x58>
 8009cfc:	f502 6280 	add.w	r2, r2, #1024	; 0x400
 8009d00:	4293      	cmp	r3, r2
 8009d02:	d003      	beq.n	8009d0c <HAL_TIM_OC_Stop_IT+0x58>
 8009d04:	f502 6280 	add.w	r2, r2, #1024	; 0x400
 8009d08:	4293      	cmp	r3, r2
 8009d0a:	d10d      	bne.n	8009d28 <HAL_TIM_OC_Stop_IT+0x74>
    __HAL_TIM_MOE_DISABLE(htim);
 8009d0c:	6a19      	ldr	r1, [r3, #32]
 8009d0e:	f241 1211 	movw	r2, #4369	; 0x1111
 8009d12:	4211      	tst	r1, r2
 8009d14:	d108      	bne.n	8009d28 <HAL_TIM_OC_Stop_IT+0x74>
 8009d16:	6a19      	ldr	r1, [r3, #32]
 8009d18:	f240 4244 	movw	r2, #1092	; 0x444
 8009d1c:	4211      	tst	r1, r2
 8009d1e:	d103      	bne.n	8009d28 <HAL_TIM_OC_Stop_IT+0x74>
 8009d20:	6c5a      	ldr	r2, [r3, #68]	; 0x44
 8009d22:	f422 4200 	bic.w	r2, r2, #32768	; 0x8000
 8009d26:	645a      	str	r2, [r3, #68]	; 0x44
  __HAL_TIM_DISABLE(htim);
 8009d28:	682b      	ldr	r3, [r5, #0]
 8009d2a:	6a19      	ldr	r1, [r3, #32]
 8009d2c:	f241 1211 	movw	r2, #4369	; 0x1111
 8009d30:	4211      	tst	r1, r2
 8009d32:	d108      	bne.n	8009d46 <HAL_TIM_OC_Stop_IT+0x92>
 8009d34:	6a19      	ldr	r1, [r3, #32]
 8009d36:	f240 4244 	movw	r2, #1092	; 0x444
 8009d3a:	4211      	tst	r1, r2
 8009d3c:	d103      	bne.n	8009d46 <HAL_TIM_OC_Stop_IT+0x92>
 8009d3e:	681a      	ldr	r2, [r3, #0]
 8009d40:	f022 0201 	bic.w	r2, r2, #1
 8009d44:	601a      	str	r2, [r3, #0]
  TIM_CHANNEL_STATE_SET(htim, Channel, HAL_TIM_CHANNEL_STATE_READY);
 8009d46:	b9b4      	cbnz	r4, 8009d76 <HAL_TIM_OC_Stop_IT+0xc2>
 8009d48:	2301      	movs	r3, #1
 8009d4a:	f885 303e 	strb.w	r3, [r5, #62]	; 0x3e
}
 8009d4e:	2000      	movs	r0, #0
 8009d50:	bd38      	pop	{r3, r4, r5, pc}
      __HAL_TIM_DISABLE_IT(htim, TIM_IT_CC2);
 8009d52:	6802      	ldr	r2, [r0, #0]
 8009d54:	68d3      	ldr	r3, [r2, #12]
 8009d56:	f023 0304 	bic.w	r3, r3, #4
 8009d5a:	60d3      	str	r3, [r2, #12]
      break;
 8009d5c:	e7bd      	b.n	8009cda <HAL_TIM_OC_Stop_IT+0x26>
      __HAL_TIM_DISABLE_IT(htim, TIM_IT_CC3);
 8009d5e:	6802      	ldr	r2, [r0, #0]
 8009d60:	68d3      	ldr	r3, [r2, #12]
 8009d62:	f023 0308 	bic.w	r3, r3, #8
 8009d66:	60d3      	str	r3, [r2, #12]
      break;
 8009d68:	e7b7      	b.n	8009cda <HAL_TIM_OC_Stop_IT+0x26>
      __HAL_TIM_DISABLE_IT(htim, TIM_IT_CC4);
 8009d6a:	6802      	ldr	r2, [r0, #0]
 8009d6c:	68d3      	ldr	r3, [r2, #12]
 8009d6e:	f023 0310 	bic.w	r3, r3, #16
 8009d72:	60d3      	str	r3, [r2, #12]
      break;
 8009d74:	e7b1      	b.n	8009cda <HAL_TIM_OC_Stop_IT+0x26>
 8009d76:	3c04      	subs	r4, #4
 8009d78:	2c0c      	cmp	r4, #12
 8009d7a:	d818      	bhi.n	8009dae <HAL_TIM_OC_Stop_IT+0xfa>
 8009d7c:	e8df f004 	tbb	[pc, r4]
 8009d80:	17171707 	.word	0x17171707
 8009d84:	1717170b 	.word	0x1717170b
 8009d88:	1717170f 	.word	0x1717170f
 8009d8c:	13          	.byte	0x13
 8009d8d:	00          	.byte	0x00
  TIM_CHANNEL_STATE_SET(htim, Channel, HAL_TIM_CHANNEL_STATE_READY);
 8009d8e:	2301      	movs	r3, #1
 8009d90:	f885 303f 	strb.w	r3, [r5, #63]	; 0x3f
 8009d94:	e7db      	b.n	8009d4e <HAL_TIM_OC_Stop_IT+0x9a>
 8009d96:	2301      	movs	r3, #1
 8009d98:	f885 3040 	strb.w	r3, [r5, #64]	; 0x40
 8009d9c:	e7d7      	b.n	8009d4e <HAL_TIM_OC_Stop_IT+0x9a>
 8009d9e:	2301      	movs	r3, #1
 8009da0:	f885 3041 	strb.w	r3, [r5, #65]	; 0x41
 8009da4:	e7d3      	b.n	8009d4e <HAL_TIM_OC_Stop_IT+0x9a>
 8009da6:	2301      	movs	r3, #1
 8009da8:	f885 3042 	strb.w	r3, [r5, #66]	; 0x42
 8009dac:	e7cf      	b.n	8009d4e <HAL_TIM_OC_Stop_IT+0x9a>
 8009dae:	2301      	movs	r3, #1
 8009db0:	f885 3043 	strb.w	r3, [r5, #67]	; 0x43
 8009db4:	e7cb      	b.n	8009d4e <HAL_TIM_OC_Stop_IT+0x9a>
 8009db6:	bf00      	nop
 8009db8:	40012c00 	.word	0x40012c00

08009dbc <HAL_TIMEx_CommutCallback>:
  UNUSED(htim);

  /* NOTE : This function should not be modified, when the callback is needed,
            the HAL_TIMEx_CommutCallback could be implemented in the user file
   */
}
 8009dbc:	4770      	bx	lr

08009dbe <HAL_TIMEx_BreakCallback>:
  UNUSED(htim);

  /* NOTE : This function should not be modified, when the callback is needed,
            the HAL_TIMEx_BreakCallback could be implemented in the user file
   */
}
 8009dbe:	4770      	bx	lr

08009dc0 <HAL_TIMEx_Break2Callback>:
  UNUSED(htim);

  /* NOTE : This function Should not be modified, when the callback is needed,
            the HAL_TIMEx_Break2Callback could be implemented in the user file
   */
}
 8009dc0:	4770      	bx	lr
	...

08009dc4 <USB_CoreReset>:
  * @param  USBx  Selected device
  * @retval HAL status
  */
static HAL_StatusTypeDef USB_CoreReset(USB_OTG_GlobalTypeDef *USBx)
{
  uint32_t count = 0U;
 8009dc4:	2300      	movs	r3, #0

  /* Wait for AHB master IDLE state. */
  do
  {
    if (++count > 200000U)
 8009dc6:	3301      	adds	r3, #1
 8009dc8:	4a0c      	ldr	r2, [pc, #48]	; (8009dfc <USB_CoreReset+0x38>)
 8009dca:	4293      	cmp	r3, r2
 8009dcc:	d811      	bhi.n	8009df2 <USB_CoreReset+0x2e>
    {
      return HAL_TIMEOUT;
    }
  } while ((USBx->GRSTCTL & USB_OTG_GRSTCTL_AHBIDL) == 0U);
 8009dce:	6902      	ldr	r2, [r0, #16]
 8009dd0:	2a00      	cmp	r2, #0
 8009dd2:	daf8      	bge.n	8009dc6 <USB_CoreReset+0x2>

  /* Core Soft Reset */
  count = 0U;
  USBx->GRSTCTL |= USB_OTG_GRSTCTL_CSRST;
 8009dd4:	6903      	ldr	r3, [r0, #16]
 8009dd6:	f043 0301 	orr.w	r3, r3, #1
 8009dda:	6103      	str	r3, [r0, #16]
  count = 0U;
 8009ddc:	2300      	movs	r3, #0

  do
  {
    if (++count > 200000U)
 8009dde:	3301      	adds	r3, #1
 8009de0:	4a06      	ldr	r2, [pc, #24]	; (8009dfc <USB_CoreReset+0x38>)
 8009de2:	4293      	cmp	r3, r2
 8009de4:	d807      	bhi.n	8009df6 <USB_CoreReset+0x32>
    {
      return HAL_TIMEOUT;
    }
  } while ((USBx->GRSTCTL & USB_OTG_GRSTCTL_CSRST) == USB_OTG_GRSTCTL_CSRST);
 8009de6:	6902      	ldr	r2, [r0, #16]
 8009de8:	f012 0f01 	tst.w	r2, #1
 8009dec:	d1f7      	bne.n	8009dde <USB_CoreReset+0x1a>

  return HAL_OK;
 8009dee:	2000      	movs	r0, #0
 8009df0:	4770      	bx	lr
      return HAL_TIMEOUT;
 8009df2:	2003      	movs	r0, #3
 8009df4:	4770      	bx	lr
      return HAL_TIMEOUT;
 8009df6:	2003      	movs	r0, #3
}
 8009df8:	4770      	bx	lr
 8009dfa:	bf00      	nop
 8009dfc:	00030d40 	.word	0x00030d40

08009e00 <USB_CoreInit>:
{
 8009e00:	b084      	sub	sp, #16
 8009e02:	b510      	push	{r4, lr}
 8009e04:	4604      	mov	r4, r0
 8009e06:	f10d 0c0c 	add.w	ip, sp, #12
 8009e0a:	e88c 000e 	stmia.w	ip, {r1, r2, r3}
  USBx->GUSBCFG |= USB_OTG_GUSBCFG_PHYSEL;
 8009e0e:	68c3      	ldr	r3, [r0, #12]
 8009e10:	f043 0340 	orr.w	r3, r3, #64	; 0x40
 8009e14:	60c3      	str	r3, [r0, #12]
  ret = USB_CoreReset(USBx);
 8009e16:	f7ff ffd5 	bl	8009dc4 <USB_CoreReset>
  if (cfg.battery_charging_enable == 0U)
 8009e1a:	9b0c      	ldr	r3, [sp, #48]	; 0x30
 8009e1c:	b93b      	cbnz	r3, 8009e2e <USB_CoreInit+0x2e>
    USBx->GCCFG |= USB_OTG_GCCFG_PWRDWN;
 8009e1e:	6ba3      	ldr	r3, [r4, #56]	; 0x38
 8009e20:	f443 3380 	orr.w	r3, r3, #65536	; 0x10000
 8009e24:	63a3      	str	r3, [r4, #56]	; 0x38
}
 8009e26:	e8bd 4010 	ldmia.w	sp!, {r4, lr}
 8009e2a:	b004      	add	sp, #16
 8009e2c:	4770      	bx	lr
    USBx->GCCFG &= ~(USB_OTG_GCCFG_PWRDWN);
 8009e2e:	6ba3      	ldr	r3, [r4, #56]	; 0x38
 8009e30:	f423 3380 	bic.w	r3, r3, #65536	; 0x10000
 8009e34:	63a3      	str	r3, [r4, #56]	; 0x38
 8009e36:	e7f6      	b.n	8009e26 <USB_CoreInit+0x26>

08009e38 <USB_SetTurnaroundTime>:
  if (speed == USBD_FS_SPEED)
 8009e38:	2a02      	cmp	r2, #2
 8009e3a:	d00a      	beq.n	8009e52 <USB_SetTurnaroundTime+0x1a>
    UsbTrd = USBD_DEFAULT_TRDT_VALUE;
 8009e3c:	2209      	movs	r2, #9
  USBx->GUSBCFG &= ~USB_OTG_GUSBCFG_TRDT;
 8009e3e:	68c3      	ldr	r3, [r0, #12]
 8009e40:	f423 5370 	bic.w	r3, r3, #15360	; 0x3c00
 8009e44:	60c3      	str	r3, [r0, #12]
  USBx->GUSBCFG |= (uint32_t)((UsbTrd << 10) & USB_OTG_GUSBCFG_TRDT);
 8009e46:	68c3      	ldr	r3, [r0, #12]
 8009e48:	ea43 2382 	orr.w	r3, r3, r2, lsl #10
 8009e4c:	60c3      	str	r3, [r0, #12]
}
 8009e4e:	2000      	movs	r0, #0
 8009e50:	4770      	bx	lr
    if ((hclk >= 14200000U) && (hclk < 15000000U))
 8009e52:	4b23      	ldr	r3, [pc, #140]	; (8009ee0 <USB_SetTurnaroundTime+0xa8>)
 8009e54:	440b      	add	r3, r1
 8009e56:	4a23      	ldr	r2, [pc, #140]	; (8009ee4 <USB_SetTurnaroundTime+0xac>)
 8009e58:	4293      	cmp	r3, r2
 8009e5a:	d92f      	bls.n	8009ebc <USB_SetTurnaroundTime+0x84>
    else if ((hclk >= 15000000U) && (hclk < 16000000U))
 8009e5c:	4b22      	ldr	r3, [pc, #136]	; (8009ee8 <USB_SetTurnaroundTime+0xb0>)
 8009e5e:	440b      	add	r3, r1
 8009e60:	4a22      	ldr	r2, [pc, #136]	; (8009eec <USB_SetTurnaroundTime+0xb4>)
 8009e62:	4293      	cmp	r3, r2
 8009e64:	d92c      	bls.n	8009ec0 <USB_SetTurnaroundTime+0x88>
    else if ((hclk >= 16000000U) && (hclk < 17200000U))
 8009e66:	f5a1 0374 	sub.w	r3, r1, #15990784	; 0xf40000
 8009e6a:	f5a3 5310 	sub.w	r3, r3, #9216	; 0x2400
 8009e6e:	4a20      	ldr	r2, [pc, #128]	; (8009ef0 <USB_SetTurnaroundTime+0xb8>)
 8009e70:	4293      	cmp	r3, r2
 8009e72:	d927      	bls.n	8009ec4 <USB_SetTurnaroundTime+0x8c>
    else if ((hclk >= 17200000U) && (hclk < 18500000U))
 8009e74:	f1a1 7383 	sub.w	r3, r1, #17170432	; 0x1060000
 8009e78:	f5a3 43e7 	sub.w	r3, r3, #29568	; 0x7380
 8009e7c:	4a1d      	ldr	r2, [pc, #116]	; (8009ef4 <USB_SetTurnaroundTime+0xbc>)
 8009e7e:	4293      	cmp	r3, r2
 8009e80:	d322      	bcc.n	8009ec8 <USB_SetTurnaroundTime+0x90>
    else if ((hclk >= 18500000U) && (hclk < 20000000U))
 8009e82:	4b1d      	ldr	r3, [pc, #116]	; (8009ef8 <USB_SetTurnaroundTime+0xc0>)
 8009e84:	440b      	add	r3, r1
 8009e86:	4a1d      	ldr	r2, [pc, #116]	; (8009efc <USB_SetTurnaroundTime+0xc4>)
 8009e88:	4293      	cmp	r3, r2
 8009e8a:	d91f      	bls.n	8009ecc <USB_SetTurnaroundTime+0x94>
    else if ((hclk >= 20000000U) && (hclk < 21800000U))
 8009e8c:	4b1c      	ldr	r3, [pc, #112]	; (8009f00 <USB_SetTurnaroundTime+0xc8>)
 8009e8e:	440b      	add	r3, r1
 8009e90:	4a1c      	ldr	r2, [pc, #112]	; (8009f04 <USB_SetTurnaroundTime+0xcc>)
 8009e92:	4293      	cmp	r3, r2
 8009e94:	d31c      	bcc.n	8009ed0 <USB_SetTurnaroundTime+0x98>
    else if ((hclk >= 21800000U) && (hclk < 24000000U))
 8009e96:	4b1c      	ldr	r3, [pc, #112]	; (8009f08 <USB_SetTurnaroundTime+0xd0>)
 8009e98:	440b      	add	r3, r1
 8009e9a:	4a1c      	ldr	r2, [pc, #112]	; (8009f0c <USB_SetTurnaroundTime+0xd4>)
 8009e9c:	4293      	cmp	r3, r2
 8009e9e:	d319      	bcc.n	8009ed4 <USB_SetTurnaroundTime+0x9c>
    else if ((hclk >= 24000000U) && (hclk < 27700000U))
 8009ea0:	f1a1 73b7 	sub.w	r3, r1, #23986176	; 0x16e0000
 8009ea4:	f5a3 5358 	sub.w	r3, r3, #13824	; 0x3600
 8009ea8:	4a19      	ldr	r2, [pc, #100]	; (8009f10 <USB_SetTurnaroundTime+0xd8>)
 8009eaa:	4293      	cmp	r3, r2
 8009eac:	d314      	bcc.n	8009ed8 <USB_SetTurnaroundTime+0xa0>
    else if ((hclk >= 27700000U) && (hclk < 32000000U))
 8009eae:	4b19      	ldr	r3, [pc, #100]	; (8009f14 <USB_SetTurnaroundTime+0xdc>)
 8009eb0:	440b      	add	r3, r1
 8009eb2:	4a19      	ldr	r2, [pc, #100]	; (8009f18 <USB_SetTurnaroundTime+0xe0>)
 8009eb4:	4293      	cmp	r3, r2
 8009eb6:	d211      	bcs.n	8009edc <USB_SetTurnaroundTime+0xa4>
      UsbTrd = 0x7U;
 8009eb8:	2207      	movs	r2, #7
 8009eba:	e7c0      	b.n	8009e3e <USB_SetTurnaroundTime+0x6>
      UsbTrd = 0xFU;
 8009ebc:	220f      	movs	r2, #15
 8009ebe:	e7be      	b.n	8009e3e <USB_SetTurnaroundTime+0x6>
      UsbTrd = 0xEU;
 8009ec0:	220e      	movs	r2, #14
 8009ec2:	e7bc      	b.n	8009e3e <USB_SetTurnaroundTime+0x6>
      UsbTrd = 0xDU;
 8009ec4:	220d      	movs	r2, #13
 8009ec6:	e7ba      	b.n	8009e3e <USB_SetTurnaroundTime+0x6>
      UsbTrd = 0xCU;
 8009ec8:	220c      	movs	r2, #12
 8009eca:	e7b8      	b.n	8009e3e <USB_SetTurnaroundTime+0x6>
      UsbTrd = 0xBU;
 8009ecc:	220b      	movs	r2, #11
 8009ece:	e7b6      	b.n	8009e3e <USB_SetTurnaroundTime+0x6>
      UsbTrd = 0xAU;
 8009ed0:	220a      	movs	r2, #10
 8009ed2:	e7b4      	b.n	8009e3e <USB_SetTurnaroundTime+0x6>
      UsbTrd = 0x9U;
 8009ed4:	2209      	movs	r2, #9
 8009ed6:	e7b2      	b.n	8009e3e <USB_SetTurnaroundTime+0x6>
      UsbTrd = 0x8U;
 8009ed8:	2208      	movs	r2, #8
 8009eda:	e7b0      	b.n	8009e3e <USB_SetTurnaroundTime+0x6>
      UsbTrd = 0x6U;
 8009edc:	2206      	movs	r2, #6
 8009ede:	e7ae      	b.n	8009e3e <USB_SetTurnaroundTime+0x6>
 8009ee0:	ff275340 	.word	0xff275340
 8009ee4:	000c34ff 	.word	0x000c34ff
 8009ee8:	ff1b1e40 	.word	0xff1b1e40
 8009eec:	000f423f 	.word	0x000f423f
 8009ef0:	00124f7f 	.word	0x00124f7f
 8009ef4:	0013d620 	.word	0x0013d620
 8009ef8:	fee5b660 	.word	0xfee5b660
 8009efc:	0016e35f 	.word	0x0016e35f
 8009f00:	feced300 	.word	0xfeced300
 8009f04:	001b7740 	.word	0x001b7740
 8009f08:	feb35bc0 	.word	0xfeb35bc0
 8009f0c:	002191c0 	.word	0x002191c0
 8009f10:	00387520 	.word	0x00387520
 8009f14:	fe5954e0 	.word	0xfe5954e0
 8009f18:	00419ce0 	.word	0x00419ce0

08009f1c <USB_EnableGlobalInt>:
  USBx->GAHBCFG |= USB_OTG_GAHBCFG_GINT;
 8009f1c:	6883      	ldr	r3, [r0, #8]
 8009f1e:	f043 0301 	orr.w	r3, r3, #1
 8009f22:	6083      	str	r3, [r0, #8]
}
 8009f24:	2000      	movs	r0, #0
 8009f26:	4770      	bx	lr

08009f28 <USB_DisableGlobalInt>:
  USBx->GAHBCFG &= ~USB_OTG_GAHBCFG_GINT;
 8009f28:	6883      	ldr	r3, [r0, #8]
 8009f2a:	f023 0301 	bic.w	r3, r3, #1
 8009f2e:	6083      	str	r3, [r0, #8]
}
 8009f30:	2000      	movs	r0, #0
 8009f32:	4770      	bx	lr

08009f34 <USB_SetCurrentMode>:
{
 8009f34:	b508      	push	{r3, lr}
  USBx->GUSBCFG &= ~(USB_OTG_GUSBCFG_FHMOD | USB_OTG_GUSBCFG_FDMOD);
 8009f36:	68c3      	ldr	r3, [r0, #12]
 8009f38:	f023 43c0 	bic.w	r3, r3, #1610612736	; 0x60000000
 8009f3c:	60c3      	str	r3, [r0, #12]
  if (mode == USB_HOST_MODE)
 8009f3e:	2901      	cmp	r1, #1
 8009f40:	d009      	beq.n	8009f56 <USB_SetCurrentMode+0x22>
  else if (mode == USB_DEVICE_MODE)
 8009f42:	b969      	cbnz	r1, 8009f60 <USB_SetCurrentMode+0x2c>
    USBx->GUSBCFG |= USB_OTG_GUSBCFG_FDMOD;
 8009f44:	68c3      	ldr	r3, [r0, #12]
 8009f46:	f043 4380 	orr.w	r3, r3, #1073741824	; 0x40000000
 8009f4a:	60c3      	str	r3, [r0, #12]
  HAL_Delay(50U);
 8009f4c:	2032      	movs	r0, #50	; 0x32
 8009f4e:	f7fb fef5 	bl	8005d3c <HAL_Delay>
  return HAL_OK;
 8009f52:	2000      	movs	r0, #0
}
 8009f54:	bd08      	pop	{r3, pc}
    USBx->GUSBCFG |= USB_OTG_GUSBCFG_FHMOD;
 8009f56:	68c3      	ldr	r3, [r0, #12]
 8009f58:	f043 5300 	orr.w	r3, r3, #536870912	; 0x20000000
 8009f5c:	60c3      	str	r3, [r0, #12]
 8009f5e:	e7f5      	b.n	8009f4c <USB_SetCurrentMode+0x18>
    return HAL_ERROR;
 8009f60:	2001      	movs	r0, #1
 8009f62:	e7f7      	b.n	8009f54 <USB_SetCurrentMode+0x20>

08009f64 <USB_FlushTxFifo>:
  USBx->GRSTCTL = (USB_OTG_GRSTCTL_TXFFLSH | (num << 6));
 8009f64:	0189      	lsls	r1, r1, #6
 8009f66:	f041 0120 	orr.w	r1, r1, #32
 8009f6a:	6101      	str	r1, [r0, #16]
  uint32_t count = 0U;
 8009f6c:	2300      	movs	r3, #0
    if (++count > 200000U)
 8009f6e:	3301      	adds	r3, #1
 8009f70:	4a05      	ldr	r2, [pc, #20]	; (8009f88 <USB_FlushTxFifo+0x24>)
 8009f72:	4293      	cmp	r3, r2
 8009f74:	d805      	bhi.n	8009f82 <USB_FlushTxFifo+0x1e>
  } while ((USBx->GRSTCTL & USB_OTG_GRSTCTL_TXFFLSH) == USB_OTG_GRSTCTL_TXFFLSH);
 8009f76:	6902      	ldr	r2, [r0, #16]
 8009f78:	f012 0f20 	tst.w	r2, #32
 8009f7c:	d1f7      	bne.n	8009f6e <USB_FlushTxFifo+0xa>
  return HAL_OK;
 8009f7e:	2000      	movs	r0, #0
 8009f80:	4770      	bx	lr
      return HAL_TIMEOUT;
 8009f82:	2003      	movs	r0, #3
}
 8009f84:	4770      	bx	lr
 8009f86:	bf00      	nop
 8009f88:	00030d40 	.word	0x00030d40

08009f8c <USB_FlushRxFifo>:
  USBx->GRSTCTL = USB_OTG_GRSTCTL_RXFFLSH;
 8009f8c:	2310      	movs	r3, #16
 8009f8e:	6103      	str	r3, [r0, #16]
  uint32_t count = 0;
 8009f90:	2300      	movs	r3, #0
    if (++count > 200000U)
 8009f92:	3301      	adds	r3, #1
 8009f94:	4a05      	ldr	r2, [pc, #20]	; (8009fac <USB_FlushRxFifo+0x20>)
 8009f96:	4293      	cmp	r3, r2
 8009f98:	d805      	bhi.n	8009fa6 <USB_FlushRxFifo+0x1a>
  } while ((USBx->GRSTCTL & USB_OTG_GRSTCTL_RXFFLSH) == USB_OTG_GRSTCTL_RXFFLSH);
 8009f9a:	6902      	ldr	r2, [r0, #16]
 8009f9c:	f012 0f10 	tst.w	r2, #16
 8009fa0:	d1f7      	bne.n	8009f92 <USB_FlushRxFifo+0x6>
  return HAL_OK;
 8009fa2:	2000      	movs	r0, #0
 8009fa4:	4770      	bx	lr
      return HAL_TIMEOUT;
 8009fa6:	2003      	movs	r0, #3
}
 8009fa8:	4770      	bx	lr
 8009faa:	bf00      	nop
 8009fac:	00030d40 	.word	0x00030d40

08009fb0 <USB_SetDevSpeed>:
  USBx_DEVICE->DCFG |= speed;
 8009fb0:	f8d0 3800 	ldr.w	r3, [r0, #2048]	; 0x800
 8009fb4:	4319      	orrs	r1, r3
 8009fb6:	f8c0 1800 	str.w	r1, [r0, #2048]	; 0x800
}
 8009fba:	2000      	movs	r0, #0
 8009fbc:	4770      	bx	lr
	...

08009fc0 <USB_DevInit>:
{
 8009fc0:	b084      	sub	sp, #16
 8009fc2:	e92d 41f0 	stmdb	sp!, {r4, r5, r6, r7, r8, lr}
 8009fc6:	4604      	mov	r4, r0
 8009fc8:	a807      	add	r0, sp, #28
 8009fca:	e880 000e 	stmia.w	r0, {r1, r2, r3}
  for (i = 0U; i < 15U; i++)
 8009fce:	2300      	movs	r3, #0
 8009fd0:	e006      	b.n	8009fe0 <USB_DevInit+0x20>
    USBx->DIEPTXF[i] = 0U;
 8009fd2:	f103 0240 	add.w	r2, r3, #64	; 0x40
 8009fd6:	eb04 0282 	add.w	r2, r4, r2, lsl #2
 8009fda:	2100      	movs	r1, #0
 8009fdc:	6051      	str	r1, [r2, #4]
  for (i = 0U; i < 15U; i++)
 8009fde:	3301      	adds	r3, #1
 8009fe0:	2b0e      	cmp	r3, #14
 8009fe2:	d9f6      	bls.n	8009fd2 <USB_DevInit+0x12>
  if (cfg.vbus_sensing_enable == 0U)
 8009fe4:	9f11      	ldr	r7, [sp, #68]	; 0x44
 8009fe6:	bb8f      	cbnz	r7, 800a04c <USB_DevInit+0x8c>
    USBx_DEVICE->DCTL |= USB_OTG_DCTL_SDIS;
 8009fe8:	f8d4 3804 	ldr.w	r3, [r4, #2052]	; 0x804
 8009fec:	f043 0302 	orr.w	r3, r3, #2
 8009ff0:	f8c4 3804 	str.w	r3, [r4, #2052]	; 0x804
    USBx->GCCFG &= ~USB_OTG_GCCFG_VBDEN;
 8009ff4:	6ba3      	ldr	r3, [r4, #56]	; 0x38
 8009ff6:	f423 1300 	bic.w	r3, r3, #2097152	; 0x200000
 8009ffa:	63a3      	str	r3, [r4, #56]	; 0x38
    USBx->GOTGCTL |= USB_OTG_GOTGCTL_BVALOEN;
 8009ffc:	6823      	ldr	r3, [r4, #0]
 8009ffe:	f043 0340 	orr.w	r3, r3, #64	; 0x40
 800a002:	6023      	str	r3, [r4, #0]
    USBx->GOTGCTL |= USB_OTG_GOTGCTL_BVALOVAL;
 800a004:	6823      	ldr	r3, [r4, #0]
 800a006:	f043 0380 	orr.w	r3, r3, #128	; 0x80
 800a00a:	6023      	str	r3, [r4, #0]
  USBx_PCGCCTL = 0U;
 800a00c:	2300      	movs	r3, #0
 800a00e:	f8c4 3e00 	str.w	r3, [r4, #3584]	; 0xe00
  USBx_DEVICE->DCFG |= DCFG_FRAME_INTERVAL_80;
 800a012:	f504 6500 	add.w	r5, r4, #2048	; 0x800
 800a016:	f8d4 3800 	ldr.w	r3, [r4, #2048]	; 0x800
 800a01a:	f8c4 3800 	str.w	r3, [r4, #2048]	; 0x800
  (void)USB_SetDevSpeed(USBx, USB_OTG_SPEED_FULL);
 800a01e:	2103      	movs	r1, #3
 800a020:	4620      	mov	r0, r4
 800a022:	f7ff ffc5 	bl	8009fb0 <USB_SetDevSpeed>
  if (USB_FlushTxFifo(USBx, 0x10U) != HAL_OK) /* all Tx FIFOs */
 800a026:	2110      	movs	r1, #16
 800a028:	4620      	mov	r0, r4
 800a02a:	f7ff ff9b 	bl	8009f64 <USB_FlushTxFifo>
 800a02e:	4680      	mov	r8, r0
 800a030:	b108      	cbz	r0, 800a036 <USB_DevInit+0x76>
    ret = HAL_ERROR;
 800a032:	f04f 0801 	mov.w	r8, #1
  if (USB_FlushRxFifo(USBx) != HAL_OK)
 800a036:	4620      	mov	r0, r4
 800a038:	f7ff ffa8 	bl	8009f8c <USB_FlushRxFifo>
 800a03c:	b108      	cbz	r0, 800a042 <USB_DevInit+0x82>
    ret = HAL_ERROR;
 800a03e:	f04f 0801 	mov.w	r8, #1
  USBx_DEVICE->DIEPMSK = 0U;
 800a042:	2300      	movs	r3, #0
 800a044:	612b      	str	r3, [r5, #16]
  USBx_DEVICE->DOEPMSK = 0U;
 800a046:	616b      	str	r3, [r5, #20]
  USBx_DEVICE->DAINTMSK = 0U;
 800a048:	61eb      	str	r3, [r5, #28]
  for (i = 0U; i < cfg.dev_endpoints; i++)
 800a04a:	e00f      	b.n	800a06c <USB_DevInit+0xac>
    USBx->GCCFG |= USB_OTG_GCCFG_VBDEN;
 800a04c:	6ba3      	ldr	r3, [r4, #56]	; 0x38
 800a04e:	f443 1300 	orr.w	r3, r3, #2097152	; 0x200000
 800a052:	63a3      	str	r3, [r4, #56]	; 0x38
 800a054:	e7da      	b.n	800a00c <USB_DevInit+0x4c>
      if (i == 0U)
 800a056:	b9c3      	cbnz	r3, 800a08a <USB_DevInit+0xca>
        USBx_INEP(i)->DIEPCTL = USB_OTG_DIEPCTL_SNAK;
 800a058:	f04f 6000 	mov.w	r0, #134217728	; 0x8000000
 800a05c:	f8c2 0900 	str.w	r0, [r2, #2304]	; 0x900
    USBx_INEP(i)->DIEPTSIZ = 0U;
 800a060:	2200      	movs	r2, #0
 800a062:	610a      	str	r2, [r1, #16]
    USBx_INEP(i)->DIEPINT  = 0xFB7FU;
 800a064:	f64f 327f 	movw	r2, #64383	; 0xfb7f
 800a068:	608a      	str	r2, [r1, #8]
  for (i = 0U; i < cfg.dev_endpoints; i++)
 800a06a:	3301      	adds	r3, #1
 800a06c:	9907      	ldr	r1, [sp, #28]
 800a06e:	4299      	cmp	r1, r3
 800a070:	d910      	bls.n	800a094 <USB_DevInit+0xd4>
    if ((USBx_INEP(i)->DIEPCTL & USB_OTG_DIEPCTL_EPENA) == USB_OTG_DIEPCTL_EPENA)
 800a072:	eb04 1243 	add.w	r2, r4, r3, lsl #5
 800a076:	f502 6110 	add.w	r1, r2, #2304	; 0x900
 800a07a:	f8d2 0900 	ldr.w	r0, [r2, #2304]	; 0x900
 800a07e:	2800      	cmp	r0, #0
 800a080:	dbe9      	blt.n	800a056 <USB_DevInit+0x96>
      USBx_INEP(i)->DIEPCTL = 0U;
 800a082:	2000      	movs	r0, #0
 800a084:	f8c2 0900 	str.w	r0, [r2, #2304]	; 0x900
 800a088:	e7ea      	b.n	800a060 <USB_DevInit+0xa0>
        USBx_INEP(i)->DIEPCTL = USB_OTG_DIEPCTL_EPDIS | USB_OTG_DIEPCTL_SNAK;
 800a08a:	f04f 4090 	mov.w	r0, #1207959552	; 0x48000000
 800a08e:	f8c2 0900 	str.w	r0, [r2, #2304]	; 0x900
 800a092:	e7e5      	b.n	800a060 <USB_DevInit+0xa0>
  for (i = 0U; i < cfg.dev_endpoints; i++)
 800a094:	2300      	movs	r3, #0
 800a096:	e00a      	b.n	800a0ae <USB_DevInit+0xee>
      if (i == 0U)
 800a098:	b1c3      	cbz	r3, 800a0cc <USB_DevInit+0x10c>
        USBx_OUTEP(i)->DOEPCTL = USB_OTG_DOEPCTL_EPDIS | USB_OTG_DOEPCTL_SNAK;
 800a09a:	f04f 4c90 	mov.w	ip, #1207959552	; 0x48000000
 800a09e:	f8c2 cb00 	str.w	ip, [r2, #2816]	; 0xb00
    USBx_OUTEP(i)->DOEPTSIZ = 0U;
 800a0a2:	2200      	movs	r2, #0
 800a0a4:	6102      	str	r2, [r0, #16]
    USBx_OUTEP(i)->DOEPINT  = 0xFB7FU;
 800a0a6:	f64f 327f 	movw	r2, #64383	; 0xfb7f
 800a0aa:	6082      	str	r2, [r0, #8]
  for (i = 0U; i < cfg.dev_endpoints; i++)
 800a0ac:	3301      	adds	r3, #1
 800a0ae:	4299      	cmp	r1, r3
 800a0b0:	d911      	bls.n	800a0d6 <USB_DevInit+0x116>
    if ((USBx_OUTEP(i)->DOEPCTL & USB_OTG_DOEPCTL_EPENA) == USB_OTG_DOEPCTL_EPENA)
 800a0b2:	eb04 1243 	add.w	r2, r4, r3, lsl #5
 800a0b6:	f502 6030 	add.w	r0, r2, #2816	; 0xb00
 800a0ba:	f8d2 6b00 	ldr.w	r6, [r2, #2816]	; 0xb00
 800a0be:	2e00      	cmp	r6, #0
 800a0c0:	dbea      	blt.n	800a098 <USB_DevInit+0xd8>
      USBx_OUTEP(i)->DOEPCTL = 0U;
 800a0c2:	f04f 0c00 	mov.w	ip, #0
 800a0c6:	f8c2 cb00 	str.w	ip, [r2, #2816]	; 0xb00
 800a0ca:	e7ea      	b.n	800a0a2 <USB_DevInit+0xe2>
        USBx_OUTEP(i)->DOEPCTL = USB_OTG_DOEPCTL_SNAK;
 800a0cc:	f04f 6c00 	mov.w	ip, #134217728	; 0x8000000
 800a0d0:	f8c2 cb00 	str.w	ip, [r2, #2816]	; 0xb00
 800a0d4:	e7e5      	b.n	800a0a2 <USB_DevInit+0xe2>
  USBx_DEVICE->DIEPMSK &= ~(USB_OTG_DIEPMSK_TXFURM);
 800a0d6:	692b      	ldr	r3, [r5, #16]
 800a0d8:	f423 7380 	bic.w	r3, r3, #256	; 0x100
 800a0dc:	612b      	str	r3, [r5, #16]
  USBx->GINTMSK = 0U;
 800a0de:	2300      	movs	r3, #0
 800a0e0:	61a3      	str	r3, [r4, #24]
  USBx->GINTSTS = 0xBFFFFFFFU;
 800a0e2:	f06f 4380 	mvn.w	r3, #1073741824	; 0x40000000
 800a0e6:	6163      	str	r3, [r4, #20]
  USBx->GINTMSK |= USB_OTG_GINTMSK_RXFLVLM;
 800a0e8:	69a3      	ldr	r3, [r4, #24]
 800a0ea:	f043 0310 	orr.w	r3, r3, #16
 800a0ee:	61a3      	str	r3, [r4, #24]
  USBx->GINTMSK |= USB_OTG_GINTMSK_USBSUSPM | USB_OTG_GINTMSK_USBRST |
 800a0f0:	69a2      	ldr	r2, [r4, #24]
 800a0f2:	4b0b      	ldr	r3, [pc, #44]	; (800a120 <USB_DevInit+0x160>)
 800a0f4:	4313      	orrs	r3, r2
 800a0f6:	61a3      	str	r3, [r4, #24]
  if (cfg.Sof_enable != 0U)
 800a0f8:	9b0d      	ldr	r3, [sp, #52]	; 0x34
 800a0fa:	b11b      	cbz	r3, 800a104 <USB_DevInit+0x144>
    USBx->GINTMSK |= USB_OTG_GINTMSK_SOFM;
 800a0fc:	69a3      	ldr	r3, [r4, #24]
 800a0fe:	f043 0308 	orr.w	r3, r3, #8
 800a102:	61a3      	str	r3, [r4, #24]
  if (cfg.vbus_sensing_enable == 1U)
 800a104:	2f01      	cmp	r7, #1
 800a106:	d004      	beq.n	800a112 <USB_DevInit+0x152>
}
 800a108:	4640      	mov	r0, r8
 800a10a:	e8bd 41f0 	ldmia.w	sp!, {r4, r5, r6, r7, r8, lr}
 800a10e:	b004      	add	sp, #16
 800a110:	4770      	bx	lr
    USBx->GINTMSK |= (USB_OTG_GINTMSK_SRQIM | USB_OTG_GINTMSK_OTGINT);
 800a112:	69a3      	ldr	r3, [r4, #24]
 800a114:	f043 4380 	orr.w	r3, r3, #1073741824	; 0x40000000
 800a118:	f043 0304 	orr.w	r3, r3, #4
 800a11c:	61a3      	str	r3, [r4, #24]
 800a11e:	e7f3      	b.n	800a108 <USB_DevInit+0x148>
 800a120:	803c3800 	.word	0x803c3800

0800a124 <USB_GetDevSpeed>:
  uint32_t DevEnumSpeed = USBx_DEVICE->DSTS & USB_OTG_DSTS_ENUMSPD;
 800a124:	f8d0 3808 	ldr.w	r3, [r0, #2056]	; 0x808
 800a128:	f003 0306 	and.w	r3, r3, #6
  if ((DevEnumSpeed == DSTS_ENUMSPD_FS_PHY_30MHZ_OR_60MHZ) ||
 800a12c:	2b02      	cmp	r3, #2
 800a12e:	d005      	beq.n	800a13c <USB_GetDevSpeed+0x18>
 800a130:	2b06      	cmp	r3, #6
 800a132:	d001      	beq.n	800a138 <USB_GetDevSpeed+0x14>
    speed = 0xFU;
 800a134:	200f      	movs	r0, #15
}
 800a136:	4770      	bx	lr
    speed = USBD_FS_SPEED;
 800a138:	2002      	movs	r0, #2
 800a13a:	4770      	bx	lr
 800a13c:	2002      	movs	r0, #2
 800a13e:	4770      	bx	lr

0800a140 <USB_ActivateEndpoint>:
{
 800a140:	b510      	push	{r4, lr}
  uint32_t epnum = (uint32_t)ep->num;
 800a142:	f891 c000 	ldrb.w	ip, [r1]
  if (ep->is_in == 1U)
 800a146:	784b      	ldrb	r3, [r1, #1]
 800a148:	2b01      	cmp	r3, #1
 800a14a:	d023      	beq.n	800a194 <USB_ActivateEndpoint+0x54>
    USBx_DEVICE->DAINTMSK |= USB_OTG_DAINTMSK_OEPM & ((uint32_t)(1UL << (ep->num & EP_ADDR_MSK)) << 16);
 800a14c:	f500 6e00 	add.w	lr, r0, #2048	; 0x800
 800a150:	f8d0 381c 	ldr.w	r3, [r0, #2076]	; 0x81c
 800a154:	f00c 040f 	and.w	r4, ip, #15
 800a158:	2201      	movs	r2, #1
 800a15a:	40a2      	lsls	r2, r4
 800a15c:	ea43 4302 	orr.w	r3, r3, r2, lsl #16
 800a160:	f8c0 381c 	str.w	r3, [r0, #2076]	; 0x81c
    if (((USBx_OUTEP(epnum)->DOEPCTL) & USB_OTG_DOEPCTL_USBAEP) == 0U)
 800a164:	eb00 104c 	add.w	r0, r0, ip, lsl #5
 800a168:	f8d0 3b00 	ldr.w	r3, [r0, #2816]	; 0xb00
 800a16c:	f413 4f00 	tst.w	r3, #32768	; 0x8000
 800a170:	d10e      	bne.n	800a190 <USB_ActivateEndpoint+0x50>
      USBx_OUTEP(epnum)->DOEPCTL |= (ep->maxpacket & USB_OTG_DOEPCTL_MPSIZ) |
 800a172:	f8d0 3b00 	ldr.w	r3, [r0, #2816]	; 0xb00
 800a176:	688a      	ldr	r2, [r1, #8]
 800a178:	f3c2 020a 	ubfx	r2, r2, #0, #11
                                    ((uint32_t)ep->type << 18) |
 800a17c:	78c9      	ldrb	r1, [r1, #3]
      USBx_OUTEP(epnum)->DOEPCTL |= (ep->maxpacket & USB_OTG_DOEPCTL_MPSIZ) |
 800a17e:	ea42 4281 	orr.w	r2, r2, r1, lsl #18
 800a182:	4313      	orrs	r3, r2
 800a184:	f043 5380 	orr.w	r3, r3, #268435456	; 0x10000000
 800a188:	f443 4300 	orr.w	r3, r3, #32768	; 0x8000
 800a18c:	f8c0 3b00 	str.w	r3, [r0, #2816]	; 0xb00
}
 800a190:	2000      	movs	r0, #0
 800a192:	bd10      	pop	{r4, pc}
    USBx_DEVICE->DAINTMSK |= USB_OTG_DAINTMSK_IEPM & (uint32_t)(1UL << (ep->num & EP_ADDR_MSK));
 800a194:	f8d0 281c 	ldr.w	r2, [r0, #2076]	; 0x81c
 800a198:	f00c 0e0f 	and.w	lr, ip, #15
 800a19c:	fa03 f30e 	lsl.w	r3, r3, lr
 800a1a0:	b29b      	uxth	r3, r3
 800a1a2:	4313      	orrs	r3, r2
 800a1a4:	f8c0 381c 	str.w	r3, [r0, #2076]	; 0x81c
    if ((USBx_INEP(epnum)->DIEPCTL & USB_OTG_DIEPCTL_USBAEP) == 0U)
 800a1a8:	eb00 104c 	add.w	r0, r0, ip, lsl #5
 800a1ac:	f8d0 3900 	ldr.w	r3, [r0, #2304]	; 0x900
 800a1b0:	f413 4f00 	tst.w	r3, #32768	; 0x8000
 800a1b4:	d1ec      	bne.n	800a190 <USB_ActivateEndpoint+0x50>
      USBx_INEP(epnum)->DIEPCTL |= (ep->maxpacket & USB_OTG_DIEPCTL_MPSIZ) |
 800a1b6:	f8d0 3900 	ldr.w	r3, [r0, #2304]	; 0x900
 800a1ba:	688a      	ldr	r2, [r1, #8]
 800a1bc:	f3c2 020a 	ubfx	r2, r2, #0, #11
                                   ((uint32_t)ep->type << 18) | (epnum << 22) |
 800a1c0:	78c9      	ldrb	r1, [r1, #3]
      USBx_INEP(epnum)->DIEPCTL |= (ep->maxpacket & USB_OTG_DIEPCTL_MPSIZ) |
 800a1c2:	ea42 4281 	orr.w	r2, r2, r1, lsl #18
                                   ((uint32_t)ep->type << 18) | (epnum << 22) |
 800a1c6:	ea42 528c 	orr.w	r2, r2, ip, lsl #22
      USBx_INEP(epnum)->DIEPCTL |= (ep->maxpacket & USB_OTG_DIEPCTL_MPSIZ) |
 800a1ca:	4313      	orrs	r3, r2
 800a1cc:	f043 5380 	orr.w	r3, r3, #268435456	; 0x10000000
 800a1d0:	f443 4300 	orr.w	r3, r3, #32768	; 0x8000
 800a1d4:	f8c0 3900 	str.w	r3, [r0, #2304]	; 0x900
 800a1d8:	e7da      	b.n	800a190 <USB_ActivateEndpoint+0x50>
	...

0800a1dc <USB_DeactivateEndpoint>:
{
 800a1dc:	b430      	push	{r4, r5}
  uint32_t epnum = (uint32_t)ep->num;
 800a1de:	780b      	ldrb	r3, [r1, #0]
  if (ep->is_in == 1U)
 800a1e0:	784a      	ldrb	r2, [r1, #1]
 800a1e2:	2a01      	cmp	r2, #1
 800a1e4:	d026      	beq.n	800a234 <USB_DeactivateEndpoint+0x58>
    if ((USBx_OUTEP(epnum)->DOEPCTL & USB_OTG_DOEPCTL_EPENA) == USB_OTG_DOEPCTL_EPENA)
 800a1e6:	eb00 1343 	add.w	r3, r0, r3, lsl #5
 800a1ea:	f8d3 2b00 	ldr.w	r2, [r3, #2816]	; 0xb00
 800a1ee:	2a00      	cmp	r2, #0
 800a1f0:	db52      	blt.n	800a298 <USB_DeactivateEndpoint+0xbc>
    USBx_DEVICE->DEACHMSK &= ~(USB_OTG_DAINTMSK_OEPM & ((uint32_t)(1UL << (ep->num & EP_ADDR_MSK)) << 16));
 800a1f2:	f8d0 483c 	ldr.w	r4, [r0, #2108]	; 0x83c
 800a1f6:	780a      	ldrb	r2, [r1, #0]
 800a1f8:	f002 020f 	and.w	r2, r2, #15
 800a1fc:	f04f 0c01 	mov.w	ip, #1
 800a200:	fa0c f202 	lsl.w	r2, ip, r2
 800a204:	ea24 4202 	bic.w	r2, r4, r2, lsl #16
 800a208:	f8c0 283c 	str.w	r2, [r0, #2108]	; 0x83c
    USBx_DEVICE->DAINTMSK &= ~(USB_OTG_DAINTMSK_OEPM & ((uint32_t)(1UL << (ep->num & EP_ADDR_MSK)) << 16));
 800a20c:	f8d0 281c 	ldr.w	r2, [r0, #2076]	; 0x81c
 800a210:	7809      	ldrb	r1, [r1, #0]
 800a212:	f001 010f 	and.w	r1, r1, #15
 800a216:	fa0c fc01 	lsl.w	ip, ip, r1
 800a21a:	ea22 420c 	bic.w	r2, r2, ip, lsl #16
 800a21e:	f8c0 281c 	str.w	r2, [r0, #2076]	; 0x81c
    USBx_OUTEP(epnum)->DOEPCTL &= ~(USB_OTG_DOEPCTL_USBAEP |
 800a222:	f8d3 1b00 	ldr.w	r1, [r3, #2816]	; 0xb00
 800a226:	4a23      	ldr	r2, [pc, #140]	; (800a2b4 <USB_DeactivateEndpoint+0xd8>)
 800a228:	400a      	ands	r2, r1
 800a22a:	f8c3 2b00 	str.w	r2, [r3, #2816]	; 0xb00
}
 800a22e:	2000      	movs	r0, #0
 800a230:	bc30      	pop	{r4, r5}
 800a232:	4770      	bx	lr
    if ((USBx_INEP(epnum)->DIEPCTL & USB_OTG_DIEPCTL_EPENA) == USB_OTG_DIEPCTL_EPENA)
 800a234:	eb00 1343 	add.w	r3, r0, r3, lsl #5
 800a238:	f8d3 2900 	ldr.w	r2, [r3, #2304]	; 0x900
 800a23c:	2a00      	cmp	r2, #0
 800a23e:	db1e      	blt.n	800a27e <USB_DeactivateEndpoint+0xa2>
    USBx_DEVICE->DEACHMSK &= ~(USB_OTG_DAINTMSK_IEPM & (uint32_t)(1UL << (ep->num & EP_ADDR_MSK)));
 800a240:	f8d0 583c 	ldr.w	r5, [r0, #2108]	; 0x83c
 800a244:	780a      	ldrb	r2, [r1, #0]
 800a246:	f002 020f 	and.w	r2, r2, #15
 800a24a:	2401      	movs	r4, #1
 800a24c:	fa04 f202 	lsl.w	r2, r4, r2
 800a250:	b292      	uxth	r2, r2
 800a252:	ea25 0202 	bic.w	r2, r5, r2
 800a256:	f8c0 283c 	str.w	r2, [r0, #2108]	; 0x83c
    USBx_DEVICE->DAINTMSK &= ~(USB_OTG_DAINTMSK_IEPM & (uint32_t)(1UL << (ep->num & EP_ADDR_MSK)));
 800a25a:	f8d0 281c 	ldr.w	r2, [r0, #2076]	; 0x81c
 800a25e:	7809      	ldrb	r1, [r1, #0]
 800a260:	f001 010f 	and.w	r1, r1, #15
 800a264:	408c      	lsls	r4, r1
 800a266:	b2a4      	uxth	r4, r4
 800a268:	ea22 0204 	bic.w	r2, r2, r4
 800a26c:	f8c0 281c 	str.w	r2, [r0, #2076]	; 0x81c
    USBx_INEP(epnum)->DIEPCTL &= ~(USB_OTG_DIEPCTL_USBAEP |
 800a270:	f8d3 1900 	ldr.w	r1, [r3, #2304]	; 0x900
 800a274:	4a10      	ldr	r2, [pc, #64]	; (800a2b8 <USB_DeactivateEndpoint+0xdc>)
 800a276:	400a      	ands	r2, r1
 800a278:	f8c3 2900 	str.w	r2, [r3, #2304]	; 0x900
 800a27c:	e7d7      	b.n	800a22e <USB_DeactivateEndpoint+0x52>
      USBx_INEP(epnum)->DIEPCTL |= USB_OTG_DIEPCTL_SNAK;
 800a27e:	f8d3 2900 	ldr.w	r2, [r3, #2304]	; 0x900
 800a282:	f042 6200 	orr.w	r2, r2, #134217728	; 0x8000000
 800a286:	f8c3 2900 	str.w	r2, [r3, #2304]	; 0x900
      USBx_INEP(epnum)->DIEPCTL |= USB_OTG_DIEPCTL_EPDIS;
 800a28a:	f8d3 2900 	ldr.w	r2, [r3, #2304]	; 0x900
 800a28e:	f042 4280 	orr.w	r2, r2, #1073741824	; 0x40000000
 800a292:	f8c3 2900 	str.w	r2, [r3, #2304]	; 0x900
 800a296:	e7d3      	b.n	800a240 <USB_DeactivateEndpoint+0x64>
      USBx_OUTEP(epnum)->DOEPCTL |= USB_OTG_DOEPCTL_SNAK;
 800a298:	f8d3 2b00 	ldr.w	r2, [r3, #2816]	; 0xb00
 800a29c:	f042 6200 	orr.w	r2, r2, #134217728	; 0x8000000
 800a2a0:	f8c3 2b00 	str.w	r2, [r3, #2816]	; 0xb00
      USBx_OUTEP(epnum)->DOEPCTL |= USB_OTG_DOEPCTL_EPDIS;
 800a2a4:	f8d3 2b00 	ldr.w	r2, [r3, #2816]	; 0xb00
 800a2a8:	f042 4280 	orr.w	r2, r2, #1073741824	; 0x40000000
 800a2ac:	f8c3 2b00 	str.w	r2, [r3, #2816]	; 0xb00
 800a2b0:	e79f      	b.n	800a1f2 <USB_DeactivateEndpoint+0x16>
 800a2b2:	bf00      	nop
 800a2b4:	eff37800 	.word	0xeff37800
 800a2b8:	ec337800 	.word	0xec337800

0800a2bc <USB_EP0StartXfer>:
  uint32_t epnum = (uint32_t)ep->num;
 800a2bc:	780b      	ldrb	r3, [r1, #0]
  if (ep->is_in == 1U)
 800a2be:	784a      	ldrb	r2, [r1, #1]
 800a2c0:	2a01      	cmp	r2, #1
 800a2c2:	d023      	beq.n	800a30c <USB_EP0StartXfer+0x50>
    USBx_OUTEP(epnum)->DOEPTSIZ &= ~(USB_OTG_DOEPTSIZ_XFRSIZ);
 800a2c4:	eb00 1043 	add.w	r0, r0, r3, lsl #5
 800a2c8:	f500 6330 	add.w	r3, r0, #2816	; 0xb00
 800a2cc:	691a      	ldr	r2, [r3, #16]
 800a2ce:	0cd2      	lsrs	r2, r2, #19
 800a2d0:	04d2      	lsls	r2, r2, #19
 800a2d2:	611a      	str	r2, [r3, #16]
    USBx_OUTEP(epnum)->DOEPTSIZ &= ~(USB_OTG_DOEPTSIZ_PKTCNT);
 800a2d4:	691a      	ldr	r2, [r3, #16]
 800a2d6:	f022 52ff 	bic.w	r2, r2, #534773760	; 0x1fe00000
 800a2da:	f422 12c0 	bic.w	r2, r2, #1572864	; 0x180000
 800a2de:	611a      	str	r2, [r3, #16]
    if (ep->xfer_len > 0U)
 800a2e0:	694a      	ldr	r2, [r1, #20]
 800a2e2:	b10a      	cbz	r2, 800a2e8 <USB_EP0StartXfer+0x2c>
      ep->xfer_len = ep->maxpacket;
 800a2e4:	688a      	ldr	r2, [r1, #8]
 800a2e6:	614a      	str	r2, [r1, #20]
    USBx_OUTEP(epnum)->DOEPTSIZ |= (USB_OTG_DOEPTSIZ_PKTCNT & (1U << 19));
 800a2e8:	691a      	ldr	r2, [r3, #16]
 800a2ea:	f442 2200 	orr.w	r2, r2, #524288	; 0x80000
 800a2ee:	611a      	str	r2, [r3, #16]
    USBx_OUTEP(epnum)->DOEPTSIZ |= (USB_OTG_DOEPTSIZ_XFRSIZ & (ep->maxpacket));
 800a2f0:	691a      	ldr	r2, [r3, #16]
 800a2f2:	6889      	ldr	r1, [r1, #8]
 800a2f4:	f3c1 0112 	ubfx	r1, r1, #0, #19
 800a2f8:	430a      	orrs	r2, r1
 800a2fa:	611a      	str	r2, [r3, #16]
    USBx_OUTEP(epnum)->DOEPCTL |= (USB_OTG_DOEPCTL_CNAK | USB_OTG_DOEPCTL_EPENA);
 800a2fc:	f8d0 3b00 	ldr.w	r3, [r0, #2816]	; 0xb00
 800a300:	f043 4304 	orr.w	r3, r3, #2214592512	; 0x84000000
 800a304:	f8c0 3b00 	str.w	r3, [r0, #2816]	; 0xb00
}
 800a308:	2000      	movs	r0, #0
 800a30a:	4770      	bx	lr
{
 800a30c:	b430      	push	{r4, r5}
    if (ep->xfer_len == 0U)
 800a30e:	694a      	ldr	r2, [r1, #20]
 800a310:	bb62      	cbnz	r2, 800a36c <USB_EP0StartXfer+0xb0>
      USBx_INEP(epnum)->DIEPTSIZ &= ~(USB_OTG_DIEPTSIZ_PKTCNT);
 800a312:	eb00 1243 	add.w	r2, r0, r3, lsl #5
 800a316:	f8d2 4910 	ldr.w	r4, [r2, #2320]	; 0x910
 800a31a:	f024 54ff 	bic.w	r4, r4, #534773760	; 0x1fe00000
 800a31e:	f424 14c0 	bic.w	r4, r4, #1572864	; 0x180000
 800a322:	f8c2 4910 	str.w	r4, [r2, #2320]	; 0x910
      USBx_INEP(epnum)->DIEPTSIZ |= (USB_OTG_DIEPTSIZ_PKTCNT & (1U << 19));
 800a326:	f8d2 4910 	ldr.w	r4, [r2, #2320]	; 0x910
 800a32a:	f444 2400 	orr.w	r4, r4, #524288	; 0x80000
 800a32e:	f8c2 4910 	str.w	r4, [r2, #2320]	; 0x910
      USBx_INEP(epnum)->DIEPTSIZ &= ~(USB_OTG_DIEPTSIZ_XFRSIZ);
 800a332:	f8d2 4910 	ldr.w	r4, [r2, #2320]	; 0x910
 800a336:	0ce4      	lsrs	r4, r4, #19
 800a338:	04e4      	lsls	r4, r4, #19
 800a33a:	f8c2 4910 	str.w	r4, [r2, #2320]	; 0x910
    USBx_INEP(epnum)->DIEPCTL |= (USB_OTG_DIEPCTL_CNAK | USB_OTG_DIEPCTL_EPENA);
 800a33e:	eb00 1343 	add.w	r3, r0, r3, lsl #5
 800a342:	f8d3 2900 	ldr.w	r2, [r3, #2304]	; 0x900
 800a346:	f042 4204 	orr.w	r2, r2, #2214592512	; 0x84000000
 800a34a:	f8c3 2900 	str.w	r2, [r3, #2304]	; 0x900
    if (ep->xfer_len > 0U)
 800a34e:	694b      	ldr	r3, [r1, #20]
 800a350:	b14b      	cbz	r3, 800a366 <USB_EP0StartXfer+0xaa>
      USBx_DEVICE->DIEPEMPMSK |= 1UL << (ep->num & EP_ADDR_MSK);
 800a352:	f8d0 3834 	ldr.w	r3, [r0, #2100]	; 0x834
 800a356:	7809      	ldrb	r1, [r1, #0]
 800a358:	f001 010f 	and.w	r1, r1, #15
 800a35c:	2201      	movs	r2, #1
 800a35e:	408a      	lsls	r2, r1
 800a360:	4313      	orrs	r3, r2
 800a362:	f8c0 3834 	str.w	r3, [r0, #2100]	; 0x834
}
 800a366:	2000      	movs	r0, #0
 800a368:	bc30      	pop	{r4, r5}
 800a36a:	4770      	bx	lr
      USBx_INEP(epnum)->DIEPTSIZ &= ~(USB_OTG_DIEPTSIZ_XFRSIZ);
 800a36c:	eb00 1243 	add.w	r2, r0, r3, lsl #5
 800a370:	f502 6210 	add.w	r2, r2, #2304	; 0x900
 800a374:	6914      	ldr	r4, [r2, #16]
 800a376:	0ce4      	lsrs	r4, r4, #19
 800a378:	04e4      	lsls	r4, r4, #19
 800a37a:	6114      	str	r4, [r2, #16]
      USBx_INEP(epnum)->DIEPTSIZ &= ~(USB_OTG_DIEPTSIZ_PKTCNT);
 800a37c:	6914      	ldr	r4, [r2, #16]
 800a37e:	f024 54ff 	bic.w	r4, r4, #534773760	; 0x1fe00000
 800a382:	f424 14c0 	bic.w	r4, r4, #1572864	; 0x180000
 800a386:	6114      	str	r4, [r2, #16]
      if (ep->xfer_len > ep->maxpacket)
 800a388:	688c      	ldr	r4, [r1, #8]
 800a38a:	694d      	ldr	r5, [r1, #20]
 800a38c:	42a5      	cmp	r5, r4
 800a38e:	d900      	bls.n	800a392 <USB_EP0StartXfer+0xd6>
        ep->xfer_len = ep->maxpacket;
 800a390:	614c      	str	r4, [r1, #20]
      USBx_INEP(epnum)->DIEPTSIZ |= (USB_OTG_DIEPTSIZ_PKTCNT & (1U << 19));
 800a392:	6914      	ldr	r4, [r2, #16]
 800a394:	f444 2400 	orr.w	r4, r4, #524288	; 0x80000
 800a398:	6114      	str	r4, [r2, #16]
      USBx_INEP(epnum)->DIEPTSIZ |= (USB_OTG_DIEPTSIZ_XFRSIZ & ep->xfer_len);
 800a39a:	6914      	ldr	r4, [r2, #16]
 800a39c:	694d      	ldr	r5, [r1, #20]
 800a39e:	f3c5 0c12 	ubfx	ip, r5, #0, #19
 800a3a2:	ea44 040c 	orr.w	r4, r4, ip
 800a3a6:	6114      	str	r4, [r2, #16]
 800a3a8:	e7c9      	b.n	800a33e <USB_EP0StartXfer+0x82>

0800a3aa <USB_WritePacket>:
{
 800a3aa:	b510      	push	{r4, lr}
  count32b = ((uint32_t)len + 3U) / 4U;
 800a3ac:	1cdc      	adds	r4, r3, #3
 800a3ae:	08a4      	lsrs	r4, r4, #2
  for (i = 0U; i < count32b; i++)
 800a3b0:	f04f 0e00 	mov.w	lr, #0
 800a3b4:	e009      	b.n	800a3ca <USB_WritePacket+0x20>
    USBx_DFIFO((uint32_t)ch_ep_num) = __UNALIGNED_UINT32_READ(pSrc);
 800a3b6:	eb00 3c02 	add.w	ip, r0, r2, lsl #12
 800a3ba:	f50c 5c80 	add.w	ip, ip, #4096	; 0x1000
 800a3be:	f851 3b04 	ldr.w	r3, [r1], #4
 800a3c2:	f8cc 3000 	str.w	r3, [ip]
  for (i = 0U; i < count32b; i++)
 800a3c6:	f10e 0e01 	add.w	lr, lr, #1
 800a3ca:	45a6      	cmp	lr, r4
 800a3cc:	d3f3      	bcc.n	800a3b6 <USB_WritePacket+0xc>
}
 800a3ce:	2000      	movs	r0, #0
 800a3d0:	bd10      	pop	{r4, pc}
	...

0800a3d4 <USB_EPStartXfer>:
{
 800a3d4:	b570      	push	{r4, r5, r6, lr}
  uint32_t epnum = (uint32_t)ep->num;
 800a3d6:	780b      	ldrb	r3, [r1, #0]
  if (ep->is_in == 1U)
 800a3d8:	784a      	ldrb	r2, [r1, #1]
 800a3da:	2a01      	cmp	r2, #1
 800a3dc:	d027      	beq.n	800a42e <USB_EPStartXfer+0x5a>
    USBx_OUTEP(epnum)->DOEPTSIZ &= ~(USB_OTG_DOEPTSIZ_XFRSIZ);
 800a3de:	eb00 1343 	add.w	r3, r0, r3, lsl #5
 800a3e2:	f503 6230 	add.w	r2, r3, #2816	; 0xb00
 800a3e6:	6914      	ldr	r4, [r2, #16]
 800a3e8:	0ce4      	lsrs	r4, r4, #19
 800a3ea:	04e4      	lsls	r4, r4, #19
 800a3ec:	6114      	str	r4, [r2, #16]
    USBx_OUTEP(epnum)->DOEPTSIZ &= ~(USB_OTG_DOEPTSIZ_PKTCNT);
 800a3ee:	6914      	ldr	r4, [r2, #16]
 800a3f0:	f024 54ff 	bic.w	r4, r4, #534773760	; 0x1fe00000
 800a3f4:	f424 14c0 	bic.w	r4, r4, #1572864	; 0x180000
 800a3f8:	6114      	str	r4, [r2, #16]
    if (ep->xfer_len == 0U)
 800a3fa:	694c      	ldr	r4, [r1, #20]
 800a3fc:	2c00      	cmp	r4, #0
 800a3fe:	f040 8093 	bne.w	800a528 <USB_EPStartXfer+0x154>
      USBx_OUTEP(epnum)->DOEPTSIZ |= (USB_OTG_DOEPTSIZ_XFRSIZ & ep->maxpacket);
 800a402:	6914      	ldr	r4, [r2, #16]
 800a404:	688d      	ldr	r5, [r1, #8]
 800a406:	f3c5 0512 	ubfx	r5, r5, #0, #19
 800a40a:	432c      	orrs	r4, r5
 800a40c:	6114      	str	r4, [r2, #16]
      USBx_OUTEP(epnum)->DOEPTSIZ |= (USB_OTG_DOEPTSIZ_PKTCNT & (1U << 19));
 800a40e:	6914      	ldr	r4, [r2, #16]
 800a410:	f444 2400 	orr.w	r4, r4, #524288	; 0x80000
 800a414:	6114      	str	r4, [r2, #16]
    if (ep->type == EP_TYPE_ISOC)
 800a416:	78ca      	ldrb	r2, [r1, #3]
 800a418:	2a01      	cmp	r2, #1
 800a41a:	f000 809b 	beq.w	800a554 <USB_EPStartXfer+0x180>
    USBx_OUTEP(epnum)->DOEPCTL |= (USB_OTG_DOEPCTL_CNAK | USB_OTG_DOEPCTL_EPENA);
 800a41e:	f8d3 2b00 	ldr.w	r2, [r3, #2816]	; 0xb00
 800a422:	f042 4204 	orr.w	r2, r2, #2214592512	; 0x84000000
 800a426:	f8c3 2b00 	str.w	r2, [r3, #2816]	; 0xb00
}
 800a42a:	2000      	movs	r0, #0
 800a42c:	bd70      	pop	{r4, r5, r6, pc}
    if (ep->xfer_len == 0U)
 800a42e:	694a      	ldr	r2, [r1, #20]
 800a430:	bb72      	cbnz	r2, 800a490 <USB_EPStartXfer+0xbc>
      USBx_INEP(epnum)->DIEPTSIZ &= ~(USB_OTG_DIEPTSIZ_PKTCNT);
 800a432:	eb00 1243 	add.w	r2, r0, r3, lsl #5
 800a436:	f8d2 4910 	ldr.w	r4, [r2, #2320]	; 0x910
 800a43a:	f024 54ff 	bic.w	r4, r4, #534773760	; 0x1fe00000
 800a43e:	f424 14c0 	bic.w	r4, r4, #1572864	; 0x180000
 800a442:	f8c2 4910 	str.w	r4, [r2, #2320]	; 0x910
      USBx_INEP(epnum)->DIEPTSIZ |= (USB_OTG_DIEPTSIZ_PKTCNT & (1U << 19));
 800a446:	f8d2 4910 	ldr.w	r4, [r2, #2320]	; 0x910
 800a44a:	f444 2400 	orr.w	r4, r4, #524288	; 0x80000
 800a44e:	f8c2 4910 	str.w	r4, [r2, #2320]	; 0x910
      USBx_INEP(epnum)->DIEPTSIZ &= ~(USB_OTG_DIEPTSIZ_XFRSIZ);
 800a452:	f8d2 4910 	ldr.w	r4, [r2, #2320]	; 0x910
 800a456:	0ce4      	lsrs	r4, r4, #19
 800a458:	04e4      	lsls	r4, r4, #19
 800a45a:	f8c2 4910 	str.w	r4, [r2, #2320]	; 0x910
    USBx_INEP(epnum)->DIEPCTL |= (USB_OTG_DIEPCTL_CNAK | USB_OTG_DIEPCTL_EPENA);
 800a45e:	eb00 1343 	add.w	r3, r0, r3, lsl #5
 800a462:	f8d3 2900 	ldr.w	r2, [r3, #2304]	; 0x900
 800a466:	f042 4204 	orr.w	r2, r2, #2214592512	; 0x84000000
 800a46a:	f8c3 2900 	str.w	r2, [r3, #2304]	; 0x900
    if (ep->type != EP_TYPE_ISOC)
 800a46e:	78ca      	ldrb	r2, [r1, #3]
 800a470:	2a01      	cmp	r2, #1
 800a472:	d041      	beq.n	800a4f8 <USB_EPStartXfer+0x124>
      if (ep->xfer_len > 0U)
 800a474:	694b      	ldr	r3, [r1, #20]
 800a476:	2b00      	cmp	r3, #0
 800a478:	d0d7      	beq.n	800a42a <USB_EPStartXfer+0x56>
        USBx_DEVICE->DIEPEMPMSK |= 1UL << (ep->num & EP_ADDR_MSK);
 800a47a:	f8d0 3834 	ldr.w	r3, [r0, #2100]	; 0x834
 800a47e:	7809      	ldrb	r1, [r1, #0]
 800a480:	f001 010f 	and.w	r1, r1, #15
 800a484:	2201      	movs	r2, #1
 800a486:	408a      	lsls	r2, r1
 800a488:	4313      	orrs	r3, r2
 800a48a:	f8c0 3834 	str.w	r3, [r0, #2100]	; 0x834
 800a48e:	e7cc      	b.n	800a42a <USB_EPStartXfer+0x56>
      USBx_INEP(epnum)->DIEPTSIZ &= ~(USB_OTG_DIEPTSIZ_XFRSIZ);
 800a490:	eb00 1243 	add.w	r2, r0, r3, lsl #5
 800a494:	f8d2 4910 	ldr.w	r4, [r2, #2320]	; 0x910
 800a498:	0ce4      	lsrs	r4, r4, #19
 800a49a:	04e4      	lsls	r4, r4, #19
 800a49c:	f8c2 4910 	str.w	r4, [r2, #2320]	; 0x910
      USBx_INEP(epnum)->DIEPTSIZ &= ~(USB_OTG_DIEPTSIZ_PKTCNT);
 800a4a0:	f8d2 4910 	ldr.w	r4, [r2, #2320]	; 0x910
 800a4a4:	f024 54ff 	bic.w	r4, r4, #534773760	; 0x1fe00000
 800a4a8:	f424 14c0 	bic.w	r4, r4, #1572864	; 0x180000
 800a4ac:	f8c2 4910 	str.w	r4, [r2, #2320]	; 0x910
      USBx_INEP(epnum)->DIEPTSIZ |= (USB_OTG_DIEPTSIZ_PKTCNT & (((ep->xfer_len + ep->maxpacket - 1U) / ep->maxpacket) << 19));
 800a4b0:	f8d2 5910 	ldr.w	r5, [r2, #2320]	; 0x910
 800a4b4:	694c      	ldr	r4, [r1, #20]
 800a4b6:	688e      	ldr	r6, [r1, #8]
 800a4b8:	4434      	add	r4, r6
 800a4ba:	3c01      	subs	r4, #1
 800a4bc:	fbb4 f4f6 	udiv	r4, r4, r6
 800a4c0:	4e2e      	ldr	r6, [pc, #184]	; (800a57c <USB_EPStartXfer+0x1a8>)
 800a4c2:	ea06 44c4 	and.w	r4, r6, r4, lsl #19
 800a4c6:	432c      	orrs	r4, r5
 800a4c8:	f8c2 4910 	str.w	r4, [r2, #2320]	; 0x910
      USBx_INEP(epnum)->DIEPTSIZ |= (USB_OTG_DIEPTSIZ_XFRSIZ & ep->xfer_len);
 800a4cc:	f8d2 4910 	ldr.w	r4, [r2, #2320]	; 0x910
 800a4d0:	694d      	ldr	r5, [r1, #20]
 800a4d2:	f3c5 0512 	ubfx	r5, r5, #0, #19
 800a4d6:	432c      	orrs	r4, r5
 800a4d8:	f8c2 4910 	str.w	r4, [r2, #2320]	; 0x910
      USBx_INEP(epnum)->DIEPTSIZ &= ~(USB_OTG_DIEPTSIZ_XFRSIZ);
 800a4dc:	f502 6210 	add.w	r2, r2, #2304	; 0x900
      if (ep->type == EP_TYPE_ISOC)
 800a4e0:	78cc      	ldrb	r4, [r1, #3]
 800a4e2:	2c01      	cmp	r4, #1
 800a4e4:	d1bb      	bne.n	800a45e <USB_EPStartXfer+0x8a>
        USBx_INEP(epnum)->DIEPTSIZ &= ~(USB_OTG_DIEPTSIZ_MULCNT);
 800a4e6:	6914      	ldr	r4, [r2, #16]
 800a4e8:	f024 44c0 	bic.w	r4, r4, #1610612736	; 0x60000000
 800a4ec:	6114      	str	r4, [r2, #16]
        USBx_INEP(epnum)->DIEPTSIZ |= (USB_OTG_DIEPTSIZ_MULCNT & (1U << 29));
 800a4ee:	6914      	ldr	r4, [r2, #16]
 800a4f0:	f044 5400 	orr.w	r4, r4, #536870912	; 0x20000000
 800a4f4:	6114      	str	r4, [r2, #16]
 800a4f6:	e7b2      	b.n	800a45e <USB_EPStartXfer+0x8a>
      if ((USBx_DEVICE->DSTS & (1U << 8)) == 0U)
 800a4f8:	f8d0 2808 	ldr.w	r2, [r0, #2056]	; 0x808
 800a4fc:	f412 7f80 	tst.w	r2, #256	; 0x100
 800a500:	d10b      	bne.n	800a51a <USB_EPStartXfer+0x146>
        USBx_INEP(epnum)->DIEPCTL |= USB_OTG_DIEPCTL_SODDFRM;
 800a502:	f8d3 2900 	ldr.w	r2, [r3, #2304]	; 0x900
 800a506:	f042 5200 	orr.w	r2, r2, #536870912	; 0x20000000
 800a50a:	f8c3 2900 	str.w	r2, [r3, #2304]	; 0x900
      (void)USB_WritePacket(USBx, ep->xfer_buff, ep->num, (uint16_t)ep->xfer_len);
 800a50e:	8a8b      	ldrh	r3, [r1, #20]
 800a510:	780a      	ldrb	r2, [r1, #0]
 800a512:	68c9      	ldr	r1, [r1, #12]
 800a514:	f7ff ff49 	bl	800a3aa <USB_WritePacket>
 800a518:	e787      	b.n	800a42a <USB_EPStartXfer+0x56>
        USBx_INEP(epnum)->DIEPCTL |= USB_OTG_DIEPCTL_SD0PID_SEVNFRM;
 800a51a:	f8d3 2900 	ldr.w	r2, [r3, #2304]	; 0x900
 800a51e:	f042 5280 	orr.w	r2, r2, #268435456	; 0x10000000
 800a522:	f8c3 2900 	str.w	r2, [r3, #2304]	; 0x900
 800a526:	e7f2      	b.n	800a50e <USB_EPStartXfer+0x13a>
      pktcnt = (uint16_t)((ep->xfer_len + ep->maxpacket - 1U) / ep->maxpacket);
 800a528:	688d      	ldr	r5, [r1, #8]
 800a52a:	442c      	add	r4, r5
 800a52c:	3c01      	subs	r4, #1
 800a52e:	fbb4 f4f5 	udiv	r4, r4, r5
      USBx_OUTEP(epnum)->DOEPTSIZ |= USB_OTG_DOEPTSIZ_PKTCNT & ((uint32_t)pktcnt << 19);
 800a532:	6915      	ldr	r5, [r2, #16]
 800a534:	fa1f fc84 	uxth.w	ip, r4
 800a538:	4e10      	ldr	r6, [pc, #64]	; (800a57c <USB_EPStartXfer+0x1a8>)
 800a53a:	ea06 44c4 	and.w	r4, r6, r4, lsl #19
 800a53e:	432c      	orrs	r4, r5
 800a540:	6114      	str	r4, [r2, #16]
      USBx_OUTEP(epnum)->DOEPTSIZ |= USB_OTG_DOEPTSIZ_XFRSIZ & (ep->maxpacket * pktcnt);
 800a542:	6915      	ldr	r5, [r2, #16]
 800a544:	688c      	ldr	r4, [r1, #8]
 800a546:	fb0c f404 	mul.w	r4, ip, r4
 800a54a:	f3c4 0412 	ubfx	r4, r4, #0, #19
 800a54e:	432c      	orrs	r4, r5
 800a550:	6114      	str	r4, [r2, #16]
 800a552:	e760      	b.n	800a416 <USB_EPStartXfer+0x42>
      if ((USBx_DEVICE->DSTS & (1U << 8)) == 0U)
 800a554:	f8d0 2808 	ldr.w	r2, [r0, #2056]	; 0x808
 800a558:	f412 7f80 	tst.w	r2, #256	; 0x100
 800a55c:	d106      	bne.n	800a56c <USB_EPStartXfer+0x198>
        USBx_OUTEP(epnum)->DOEPCTL |= USB_OTG_DOEPCTL_SODDFRM;
 800a55e:	f8d3 2b00 	ldr.w	r2, [r3, #2816]	; 0xb00
 800a562:	f042 5200 	orr.w	r2, r2, #536870912	; 0x20000000
 800a566:	f8c3 2b00 	str.w	r2, [r3, #2816]	; 0xb00
 800a56a:	e758      	b.n	800a41e <USB_EPStartXfer+0x4a>
        USBx_OUTEP(epnum)->DOEPCTL |= USB_OTG_DOEPCTL_SD0PID_SEVNFRM;
 800a56c:	f8d3 2b00 	ldr.w	r2, [r3, #2816]	; 0xb00
 800a570:	f042 5280 	orr.w	r2, r2, #268435456	; 0x10000000
 800a574:	f8c3 2b00 	str.w	r2, [r3, #2816]	; 0xb00
 800a578:	e751      	b.n	800a41e <USB_EPStartXfer+0x4a>
 800a57a:	bf00      	nop
 800a57c:	1ff80000 	.word	0x1ff80000

0800a580 <USB_ReadPacket>:
{
 800a580:	4684      	mov	ip, r0
 800a582:	4608      	mov	r0, r1
  uint32_t count32b = ((uint32_t)len + 3U) / 4U;
 800a584:	3203      	adds	r2, #3
 800a586:	0892      	lsrs	r2, r2, #2
  for (i = 0U; i < count32b; i++)
 800a588:	2300      	movs	r3, #0
 800a58a:	e005      	b.n	800a598 <USB_ReadPacket+0x18>
    __UNALIGNED_UINT32_WRITE(pDest, USBx_DFIFO(0U));
 800a58c:	f50c 5180 	add.w	r1, ip, #4096	; 0x1000
 800a590:	6809      	ldr	r1, [r1, #0]
 800a592:	f840 1b04 	str.w	r1, [r0], #4
  for (i = 0U; i < count32b; i++)
 800a596:	3301      	adds	r3, #1
 800a598:	4293      	cmp	r3, r2
 800a59a:	d3f7      	bcc.n	800a58c <USB_ReadPacket+0xc>
}
 800a59c:	4770      	bx	lr

0800a59e <USB_EPSetStall>:
  uint32_t epnum = (uint32_t)ep->num;
 800a59e:	780b      	ldrb	r3, [r1, #0]
  if (ep->is_in == 1U)
 800a5a0:	784a      	ldrb	r2, [r1, #1]
 800a5a2:	2a01      	cmp	r2, #1
 800a5a4:	d014      	beq.n	800a5d0 <USB_EPSetStall+0x32>
    if (((USBx_OUTEP(epnum)->DOEPCTL & USB_OTG_DOEPCTL_EPENA) == 0U) && (epnum != 0U))
 800a5a6:	eb00 1043 	add.w	r0, r0, r3, lsl #5
 800a5aa:	f8d0 2b00 	ldr.w	r2, [r0, #2816]	; 0xb00
 800a5ae:	2a00      	cmp	r2, #0
 800a5b0:	db06      	blt.n	800a5c0 <USB_EPSetStall+0x22>
 800a5b2:	b12b      	cbz	r3, 800a5c0 <USB_EPSetStall+0x22>
      USBx_OUTEP(epnum)->DOEPCTL &= ~(USB_OTG_DOEPCTL_EPDIS);
 800a5b4:	f8d0 3b00 	ldr.w	r3, [r0, #2816]	; 0xb00
 800a5b8:	f023 4380 	bic.w	r3, r3, #1073741824	; 0x40000000
 800a5bc:	f8c0 3b00 	str.w	r3, [r0, #2816]	; 0xb00
    USBx_OUTEP(epnum)->DOEPCTL |= USB_OTG_DOEPCTL_STALL;
 800a5c0:	f8d0 3b00 	ldr.w	r3, [r0, #2816]	; 0xb00
 800a5c4:	f443 1300 	orr.w	r3, r3, #2097152	; 0x200000
 800a5c8:	f8c0 3b00 	str.w	r3, [r0, #2816]	; 0xb00
}
 800a5cc:	2000      	movs	r0, #0
 800a5ce:	4770      	bx	lr
    if (((USBx_INEP(epnum)->DIEPCTL & USB_OTG_DIEPCTL_EPENA) == 0U) && (epnum != 0U))
 800a5d0:	eb00 1043 	add.w	r0, r0, r3, lsl #5
 800a5d4:	f8d0 2900 	ldr.w	r2, [r0, #2304]	; 0x900
 800a5d8:	2a00      	cmp	r2, #0
 800a5da:	db06      	blt.n	800a5ea <USB_EPSetStall+0x4c>
 800a5dc:	b12b      	cbz	r3, 800a5ea <USB_EPSetStall+0x4c>
      USBx_INEP(epnum)->DIEPCTL &= ~(USB_OTG_DIEPCTL_EPDIS);
 800a5de:	f8d0 3900 	ldr.w	r3, [r0, #2304]	; 0x900
 800a5e2:	f023 4380 	bic.w	r3, r3, #1073741824	; 0x40000000
 800a5e6:	f8c0 3900 	str.w	r3, [r0, #2304]	; 0x900
    USBx_INEP(epnum)->DIEPCTL |= USB_OTG_DIEPCTL_STALL;
 800a5ea:	f8d0 3900 	ldr.w	r3, [r0, #2304]	; 0x900
 800a5ee:	f443 1300 	orr.w	r3, r3, #2097152	; 0x200000
 800a5f2:	f8c0 3900 	str.w	r3, [r0, #2304]	; 0x900
 800a5f6:	e7e9      	b.n	800a5cc <USB_EPSetStall+0x2e>

0800a5f8 <USB_EPClearStall>:
  uint32_t epnum = (uint32_t)ep->num;
 800a5f8:	780b      	ldrb	r3, [r1, #0]
  if (ep->is_in == 1U)
 800a5fa:	784a      	ldrb	r2, [r1, #1]
 800a5fc:	2a01      	cmp	r2, #1
 800a5fe:	d00e      	beq.n	800a61e <USB_EPClearStall+0x26>
    USBx_OUTEP(epnum)->DOEPCTL &= ~USB_OTG_DOEPCTL_STALL;
 800a600:	eb00 1043 	add.w	r0, r0, r3, lsl #5
 800a604:	f8d0 3b00 	ldr.w	r3, [r0, #2816]	; 0xb00
 800a608:	f423 1300 	bic.w	r3, r3, #2097152	; 0x200000
 800a60c:	f8c0 3b00 	str.w	r3, [r0, #2816]	; 0xb00
    if ((ep->type == EP_TYPE_INTR) || (ep->type == EP_TYPE_BULK))
 800a610:	78cb      	ldrb	r3, [r1, #3]
 800a612:	3b02      	subs	r3, #2
 800a614:	b2db      	uxtb	r3, r3
 800a616:	2b01      	cmp	r3, #1
 800a618:	d915      	bls.n	800a646 <USB_EPClearStall+0x4e>
}
 800a61a:	2000      	movs	r0, #0
 800a61c:	4770      	bx	lr
    USBx_INEP(epnum)->DIEPCTL &= ~USB_OTG_DIEPCTL_STALL;
 800a61e:	eb00 1043 	add.w	r0, r0, r3, lsl #5
 800a622:	f8d0 3900 	ldr.w	r3, [r0, #2304]	; 0x900
 800a626:	f423 1300 	bic.w	r3, r3, #2097152	; 0x200000
 800a62a:	f8c0 3900 	str.w	r3, [r0, #2304]	; 0x900
    if ((ep->type == EP_TYPE_INTR) || (ep->type == EP_TYPE_BULK))
 800a62e:	78cb      	ldrb	r3, [r1, #3]
 800a630:	3b02      	subs	r3, #2
 800a632:	b2db      	uxtb	r3, r3
 800a634:	2b01      	cmp	r3, #1
 800a636:	d8f0      	bhi.n	800a61a <USB_EPClearStall+0x22>
      USBx_INEP(epnum)->DIEPCTL |= USB_OTG_DIEPCTL_SD0PID_SEVNFRM; /* DATA0 */
 800a638:	f8d0 3900 	ldr.w	r3, [r0, #2304]	; 0x900
 800a63c:	f043 5380 	orr.w	r3, r3, #268435456	; 0x10000000
 800a640:	f8c0 3900 	str.w	r3, [r0, #2304]	; 0x900
 800a644:	e7e9      	b.n	800a61a <USB_EPClearStall+0x22>
      USBx_OUTEP(epnum)->DOEPCTL |= USB_OTG_DOEPCTL_SD0PID_SEVNFRM; /* DATA0 */
 800a646:	f8d0 3b00 	ldr.w	r3, [r0, #2816]	; 0xb00
 800a64a:	f043 5380 	orr.w	r3, r3, #268435456	; 0x10000000
 800a64e:	f8c0 3b00 	str.w	r3, [r0, #2816]	; 0xb00
 800a652:	e7e2      	b.n	800a61a <USB_EPClearStall+0x22>

0800a654 <USB_SetDevAddress>:
  USBx_DEVICE->DCFG &= ~(USB_OTG_DCFG_DAD);
 800a654:	f8d0 3800 	ldr.w	r3, [r0, #2048]	; 0x800
 800a658:	f423 63fe 	bic.w	r3, r3, #2032	; 0x7f0
 800a65c:	f8c0 3800 	str.w	r3, [r0, #2048]	; 0x800
  USBx_DEVICE->DCFG |= ((uint32_t)address << 4) & USB_OTG_DCFG_DAD;
 800a660:	f8d0 3800 	ldr.w	r3, [r0, #2048]	; 0x800
 800a664:	0109      	lsls	r1, r1, #4
 800a666:	f401 61fe 	and.w	r1, r1, #2032	; 0x7f0
 800a66a:	430b      	orrs	r3, r1
 800a66c:	f8c0 3800 	str.w	r3, [r0, #2048]	; 0x800
}
 800a670:	2000      	movs	r0, #0
 800a672:	4770      	bx	lr

0800a674 <USB_DevConnect>:
  USBx_PCGCCTL &= ~(USB_OTG_PCGCCTL_STOPCLK | USB_OTG_PCGCCTL_GATECLK);
 800a674:	f8d0 3e00 	ldr.w	r3, [r0, #3584]	; 0xe00
 800a678:	f023 0303 	bic.w	r3, r3, #3
 800a67c:	f8c0 3e00 	str.w	r3, [r0, #3584]	; 0xe00
  USBx_DEVICE->DCTL &= ~USB_OTG_DCTL_SDIS;
 800a680:	f8d0 3804 	ldr.w	r3, [r0, #2052]	; 0x804
 800a684:	f023 0302 	bic.w	r3, r3, #2
 800a688:	f8c0 3804 	str.w	r3, [r0, #2052]	; 0x804
}
 800a68c:	2000      	movs	r0, #0
 800a68e:	4770      	bx	lr

0800a690 <USB_DevDisconnect>:
  USBx_PCGCCTL &= ~(USB_OTG_PCGCCTL_STOPCLK | USB_OTG_PCGCCTL_GATECLK);
 800a690:	f8d0 3e00 	ldr.w	r3, [r0, #3584]	; 0xe00
 800a694:	f023 0303 	bic.w	r3, r3, #3
 800a698:	f8c0 3e00 	str.w	r3, [r0, #3584]	; 0xe00
  USBx_DEVICE->DCTL |= USB_OTG_DCTL_SDIS;
 800a69c:	f8d0 3804 	ldr.w	r3, [r0, #2052]	; 0x804
 800a6a0:	f043 0302 	orr.w	r3, r3, #2
 800a6a4:	f8c0 3804 	str.w	r3, [r0, #2052]	; 0x804
}
 800a6a8:	2000      	movs	r0, #0
 800a6aa:	4770      	bx	lr

0800a6ac <USB_ReadInterrupts>:
  tmpreg = USBx->GINTSTS;
 800a6ac:	6942      	ldr	r2, [r0, #20]
  tmpreg &= USBx->GINTMSK;
 800a6ae:	6980      	ldr	r0, [r0, #24]
}
 800a6b0:	4010      	ands	r0, r2
 800a6b2:	4770      	bx	lr

0800a6b4 <USB_ReadDevAllOutEpInterrupt>:
  tmpreg  = USBx_DEVICE->DAINT;
 800a6b4:	f8d0 3818 	ldr.w	r3, [r0, #2072]	; 0x818
 800a6b8:	f500 6000 	add.w	r0, r0, #2048	; 0x800
  tmpreg &= USBx_DEVICE->DAINTMSK;
 800a6bc:	69c0      	ldr	r0, [r0, #28]
 800a6be:	4018      	ands	r0, r3
}
 800a6c0:	0c00      	lsrs	r0, r0, #16
 800a6c2:	4770      	bx	lr

0800a6c4 <USB_ReadDevAllInEpInterrupt>:
  tmpreg  = USBx_DEVICE->DAINT;
 800a6c4:	f8d0 3818 	ldr.w	r3, [r0, #2072]	; 0x818
 800a6c8:	f500 6000 	add.w	r0, r0, #2048	; 0x800
  tmpreg &= USBx_DEVICE->DAINTMSK;
 800a6cc:	69c0      	ldr	r0, [r0, #28]
 800a6ce:	4018      	ands	r0, r3
}
 800a6d0:	b280      	uxth	r0, r0
 800a6d2:	4770      	bx	lr

0800a6d4 <USB_ReadDevOutEPInterrupt>:
  tmpreg  = USBx_OUTEP((uint32_t)epnum)->DOEPINT;
 800a6d4:	eb00 1141 	add.w	r1, r0, r1, lsl #5
 800a6d8:	f8d1 2b08 	ldr.w	r2, [r1, #2824]	; 0xb08
  tmpreg &= USBx_DEVICE->DOEPMSK;
 800a6dc:	f500 6000 	add.w	r0, r0, #2048	; 0x800
 800a6e0:	6940      	ldr	r0, [r0, #20]
}
 800a6e2:	4010      	ands	r0, r2
 800a6e4:	4770      	bx	lr

0800a6e6 <USB_ReadDevInEPInterrupt>:
  msk = USBx_DEVICE->DIEPMSK;
 800a6e6:	f8d0 2810 	ldr.w	r2, [r0, #2064]	; 0x810
  emp = USBx_DEVICE->DIEPEMPMSK;
 800a6ea:	f8d0 3834 	ldr.w	r3, [r0, #2100]	; 0x834
  msk |= ((emp >> (epnum & EP_ADDR_MSK)) & 0x1U) << 7;
 800a6ee:	f001 0c0f 	and.w	ip, r1, #15
 800a6f2:	fa23 f30c 	lsr.w	r3, r3, ip
 800a6f6:	01db      	lsls	r3, r3, #7
 800a6f8:	b2db      	uxtb	r3, r3
 800a6fa:	4313      	orrs	r3, r2
  tmpreg = USBx_INEP((uint32_t)epnum)->DIEPINT & msk;
 800a6fc:	eb00 1041 	add.w	r0, r0, r1, lsl #5
 800a700:	f500 6010 	add.w	r0, r0, #2304	; 0x900
 800a704:	6880      	ldr	r0, [r0, #8]
}
 800a706:	4018      	ands	r0, r3
 800a708:	4770      	bx	lr

0800a70a <USB_GetMode>:
  return ((USBx->GINTSTS) & 0x1U);
 800a70a:	6940      	ldr	r0, [r0, #20]
}
 800a70c:	f000 0001 	and.w	r0, r0, #1
 800a710:	4770      	bx	lr

0800a712 <USB_ActivateSetup>:
  USBx_INEP(0U)->DIEPCTL &= ~USB_OTG_DIEPCTL_MPSIZ;
 800a712:	f8d0 3900 	ldr.w	r3, [r0, #2304]	; 0x900
 800a716:	f423 63ff 	bic.w	r3, r3, #2040	; 0x7f8
 800a71a:	f023 0307 	bic.w	r3, r3, #7
 800a71e:	f8c0 3900 	str.w	r3, [r0, #2304]	; 0x900
  USBx_DEVICE->DCTL |= USB_OTG_DCTL_CGINAK;
 800a722:	f8d0 3804 	ldr.w	r3, [r0, #2052]	; 0x804
 800a726:	f443 7380 	orr.w	r3, r3, #256	; 0x100
 800a72a:	f8c0 3804 	str.w	r3, [r0, #2052]	; 0x804
}
 800a72e:	2000      	movs	r0, #0
 800a730:	4770      	bx	lr
	...

0800a734 <USB_EP0_OutStart>:
  uint32_t gSNPSiD = *(__IO uint32_t *)(&USBx->CID + 0x1U);
 800a734:	6c02      	ldr	r2, [r0, #64]	; 0x40
  if (gSNPSiD > USB_OTG_CORE_ID_300A)
 800a736:	4b0f      	ldr	r3, [pc, #60]	; (800a774 <USB_EP0_OutStart+0x40>)
 800a738:	429a      	cmp	r2, r3
 800a73a:	d903      	bls.n	800a744 <USB_EP0_OutStart+0x10>
    if ((USBx_OUTEP(0U)->DOEPCTL & USB_OTG_DOEPCTL_EPENA) == USB_OTG_DOEPCTL_EPENA)
 800a73c:	f8d0 3b00 	ldr.w	r3, [r0, #2816]	; 0xb00
 800a740:	2b00      	cmp	r3, #0
 800a742:	db14      	blt.n	800a76e <USB_EP0_OutStart+0x3a>
  USBx_OUTEP(0U)->DOEPTSIZ = 0U;
 800a744:	2300      	movs	r3, #0
 800a746:	f8c0 3b10 	str.w	r3, [r0, #2832]	; 0xb10
  USBx_OUTEP(0U)->DOEPTSIZ |= (USB_OTG_DOEPTSIZ_PKTCNT & (1U << 19));
 800a74a:	f8d0 3b10 	ldr.w	r3, [r0, #2832]	; 0xb10
 800a74e:	f443 2300 	orr.w	r3, r3, #524288	; 0x80000
 800a752:	f8c0 3b10 	str.w	r3, [r0, #2832]	; 0xb10
  USBx_OUTEP(0U)->DOEPTSIZ |= (3U * 8U);
 800a756:	f8d0 3b10 	ldr.w	r3, [r0, #2832]	; 0xb10
 800a75a:	f043 0318 	orr.w	r3, r3, #24
 800a75e:	f8c0 3b10 	str.w	r3, [r0, #2832]	; 0xb10
  USBx_OUTEP(0U)->DOEPTSIZ |=  USB_OTG_DOEPTSIZ_STUPCNT;
 800a762:	f8d0 3b10 	ldr.w	r3, [r0, #2832]	; 0xb10
 800a766:	f043 43c0 	orr.w	r3, r3, #1610612736	; 0x60000000
 800a76a:	f8c0 3b10 	str.w	r3, [r0, #2832]	; 0xb10
}
 800a76e:	2000      	movs	r0, #0
 800a770:	4770      	bx	lr
 800a772:	bf00      	nop
 800a774:	4f54300a 	.word	0x4f54300a

0800a778 <aci_gap_init_IDB05A1>:

#define MIN(a,b)            ((a) < (b) )? (a) : (b)
#define MAX(a,b)            ((a) > (b) )? (a) : (b)

tBleStatus aci_gap_init_IDB05A1(uint8_t role, uint8_t privacy_enabled, uint8_t device_name_char_len, uint16_t* service_handle, uint16_t* dev_name_char_handle, uint16_t* appearance_char_handle)
{
 800a778:	b510      	push	{r4, lr}
 800a77a:	b08a      	sub	sp, #40	; 0x28
 800a77c:	461c      	mov	r4, r3
  struct hci_request rq;
  gap_init_cp_IDB05A1 cp;
  gap_init_rp resp;
 
  cp.role = role;
 800a77e:	f88d 000c 	strb.w	r0, [sp, #12]
  cp.privacy_enabled = privacy_enabled;
 800a782:	f88d 100d 	strb.w	r1, [sp, #13]
  cp.device_name_char_len = device_name_char_len;
 800a786:	f88d 200e 	strb.w	r2, [sp, #14]
    
  BLUENRG_memset(&resp, 0, sizeof(resp));
 800a78a:	2100      	movs	r1, #0
 800a78c:	9101      	str	r1, [sp, #4]
 800a78e:	f8cd 1007 	str.w	r1, [sp, #7]
  
  BLUENRG_memset(&rq, 0, sizeof(rq));
 800a792:	9104      	str	r1, [sp, #16]
 800a794:	9105      	str	r1, [sp, #20]
 800a796:	9106      	str	r1, [sp, #24]
 800a798:	9107      	str	r1, [sp, #28]
 800a79a:	9108      	str	r1, [sp, #32]
 800a79c:	9109      	str	r1, [sp, #36]	; 0x24
  rq.ogf = OGF_VENDOR_CMD;
 800a79e:	233f      	movs	r3, #63	; 0x3f
 800a7a0:	f8ad 3010 	strh.w	r3, [sp, #16]
  rq.ocf = OCF_GAP_INIT;
 800a7a4:	238a      	movs	r3, #138	; 0x8a
 800a7a6:	f8ad 3012 	strh.w	r3, [sp, #18]
  rq.cparam = &cp;
 800a7aa:	ab03      	add	r3, sp, #12
 800a7ac:	9306      	str	r3, [sp, #24]
  rq.clen = sizeof(cp);
 800a7ae:	2303      	movs	r3, #3
 800a7b0:	9307      	str	r3, [sp, #28]
  rq.rparam = &resp;
 800a7b2:	ab01      	add	r3, sp, #4
 800a7b4:	9308      	str	r3, [sp, #32]
  rq.rlen = GAP_INIT_RP_SIZE;
 800a7b6:	2307      	movs	r3, #7
 800a7b8:	9309      	str	r3, [sp, #36]	; 0x24
  
  if (hci_send_req(&rq, FALSE) < 0)
 800a7ba:	a804      	add	r0, sp, #16
 800a7bc:	f000 fbfe 	bl	800afbc <hci_send_req>
 800a7c0:	2800      	cmp	r0, #0
 800a7c2:	db0f      	blt.n	800a7e4 <aci_gap_init_IDB05A1+0x6c>
    return BLE_STATUS_TIMEOUT;
  
  if (resp.status) {
 800a7c4:	f89d 0004 	ldrb.w	r0, [sp, #4]
 800a7c8:	b950      	cbnz	r0, 800a7e0 <aci_gap_init_IDB05A1+0x68>
    return resp.status;
  }
  
  *service_handle = btohs(resp.service_handle);
 800a7ca:	f8bd 3005 	ldrh.w	r3, [sp, #5]
 800a7ce:	8023      	strh	r3, [r4, #0]
  *dev_name_char_handle = btohs(resp.dev_name_char_handle);
 800a7d0:	f8bd 2007 	ldrh.w	r2, [sp, #7]
 800a7d4:	9b0c      	ldr	r3, [sp, #48]	; 0x30
 800a7d6:	801a      	strh	r2, [r3, #0]
  *appearance_char_handle = btohs(resp.appearance_char_handle);
 800a7d8:	f8bd 2009 	ldrh.w	r2, [sp, #9]
 800a7dc:	9b0d      	ldr	r3, [sp, #52]	; 0x34
 800a7de:	801a      	strh	r2, [r3, #0]
  
  return 0;
}
 800a7e0:	b00a      	add	sp, #40	; 0x28
 800a7e2:	bd10      	pop	{r4, pc}
    return BLE_STATUS_TIMEOUT;
 800a7e4:	20ff      	movs	r0, #255	; 0xff
 800a7e6:	e7fb      	b.n	800a7e0 <aci_gap_init_IDB05A1+0x68>

0800a7e8 <aci_gap_set_discoverable>:

tBleStatus aci_gap_set_discoverable(uint8_t AdvType, uint16_t AdvIntervMin, uint16_t AdvIntervMax,
                             uint8_t OwnAddrType, uint8_t AdvFilterPolicy, uint8_t LocalNameLen,
                             const char *LocalName, uint8_t ServiceUUIDLen, uint8_t* ServiceUUIDList,
                             uint16_t SlaveConnIntervMin, uint16_t SlaveConnIntervMax)
{
 800a7e8:	b570      	push	{r4, r5, r6, lr}
 800a7ea:	b092      	sub	sp, #72	; 0x48
 800a7ec:	f89d 505c 	ldrb.w	r5, [sp, #92]	; 0x5c
 800a7f0:	f89d 4064 	ldrb.w	r4, [sp, #100]	; 0x64
  struct hci_request rq;
  uint8_t status;    
  uint8_t buffer[40];
  uint8_t indx = 0;
  
  if ((LocalNameLen+ServiceUUIDLen+14) > sizeof(buffer))
 800a7f4:	192e      	adds	r6, r5, r4
 800a7f6:	360e      	adds	r6, #14
 800a7f8:	2e28      	cmp	r6, #40	; 0x28
 800a7fa:	d851      	bhi.n	800a8a0 <aci_gap_set_discoverable+0xb8>
    return BLE_STATUS_INVALID_PARAMS;

  buffer[indx] = AdvType;
 800a7fc:	f88d 0004 	strb.w	r0, [sp, #4]
  indx++;
  
  AdvIntervMin = htobs(AdvIntervMin);
  BLUENRG_memcpy(buffer + indx, &AdvIntervMin, 2);
 800a800:	f8ad 1005 	strh.w	r1, [sp, #5]
  indx +=  2;
    
  AdvIntervMax = htobs(AdvIntervMax);
  BLUENRG_memcpy(buffer + indx, &AdvIntervMax, 2);
 800a804:	f8ad 2007 	strh.w	r2, [sp, #7]
  indx +=  2;
    
  buffer[indx] = OwnAddrType;
 800a808:	f88d 3009 	strb.w	r3, [sp, #9]
  indx++;
    
  buffer[indx] = AdvFilterPolicy;
 800a80c:	f89d 3058 	ldrb.w	r3, [sp, #88]	; 0x58
 800a810:	f88d 300a 	strb.w	r3, [sp, #10]
  indx++;
    
  buffer[indx] = LocalNameLen;
 800a814:	f88d 500b 	strb.w	r5, [sp, #11]
  indx++;
    
  BLUENRG_memcpy(buffer + indx, LocalName, LocalNameLen);
 800a818:	ae01      	add	r6, sp, #4
 800a81a:	462a      	mov	r2, r5
 800a81c:	9918      	ldr	r1, [sp, #96]	; 0x60
 800a81e:	a803      	add	r0, sp, #12
 800a820:	f002 ffda 	bl	800d7d8 <memcpy>
  indx +=  LocalNameLen;
 800a824:	f105 0308 	add.w	r3, r5, #8
  
  buffer[indx] = ServiceUUIDLen;
 800a828:	aa12      	add	r2, sp, #72	; 0x48
 800a82a:	fa52 f383 	uxtab	r3, r2, r3
 800a82e:	f803 4c44 	strb.w	r4, [r3, #-68]
  indx++;
 800a832:	3509      	adds	r5, #9
 800a834:	b2ed      	uxtb	r5, r5

  BLUENRG_memcpy(buffer + indx, ServiceUUIDList, ServiceUUIDLen);
 800a836:	4622      	mov	r2, r4
 800a838:	991a      	ldr	r1, [sp, #104]	; 0x68
 800a83a:	1970      	adds	r0, r6, r5
 800a83c:	f002 ffcc 	bl	800d7d8 <memcpy>
  indx +=  ServiceUUIDLen;  
 800a840:	442c      	add	r4, r5
 800a842:	b2e4      	uxtb	r4, r4

  SlaveConnIntervMin = htobs(SlaveConnIntervMin);
  BLUENRG_memcpy(buffer + indx, &SlaveConnIntervMin, 2);
 800a844:	f104 0348 	add.w	r3, r4, #72	; 0x48
 800a848:	446b      	add	r3, sp
 800a84a:	f8bd 206c 	ldrh.w	r2, [sp, #108]	; 0x6c
 800a84e:	f823 2c44 	strh.w	r2, [r3, #-68]
  indx +=  2;
 800a852:	1ca3      	adds	r3, r4, #2
  
  SlaveConnIntervMax = htobs(SlaveConnIntervMax);
  BLUENRG_memcpy(buffer + indx, &SlaveConnIntervMax, 2);
 800a854:	aa12      	add	r2, sp, #72	; 0x48
 800a856:	fa52 f383 	uxtab	r3, r2, r3
 800a85a:	f8bd 2070 	ldrh.w	r2, [sp, #112]	; 0x70
 800a85e:	f823 2c44 	strh.w	r2, [r3, #-68]
  indx +=  2;    
 800a862:	3404      	adds	r4, #4
 800a864:	b2e4      	uxtb	r4, r4

  BLUENRG_memset(&rq, 0, sizeof(rq));
 800a866:	2100      	movs	r1, #0
 800a868:	910c      	str	r1, [sp, #48]	; 0x30
 800a86a:	910d      	str	r1, [sp, #52]	; 0x34
 800a86c:	910e      	str	r1, [sp, #56]	; 0x38
 800a86e:	910f      	str	r1, [sp, #60]	; 0x3c
 800a870:	9110      	str	r1, [sp, #64]	; 0x40
 800a872:	9111      	str	r1, [sp, #68]	; 0x44
  rq.ogf = OGF_VENDOR_CMD;
 800a874:	233f      	movs	r3, #63	; 0x3f
 800a876:	f8ad 3030 	strh.w	r3, [sp, #48]	; 0x30
  rq.ocf = OCF_GAP_SET_DISCOVERABLE;
 800a87a:	2383      	movs	r3, #131	; 0x83
 800a87c:	f8ad 3032 	strh.w	r3, [sp, #50]	; 0x32
  rq.cparam = (void *)buffer;
 800a880:	960e      	str	r6, [sp, #56]	; 0x38
  rq.clen = indx;
 800a882:	940f      	str	r4, [sp, #60]	; 0x3c
  rq.rparam = &status;
 800a884:	f10d 032f 	add.w	r3, sp, #47	; 0x2f
 800a888:	9310      	str	r3, [sp, #64]	; 0x40
  rq.rlen = 1;
 800a88a:	2301      	movs	r3, #1
 800a88c:	9311      	str	r3, [sp, #68]	; 0x44

  if (hci_send_req(&rq, FALSE) < 0)
 800a88e:	a80c      	add	r0, sp, #48	; 0x30
 800a890:	f000 fb94 	bl	800afbc <hci_send_req>
 800a894:	2800      	cmp	r0, #0
 800a896:	db05      	blt.n	800a8a4 <aci_gap_set_discoverable+0xbc>
    return BLE_STATUS_TIMEOUT;

  if (status) {
 800a898:	f89d 002f 	ldrb.w	r0, [sp, #47]	; 0x2f
    return status;
  }

  return 0;
}
 800a89c:	b012      	add	sp, #72	; 0x48
 800a89e:	bd70      	pop	{r4, r5, r6, pc}
    return BLE_STATUS_INVALID_PARAMS;
 800a8a0:	2042      	movs	r0, #66	; 0x42
 800a8a2:	e7fb      	b.n	800a89c <aci_gap_set_discoverable+0xb4>
    return BLE_STATUS_TIMEOUT;
 800a8a4:	20ff      	movs	r0, #255	; 0xff
 800a8a6:	e7f9      	b.n	800a89c <aci_gap_set_discoverable+0xb4>

0800a8a8 <aci_gap_set_auth_requirement>:
                                        uint8_t min_encryption_key_size,
                                        uint8_t max_encryption_key_size,
                                        uint8_t use_fixed_pin,
                                        uint32_t fixed_pin,
                                        uint8_t bonding_mode)
{
 800a8a8:	b500      	push	{lr}
 800a8aa:	b08f      	sub	sp, #60	; 0x3c
  struct hci_request rq;
  gap_set_auth_requirement_cp cp;    
  uint8_t status;
    
  cp.mitm_mode = mitm_mode;
 800a8ac:	f88d 0004 	strb.w	r0, [sp, #4]
  cp.oob_enable = oob_enable;
 800a8b0:	f88d 1005 	strb.w	r1, [sp, #5]
  /* FIX: check on oob_enable introduced to fix issue in projects for Cortex-M33 */
  if (oob_enable) {
 800a8b4:	b161      	cbz	r1, 800a8d0 <aci_gap_set_auth_requirement+0x28>
    BLUENRG_memcpy(cp.oob_data, oob_data, 16);
 800a8b6:	f8d2 c000 	ldr.w	ip, [r2]
 800a8ba:	6850      	ldr	r0, [r2, #4]
 800a8bc:	6891      	ldr	r1, [r2, #8]
 800a8be:	68d2      	ldr	r2, [r2, #12]
 800a8c0:	f8cd c006 	str.w	ip, [sp, #6]
 800a8c4:	f8cd 000a 	str.w	r0, [sp, #10]
 800a8c8:	f8cd 100e 	str.w	r1, [sp, #14]
 800a8cc:	f8cd 2012 	str.w	r2, [sp, #18]
  }
  cp.min_encryption_key_size = min_encryption_key_size;
 800a8d0:	f88d 3016 	strb.w	r3, [sp, #22]
  cp.max_encryption_key_size = max_encryption_key_size;
 800a8d4:	f89d 3040 	ldrb.w	r3, [sp, #64]	; 0x40
 800a8d8:	f88d 3017 	strb.w	r3, [sp, #23]
  cp.use_fixed_pin = use_fixed_pin;
 800a8dc:	f89d 3044 	ldrb.w	r3, [sp, #68]	; 0x44
 800a8e0:	f88d 3018 	strb.w	r3, [sp, #24]
  cp.fixed_pin = htobl(fixed_pin);
 800a8e4:	9b12      	ldr	r3, [sp, #72]	; 0x48
 800a8e6:	f8cd 3019 	str.w	r3, [sp, #25]
  cp.bonding_mode = bonding_mode;
 800a8ea:	f89d 304c 	ldrb.w	r3, [sp, #76]	; 0x4c
 800a8ee:	f88d 301d 	strb.w	r3, [sp, #29]

  BLUENRG_memset(&rq, 0, sizeof(rq));
 800a8f2:	2100      	movs	r1, #0
 800a8f4:	9108      	str	r1, [sp, #32]
 800a8f6:	9109      	str	r1, [sp, #36]	; 0x24
 800a8f8:	910a      	str	r1, [sp, #40]	; 0x28
 800a8fa:	910b      	str	r1, [sp, #44]	; 0x2c
 800a8fc:	910c      	str	r1, [sp, #48]	; 0x30
 800a8fe:	910d      	str	r1, [sp, #52]	; 0x34
  rq.ogf = OGF_VENDOR_CMD;
 800a900:	233f      	movs	r3, #63	; 0x3f
 800a902:	f8ad 3020 	strh.w	r3, [sp, #32]
  rq.ocf = OCF_GAP_SET_AUTH_REQUIREMENT;
 800a906:	2386      	movs	r3, #134	; 0x86
 800a908:	f8ad 3022 	strh.w	r3, [sp, #34]	; 0x22
  rq.cparam = &cp;
 800a90c:	ab01      	add	r3, sp, #4
 800a90e:	930a      	str	r3, [sp, #40]	; 0x28
  rq.clen = sizeof(cp);
 800a910:	231a      	movs	r3, #26
 800a912:	930b      	str	r3, [sp, #44]	; 0x2c
  rq.rparam = &status;
 800a914:	f10d 0303 	add.w	r3, sp, #3
 800a918:	930c      	str	r3, [sp, #48]	; 0x30
  rq.rlen = 1;
 800a91a:	2301      	movs	r3, #1
 800a91c:	930d      	str	r3, [sp, #52]	; 0x34

  if (hci_send_req(&rq, FALSE) < 0)
 800a91e:	a808      	add	r0, sp, #32
 800a920:	f000 fb4c 	bl	800afbc <hci_send_req>
 800a924:	2800      	cmp	r0, #0
 800a926:	db04      	blt.n	800a932 <aci_gap_set_auth_requirement+0x8a>
    return BLE_STATUS_TIMEOUT;

  if (status) {
 800a928:	f89d 0003 	ldrb.w	r0, [sp, #3]
    return status;
  }
    
  return 0;
}
 800a92c:	b00f      	add	sp, #60	; 0x3c
 800a92e:	f85d fb04 	ldr.w	pc, [sp], #4
    return BLE_STATUS_TIMEOUT;
 800a932:	20ff      	movs	r0, #255	; 0xff
 800a934:	e7fa      	b.n	800a92c <aci_gap_set_auth_requirement+0x84>

0800a936 <aci_gap_update_adv_data>:
  struct hci_request rq;
  uint8_t status;
  uint8_t buffer[32];
  uint8_t indx = 0;
    
  if (AdvLen > (sizeof(buffer)-1))
 800a936:	281f      	cmp	r0, #31
 800a938:	d829      	bhi.n	800a98e <aci_gap_update_adv_data+0x58>
{
 800a93a:	b510      	push	{r4, lr}
 800a93c:	b090      	sub	sp, #64	; 0x40
 800a93e:	4604      	mov	r4, r0
    return BLE_STATUS_INVALID_PARAMS;

  buffer[indx] = AdvLen;
 800a940:	f88d 0004 	strb.w	r0, [sp, #4]
  indx++;
    
  BLUENRG_memcpy(buffer + indx, AdvData, AdvLen);
 800a944:	4602      	mov	r2, r0
 800a946:	f10d 0005 	add.w	r0, sp, #5
 800a94a:	f002 ff45 	bl	800d7d8 <memcpy>
  indx +=  AdvLen;
 800a94e:	3401      	adds	r4, #1
 800a950:	b2e4      	uxtb	r4, r4
    
  BLUENRG_memset(&rq, 0, sizeof(rq));
 800a952:	2100      	movs	r1, #0
 800a954:	910a      	str	r1, [sp, #40]	; 0x28
 800a956:	910b      	str	r1, [sp, #44]	; 0x2c
 800a958:	910c      	str	r1, [sp, #48]	; 0x30
 800a95a:	910d      	str	r1, [sp, #52]	; 0x34
 800a95c:	910e      	str	r1, [sp, #56]	; 0x38
 800a95e:	910f      	str	r1, [sp, #60]	; 0x3c
  rq.ogf = OGF_VENDOR_CMD;
 800a960:	233f      	movs	r3, #63	; 0x3f
 800a962:	f8ad 3028 	strh.w	r3, [sp, #40]	; 0x28
  rq.ocf = OCF_GAP_UPDATE_ADV_DATA;
 800a966:	238e      	movs	r3, #142	; 0x8e
 800a968:	f8ad 302a 	strh.w	r3, [sp, #42]	; 0x2a
  rq.cparam = (void *)buffer;
 800a96c:	ab01      	add	r3, sp, #4
 800a96e:	930c      	str	r3, [sp, #48]	; 0x30
  rq.clen = indx;
 800a970:	940d      	str	r4, [sp, #52]	; 0x34
  rq.rparam = &status;
 800a972:	f10d 0327 	add.w	r3, sp, #39	; 0x27
 800a976:	930e      	str	r3, [sp, #56]	; 0x38
  rq.rlen = 1;
 800a978:	2301      	movs	r3, #1
 800a97a:	930f      	str	r3, [sp, #60]	; 0x3c
    
  if (hci_send_req(&rq, FALSE) < 0)
 800a97c:	a80a      	add	r0, sp, #40	; 0x28
 800a97e:	f000 fb1d 	bl	800afbc <hci_send_req>
 800a982:	2800      	cmp	r0, #0
 800a984:	db05      	blt.n	800a992 <aci_gap_update_adv_data+0x5c>
    return BLE_STATUS_TIMEOUT;
    
  return status;
 800a986:	f89d 0027 	ldrb.w	r0, [sp, #39]	; 0x27
}
 800a98a:	b010      	add	sp, #64	; 0x40
 800a98c:	bd10      	pop	{r4, pc}
    return BLE_STATUS_INVALID_PARAMS;
 800a98e:	2042      	movs	r0, #66	; 0x42
}
 800a990:	4770      	bx	lr
    return BLE_STATUS_TIMEOUT;
 800a992:	20ff      	movs	r0, #255	; 0xff
 800a994:	e7f9      	b.n	800a98a <aci_gap_update_adv_data+0x54>

0800a996 <aci_gatt_init>:
#define MIN(a,b)            ((a) < (b) )? (a) : (b)
#define MAX(a,b)            ((a) > (b) )? (a) : (b)


tBleStatus aci_gatt_init(void)
{
 800a996:	b500      	push	{lr}
 800a998:	b089      	sub	sp, #36	; 0x24
  struct hci_request rq;
  uint8_t status;

  BLUENRG_memset(&rq, 0, sizeof(rq));
 800a99a:	2100      	movs	r1, #0
 800a99c:	9102      	str	r1, [sp, #8]
 800a99e:	9103      	str	r1, [sp, #12]
 800a9a0:	9104      	str	r1, [sp, #16]
 800a9a2:	9105      	str	r1, [sp, #20]
 800a9a4:	9106      	str	r1, [sp, #24]
 800a9a6:	9107      	str	r1, [sp, #28]
  rq.ogf = OGF_VENDOR_CMD;
 800a9a8:	233f      	movs	r3, #63	; 0x3f
 800a9aa:	f8ad 3008 	strh.w	r3, [sp, #8]
  rq.ocf = OCF_GATT_INIT;
 800a9ae:	f240 1301 	movw	r3, #257	; 0x101
 800a9b2:	f8ad 300a 	strh.w	r3, [sp, #10]
  rq.rparam = &status;
 800a9b6:	f10d 0307 	add.w	r3, sp, #7
 800a9ba:	9306      	str	r3, [sp, #24]
  rq.rlen = 1;
 800a9bc:	2301      	movs	r3, #1
 800a9be:	9307      	str	r3, [sp, #28]

  if (hci_send_req(&rq, FALSE) < 0)
 800a9c0:	a802      	add	r0, sp, #8
 800a9c2:	f000 fafb 	bl	800afbc <hci_send_req>
 800a9c6:	2800      	cmp	r0, #0
 800a9c8:	db04      	blt.n	800a9d4 <aci_gatt_init+0x3e>
    return BLE_STATUS_TIMEOUT;

  return status;
 800a9ca:	f89d 0007 	ldrb.w	r0, [sp, #7]
}
 800a9ce:	b009      	add	sp, #36	; 0x24
 800a9d0:	f85d fb04 	ldr.w	pc, [sp], #4
    return BLE_STATUS_TIMEOUT;
 800a9d4:	20ff      	movs	r0, #255	; 0xff
 800a9d6:	e7fa      	b.n	800a9ce <aci_gatt_init+0x38>

0800a9d8 <aci_gatt_add_serv>:

tBleStatus aci_gatt_add_serv(uint8_t service_uuid_type, const uint8_t* service_uuid, uint8_t service_type, uint8_t max_attr_records, uint16_t *serviceHandle)
{
 800a9d8:	b570      	push	{r4, r5, r6, lr}
 800a9da:	b08c      	sub	sp, #48	; 0x30
 800a9dc:	4616      	mov	r6, r2
 800a9de:	461d      	mov	r5, r3
  gatt_add_serv_rp resp;    
  uint8_t buffer[19];
  uint8_t uuid_len;
  uint8_t indx = 0;
    
  buffer[indx] = service_uuid_type;
 800a9e0:	f88d 0000 	strb.w	r0, [sp]
  indx++;
    
  if(service_uuid_type == UUID_TYPE_16){
 800a9e4:	2801      	cmp	r0, #1
 800a9e6:	d038      	beq.n	800aa5a <aci_gatt_add_serv+0x82>
    uuid_len = 2;
  }
  else {
    uuid_len = 16;
 800a9e8:	2410      	movs	r4, #16
  }        
  BLUENRG_memcpy(buffer + indx, service_uuid, uuid_len);
 800a9ea:	4622      	mov	r2, r4
 800a9ec:	f10d 0001 	add.w	r0, sp, #1
 800a9f0:	f002 fef2 	bl	800d7d8 <memcpy>
  indx +=  uuid_len;
    
  buffer[indx] = service_type;
 800a9f4:	f104 0331 	add.w	r3, r4, #49	; 0x31
 800a9f8:	446b      	add	r3, sp
 800a9fa:	f803 6c30 	strb.w	r6, [r3, #-48]
  indx++;
    
  buffer[indx] = max_attr_records;
 800a9fe:	f104 0332 	add.w	r3, r4, #50	; 0x32
 800aa02:	eb0d 0203 	add.w	r2, sp, r3
 800aa06:	f802 5c30 	strb.w	r5, [r2, #-48]
  indx++;
 800aa0a:	3403      	adds	r4, #3
    
    
  BLUENRG_memset(&resp, 0, sizeof(resp));
 800aa0c:	ab05      	add	r3, sp, #20
 800aa0e:	2100      	movs	r1, #0
 800aa10:	f8ad 1014 	strh.w	r1, [sp, #20]
 800aa14:	f88d 1016 	strb.w	r1, [sp, #22]

  BLUENRG_memset(&rq, 0, sizeof(rq));
 800aa18:	9106      	str	r1, [sp, #24]
 800aa1a:	9107      	str	r1, [sp, #28]
 800aa1c:	9108      	str	r1, [sp, #32]
 800aa1e:	9109      	str	r1, [sp, #36]	; 0x24
 800aa20:	910a      	str	r1, [sp, #40]	; 0x28
 800aa22:	910b      	str	r1, [sp, #44]	; 0x2c
  rq.ogf = OGF_VENDOR_CMD;
 800aa24:	223f      	movs	r2, #63	; 0x3f
 800aa26:	f8ad 2018 	strh.w	r2, [sp, #24]
  rq.ocf = OCF_GATT_ADD_SERV;
 800aa2a:	f44f 7281 	mov.w	r2, #258	; 0x102
 800aa2e:	f8ad 201a 	strh.w	r2, [sp, #26]
  rq.cparam = (void *)buffer;
 800aa32:	f8cd d020 	str.w	sp, [sp, #32]
  rq.clen = indx;
 800aa36:	9409      	str	r4, [sp, #36]	; 0x24
  rq.rparam = &resp;
 800aa38:	930a      	str	r3, [sp, #40]	; 0x28
  rq.rlen = GATT_ADD_SERV_RP_SIZE;
 800aa3a:	2303      	movs	r3, #3
 800aa3c:	930b      	str	r3, [sp, #44]	; 0x2c

  if (hci_send_req(&rq, FALSE) < 0)
 800aa3e:	a806      	add	r0, sp, #24
 800aa40:	f000 fabc 	bl	800afbc <hci_send_req>
 800aa44:	2800      	cmp	r0, #0
 800aa46:	db0a      	blt.n	800aa5e <aci_gatt_add_serv+0x86>
    return BLE_STATUS_TIMEOUT;

  if (resp.status) {
 800aa48:	f89d 0014 	ldrb.w	r0, [sp, #20]
 800aa4c:	b918      	cbnz	r0, 800aa56 <aci_gatt_add_serv+0x7e>
    return resp.status;
  }
    
  *serviceHandle = btohs(resp.handle);
 800aa4e:	f8bd 2015 	ldrh.w	r2, [sp, #21]
 800aa52:	9b10      	ldr	r3, [sp, #64]	; 0x40
 800aa54:	801a      	strh	r2, [r3, #0]

  return 0;
}
 800aa56:	b00c      	add	sp, #48	; 0x30
 800aa58:	bd70      	pop	{r4, r5, r6, pc}
    uuid_len = 2;
 800aa5a:	2402      	movs	r4, #2
 800aa5c:	e7c5      	b.n	800a9ea <aci_gatt_add_serv+0x12>
    return BLE_STATUS_TIMEOUT;
 800aa5e:	20ff      	movs	r0, #255	; 0xff
 800aa60:	e7f9      	b.n	800aa56 <aci_gatt_add_serv+0x7e>

0800aa62 <aci_gatt_add_char>:
			     uint8_t secPermissions,
			     uint8_t gattEvtMask,
			     uint8_t encryKeySize,
			     uint8_t isVariable,
			     uint16_t* charHandle)                     
{
 800aa62:	b530      	push	{r4, r5, lr}
 800aa64:	b08f      	sub	sp, #60	; 0x3c
 800aa66:	460c      	mov	r4, r1
 800aa68:	4611      	mov	r1, r2
 800aa6a:	461d      	mov	r5, r3
  uint8_t buffer[25];
  uint8_t uuid_len;
  uint8_t indx = 0;
    
  serviceHandle = htobs(serviceHandle);
  BLUENRG_memcpy(buffer + indx, &serviceHandle, 2);
 800aa6c:	f8ad 0000 	strh.w	r0, [sp]
  indx += 2;
    
  buffer[indx] = charUuidType;
 800aa70:	f88d 4002 	strb.w	r4, [sp, #2]
  indx++;
    
  if(charUuidType == UUID_TYPE_16){
 800aa74:	2c01      	cmp	r4, #1
 800aa76:	d056      	beq.n	800ab26 <aci_gatt_add_char+0xc4>
    uuid_len = 2;
  }
  else {
    uuid_len = 16;
 800aa78:	2410      	movs	r4, #16
  }        
  BLUENRG_memcpy(buffer + indx, charUuid, uuid_len);
 800aa7a:	4622      	mov	r2, r4
 800aa7c:	f10d 0003 	add.w	r0, sp, #3
 800aa80:	f002 feaa 	bl	800d7d8 <memcpy>
  indx +=  uuid_len;
    
  buffer[indx] = charValueLen;
 800aa84:	f104 033b 	add.w	r3, r4, #59	; 0x3b
 800aa88:	eb0d 0203 	add.w	r2, sp, r3
 800aa8c:	f802 5c38 	strb.w	r5, [r2, #-56]
  indx++;
    
  buffer[indx] = charProperties;
 800aa90:	f104 033c 	add.w	r3, r4, #60	; 0x3c
 800aa94:	446b      	add	r3, sp
 800aa96:	f89d 2048 	ldrb.w	r2, [sp, #72]	; 0x48
 800aa9a:	f803 2c38 	strb.w	r2, [r3, #-56]
  indx++;
    
  buffer[indx] = secPermissions;
 800aa9e:	f104 033d 	add.w	r3, r4, #61	; 0x3d
 800aaa2:	446b      	add	r3, sp
 800aaa4:	f89d 204c 	ldrb.w	r2, [sp, #76]	; 0x4c
 800aaa8:	f803 2c38 	strb.w	r2, [r3, #-56]
  indx++;
    
  buffer[indx] = gattEvtMask;
 800aaac:	f104 033e 	add.w	r3, r4, #62	; 0x3e
 800aab0:	446b      	add	r3, sp
 800aab2:	f89d 2050 	ldrb.w	r2, [sp, #80]	; 0x50
 800aab6:	f803 2c38 	strb.w	r2, [r3, #-56]
  indx++;
    
  buffer[indx] = encryKeySize;
 800aaba:	f104 033f 	add.w	r3, r4, #63	; 0x3f
 800aabe:	446b      	add	r3, sp
 800aac0:	f89d 2054 	ldrb.w	r2, [sp, #84]	; 0x54
 800aac4:	f803 2c38 	strb.w	r2, [r3, #-56]
  indx++;
    
  buffer[indx] = isVariable;
 800aac8:	f104 0340 	add.w	r3, r4, #64	; 0x40
 800aacc:	446b      	add	r3, sp
 800aace:	f89d 2058 	ldrb.w	r2, [sp, #88]	; 0x58
 800aad2:	f803 2c38 	strb.w	r2, [r3, #-56]
  indx++;
 800aad6:	3409      	adds	r4, #9
    
  BLUENRG_memset(&resp, 0, sizeof(resp));
 800aad8:	ab07      	add	r3, sp, #28
 800aada:	2100      	movs	r1, #0
 800aadc:	f8ad 101c 	strh.w	r1, [sp, #28]
 800aae0:	f88d 101e 	strb.w	r1, [sp, #30]

  BLUENRG_memset(&rq, 0, sizeof(rq));
 800aae4:	9108      	str	r1, [sp, #32]
 800aae6:	9109      	str	r1, [sp, #36]	; 0x24
 800aae8:	910a      	str	r1, [sp, #40]	; 0x28
 800aaea:	910b      	str	r1, [sp, #44]	; 0x2c
 800aaec:	910c      	str	r1, [sp, #48]	; 0x30
 800aaee:	910d      	str	r1, [sp, #52]	; 0x34
  rq.ogf = OGF_VENDOR_CMD;
 800aaf0:	223f      	movs	r2, #63	; 0x3f
 800aaf2:	f8ad 2020 	strh.w	r2, [sp, #32]
  rq.ocf = OCF_GATT_ADD_CHAR;
 800aaf6:	f44f 7282 	mov.w	r2, #260	; 0x104
 800aafa:	f8ad 2022 	strh.w	r2, [sp, #34]	; 0x22
  rq.cparam = (void *)buffer;
 800aafe:	f8cd d028 	str.w	sp, [sp, #40]	; 0x28
  rq.clen = indx;
 800ab02:	940b      	str	r4, [sp, #44]	; 0x2c
  rq.rparam = &resp;
 800ab04:	930c      	str	r3, [sp, #48]	; 0x30
  rq.rlen = GATT_ADD_CHAR_RP_SIZE;
 800ab06:	2303      	movs	r3, #3
 800ab08:	930d      	str	r3, [sp, #52]	; 0x34

  if (hci_send_req(&rq, FALSE) < 0)
 800ab0a:	a808      	add	r0, sp, #32
 800ab0c:	f000 fa56 	bl	800afbc <hci_send_req>
 800ab10:	2800      	cmp	r0, #0
 800ab12:	db0a      	blt.n	800ab2a <aci_gatt_add_char+0xc8>
    return BLE_STATUS_TIMEOUT;

  if (resp.status) {
 800ab14:	f89d 001c 	ldrb.w	r0, [sp, #28]
 800ab18:	b918      	cbnz	r0, 800ab22 <aci_gatt_add_char+0xc0>
    return resp.status;
  }
    
  *charHandle = btohs(resp.handle);
 800ab1a:	f8bd 201d 	ldrh.w	r2, [sp, #29]
 800ab1e:	9b17      	ldr	r3, [sp, #92]	; 0x5c
 800ab20:	801a      	strh	r2, [r3, #0]

  return 0;
}
 800ab22:	b00f      	add	sp, #60	; 0x3c
 800ab24:	bd30      	pop	{r4, r5, pc}
    uuid_len = 2;
 800ab26:	2402      	movs	r4, #2
 800ab28:	e7a7      	b.n	800aa7a <aci_gatt_add_char+0x18>
    return BLE_STATUS_TIMEOUT;
 800ab2a:	20ff      	movs	r0, #255	; 0xff
 800ab2c:	e7f9      	b.n	800ab22 <aci_gatt_add_char+0xc0>

0800ab2e <aci_gatt_update_char_value>:
  struct hci_request rq;
  uint8_t status;
  uint8_t buffer[HCI_MAX_PAYLOAD_SIZE];
  uint8_t indx = 0;
    
  if ((charValueLen+6) > HCI_MAX_PAYLOAD_SIZE)
 800ab2e:	2b7a      	cmp	r3, #122	; 0x7a
 800ab30:	d831      	bhi.n	800ab96 <aci_gatt_update_char_value+0x68>
{
 800ab32:	b510      	push	{r4, lr}
 800ab34:	b0a8      	sub	sp, #160	; 0xa0
 800ab36:	461c      	mov	r4, r3
    return BLE_STATUS_INVALID_PARAMS;

  servHandle = htobs(servHandle);
  BLUENRG_memcpy(buffer + indx, &servHandle, 2);
 800ab38:	f8ad 0004 	strh.w	r0, [sp, #4]
  indx += 2;
    
  charHandle = htobs(charHandle);
  BLUENRG_memcpy(buffer + indx, &charHandle, 2);
 800ab3c:	f8ad 1006 	strh.w	r1, [sp, #6]
  indx += 2;
    
  buffer[indx] = charValOffset;
 800ab40:	f88d 2008 	strb.w	r2, [sp, #8]
  indx++;
    
  buffer[indx] = charValueLen;
 800ab44:	f88d 3009 	strb.w	r3, [sp, #9]
  indx++;
        
  BLUENRG_memcpy(buffer + indx, charValue, charValueLen);
 800ab48:	461a      	mov	r2, r3
 800ab4a:	992a      	ldr	r1, [sp, #168]	; 0xa8
 800ab4c:	f10d 000a 	add.w	r0, sp, #10
 800ab50:	f002 fe42 	bl	800d7d8 <memcpy>
  indx +=  charValueLen;
 800ab54:	3406      	adds	r4, #6
 800ab56:	b2e4      	uxtb	r4, r4

  BLUENRG_memset(&rq, 0, sizeof(rq));
 800ab58:	2100      	movs	r1, #0
 800ab5a:	9122      	str	r1, [sp, #136]	; 0x88
 800ab5c:	9123      	str	r1, [sp, #140]	; 0x8c
 800ab5e:	9124      	str	r1, [sp, #144]	; 0x90
 800ab60:	9125      	str	r1, [sp, #148]	; 0x94
 800ab62:	9126      	str	r1, [sp, #152]	; 0x98
 800ab64:	9127      	str	r1, [sp, #156]	; 0x9c
  rq.ogf = OGF_VENDOR_CMD;
 800ab66:	233f      	movs	r3, #63	; 0x3f
 800ab68:	f8ad 3088 	strh.w	r3, [sp, #136]	; 0x88
  rq.ocf = OCF_GATT_UPD_CHAR_VAL;
 800ab6c:	f44f 7383 	mov.w	r3, #262	; 0x106
 800ab70:	f8ad 308a 	strh.w	r3, [sp, #138]	; 0x8a
  rq.cparam = (void *)buffer;
 800ab74:	ab01      	add	r3, sp, #4
 800ab76:	9324      	str	r3, [sp, #144]	; 0x90
  rq.clen = indx;
 800ab78:	9425      	str	r4, [sp, #148]	; 0x94
  rq.rparam = &status;
 800ab7a:	f10d 0387 	add.w	r3, sp, #135	; 0x87
 800ab7e:	9326      	str	r3, [sp, #152]	; 0x98
  rq.rlen = 1;
 800ab80:	2301      	movs	r3, #1
 800ab82:	9327      	str	r3, [sp, #156]	; 0x9c

  if (hci_send_req(&rq, FALSE) < 0)
 800ab84:	a822      	add	r0, sp, #136	; 0x88
 800ab86:	f000 fa19 	bl	800afbc <hci_send_req>
 800ab8a:	2800      	cmp	r0, #0
 800ab8c:	db05      	blt.n	800ab9a <aci_gatt_update_char_value+0x6c>
    return BLE_STATUS_TIMEOUT;

  if (status) {
 800ab8e:	f89d 0087 	ldrb.w	r0, [sp, #135]	; 0x87
    return status;
  }

  return 0;
}
 800ab92:	b028      	add	sp, #160	; 0xa0
 800ab94:	bd10      	pop	{r4, pc}
    return BLE_STATUS_INVALID_PARAMS;
 800ab96:	2042      	movs	r0, #66	; 0x42
}
 800ab98:	4770      	bx	lr
    return BLE_STATUS_TIMEOUT;
 800ab9a:	20ff      	movs	r0, #255	; 0xff
 800ab9c:	e7f9      	b.n	800ab92 <aci_gatt_update_char_value+0x64>

0800ab9e <aci_gatt_allow_read>:

  return 0;
}

tBleStatus aci_gatt_allow_read(uint16_t conn_handle)
{
 800ab9e:	b500      	push	{lr}
 800aba0:	b089      	sub	sp, #36	; 0x24
    struct hci_request rq;
    gatt_allow_read_cp cp;
    uint8_t status;
    
    cp.conn_handle = htobs(conn_handle);
 800aba2:	f8ad 0004 	strh.w	r0, [sp, #4]

    BLUENRG_memset(&rq, 0, sizeof(rq));
 800aba6:	2100      	movs	r1, #0
 800aba8:	9102      	str	r1, [sp, #8]
 800abaa:	9103      	str	r1, [sp, #12]
 800abac:	9104      	str	r1, [sp, #16]
 800abae:	9105      	str	r1, [sp, #20]
 800abb0:	9106      	str	r1, [sp, #24]
 800abb2:	9107      	str	r1, [sp, #28]
    rq.ogf = OGF_VENDOR_CMD;
 800abb4:	233f      	movs	r3, #63	; 0x3f
 800abb6:	f8ad 3008 	strh.w	r3, [sp, #8]
    rq.ocf = OCF_GATT_ALLOW_READ;
 800abba:	f240 1327 	movw	r3, #295	; 0x127
 800abbe:	f8ad 300a 	strh.w	r3, [sp, #10]
    rq.cparam = &cp;
 800abc2:	ab01      	add	r3, sp, #4
 800abc4:	9304      	str	r3, [sp, #16]
    rq.clen = GATT_ALLOW_READ_CP_SIZE;
 800abc6:	2302      	movs	r3, #2
 800abc8:	9305      	str	r3, [sp, #20]
    rq.rparam = &status;
 800abca:	f10d 0303 	add.w	r3, sp, #3
 800abce:	9306      	str	r3, [sp, #24]
    rq.rlen = 1;
 800abd0:	2301      	movs	r3, #1
 800abd2:	9307      	str	r3, [sp, #28]

    if (hci_send_req(&rq, FALSE) < 0)
 800abd4:	a802      	add	r0, sp, #8
 800abd6:	f000 f9f1 	bl	800afbc <hci_send_req>
 800abda:	2800      	cmp	r0, #0
 800abdc:	db04      	blt.n	800abe8 <aci_gatt_allow_read+0x4a>
      return BLE_STATUS_TIMEOUT;

    return status;
 800abde:	f89d 0003 	ldrb.w	r0, [sp, #3]
}
 800abe2:	b009      	add	sp, #36	; 0x24
 800abe4:	f85d fb04 	ldr.w	pc, [sp], #4
      return BLE_STATUS_TIMEOUT;
 800abe8:	20ff      	movs	r0, #255	; 0xff
 800abea:	e7fa      	b.n	800abe2 <aci_gatt_allow_read+0x44>

0800abec <aci_hal_write_config_data>:
}

tBleStatus aci_hal_write_config_data(uint8_t offset, 
                                    uint8_t len,
                                    const uint8_t *val)
{
 800abec:	b510      	push	{r4, lr}
 800abee:	b0a8      	sub	sp, #160	; 0xa0
 800abf0:	460c      	mov	r4, r1
  struct hci_request rq;
  uint8_t status;
  uint8_t buffer[HCI_MAX_PAYLOAD_SIZE];
  uint8_t indx = 0;
    
  if ((len+2) > HCI_MAX_PAYLOAD_SIZE)
 800abf2:	297e      	cmp	r1, #126	; 0x7e
 800abf4:	d829      	bhi.n	800ac4a <aci_hal_write_config_data+0x5e>
 800abf6:	4611      	mov	r1, r2
    return BLE_STATUS_INVALID_PARAMS;

  buffer[indx] = offset;
 800abf8:	f88d 0004 	strb.w	r0, [sp, #4]
  indx++;
    
  buffer[indx] = len;
 800abfc:	f88d 4005 	strb.w	r4, [sp, #5]
  indx++;
        
  BLUENRG_memcpy(buffer + indx, val, len);
 800ac00:	4622      	mov	r2, r4
 800ac02:	f10d 0006 	add.w	r0, sp, #6
 800ac06:	f002 fde7 	bl	800d7d8 <memcpy>
  indx +=  len;
 800ac0a:	3402      	adds	r4, #2
 800ac0c:	b2e4      	uxtb	r4, r4

  BLUENRG_memset(&rq, 0, sizeof(rq));
 800ac0e:	2100      	movs	r1, #0
 800ac10:	9122      	str	r1, [sp, #136]	; 0x88
 800ac12:	9123      	str	r1, [sp, #140]	; 0x8c
 800ac14:	9124      	str	r1, [sp, #144]	; 0x90
 800ac16:	9125      	str	r1, [sp, #148]	; 0x94
 800ac18:	9126      	str	r1, [sp, #152]	; 0x98
 800ac1a:	9127      	str	r1, [sp, #156]	; 0x9c
  rq.ogf = OGF_VENDOR_CMD;
 800ac1c:	233f      	movs	r3, #63	; 0x3f
 800ac1e:	f8ad 3088 	strh.w	r3, [sp, #136]	; 0x88
  rq.ocf = OCF_HAL_WRITE_CONFIG_DATA;
 800ac22:	230c      	movs	r3, #12
 800ac24:	f8ad 308a 	strh.w	r3, [sp, #138]	; 0x8a
  rq.cparam = (void *)buffer;
 800ac28:	ab01      	add	r3, sp, #4
 800ac2a:	9324      	str	r3, [sp, #144]	; 0x90
  rq.clen = indx;
 800ac2c:	9425      	str	r4, [sp, #148]	; 0x94
  rq.rparam = &status;
 800ac2e:	f10d 0387 	add.w	r3, sp, #135	; 0x87
 800ac32:	9326      	str	r3, [sp, #152]	; 0x98
  rq.rlen = 1;
 800ac34:	2301      	movs	r3, #1
 800ac36:	9327      	str	r3, [sp, #156]	; 0x9c

  if (hci_send_req(&rq, FALSE) < 0)
 800ac38:	a822      	add	r0, sp, #136	; 0x88
 800ac3a:	f000 f9bf 	bl	800afbc <hci_send_req>
 800ac3e:	2800      	cmp	r0, #0
 800ac40:	db05      	blt.n	800ac4e <aci_hal_write_config_data+0x62>
    return BLE_STATUS_TIMEOUT;

  return status;
 800ac42:	f89d 0087 	ldrb.w	r0, [sp, #135]	; 0x87
}
 800ac46:	b028      	add	sp, #160	; 0xa0
 800ac48:	bd10      	pop	{r4, pc}
    return BLE_STATUS_INVALID_PARAMS;
 800ac4a:	2042      	movs	r0, #66	; 0x42
 800ac4c:	e7fb      	b.n	800ac46 <aci_hal_write_config_data+0x5a>
    return BLE_STATUS_TIMEOUT;
 800ac4e:	20ff      	movs	r0, #255	; 0xff
 800ac50:	e7f9      	b.n	800ac46 <aci_hal_write_config_data+0x5a>

0800ac52 <aci_hal_read_config_data>:

tBleStatus aci_hal_read_config_data(uint8_t offset, uint16_t data_len, uint8_t *data_len_out_p, uint8_t *data)
{
 800ac52:	b5f0      	push	{r4, r5, r6, r7, lr}
 800ac54:	b0a9      	sub	sp, #164	; 0xa4
 800ac56:	460c      	mov	r4, r1
 800ac58:	4616      	mov	r6, r2
 800ac5a:	461d      	mov	r5, r3
  struct hci_request rq;
  hal_read_config_data_cp cp;
  hal_read_config_data_rp rp;
  
  cp.offset = offset;
 800ac5c:	f88d 0084 	strb.w	r0, [sp, #132]	; 0x84
  
  BLUENRG_memset(&rq, 0, sizeof(rq));
 800ac60:	2100      	movs	r1, #0
 800ac62:	9122      	str	r1, [sp, #136]	; 0x88
 800ac64:	9123      	str	r1, [sp, #140]	; 0x8c
 800ac66:	9124      	str	r1, [sp, #144]	; 0x90
 800ac68:	9125      	str	r1, [sp, #148]	; 0x94
 800ac6a:	9126      	str	r1, [sp, #152]	; 0x98
 800ac6c:	9127      	str	r1, [sp, #156]	; 0x9c
  rq.ogf = OGF_VENDOR_CMD;
 800ac6e:	233f      	movs	r3, #63	; 0x3f
 800ac70:	f8ad 3088 	strh.w	r3, [sp, #136]	; 0x88
  rq.ocf = OCF_HAL_READ_CONFIG_DATA;
 800ac74:	230d      	movs	r3, #13
 800ac76:	f8ad 308a 	strh.w	r3, [sp, #138]	; 0x8a
  rq.cparam = &cp;
 800ac7a:	ab21      	add	r3, sp, #132	; 0x84
 800ac7c:	9324      	str	r3, [sp, #144]	; 0x90
  rq.clen = sizeof(cp);
 800ac7e:	2301      	movs	r3, #1
 800ac80:	9325      	str	r3, [sp, #148]	; 0x94
  rq.rparam = &rp;
 800ac82:	ab01      	add	r3, sp, #4
 800ac84:	9326      	str	r3, [sp, #152]	; 0x98
  rq.rlen = sizeof(rp);
 800ac86:	2380      	movs	r3, #128	; 0x80
 800ac88:	9327      	str	r3, [sp, #156]	; 0x9c
  
  if (hci_send_req(&rq, FALSE) < 0)
 800ac8a:	a822      	add	r0, sp, #136	; 0x88
 800ac8c:	f000 f996 	bl	800afbc <hci_send_req>
 800ac90:	2800      	cmp	r0, #0
 800ac92:	db18      	blt.n	800acc6 <aci_hal_read_config_data+0x74>
    return BLE_STATUS_TIMEOUT;
  
  if(rp.status)
 800ac94:	f89d 7004 	ldrb.w	r7, [sp, #4]
 800ac98:	b987      	cbnz	r7, 800acbc <aci_hal_read_config_data+0x6a>
    return rp.status;
  
  *data_len_out_p = rq.rlen-1;
 800ac9a:	9b27      	ldr	r3, [sp, #156]	; 0x9c
 800ac9c:	f103 3cff 	add.w	ip, r3, #4294967295
 800aca0:	fa5f fc8c 	uxtb.w	ip, ip
 800aca4:	f886 c000 	strb.w	ip, [r6]
  
  BLUENRG_memcpy(data, rp.data, MIN(data_len, *data_len_out_p));
 800aca8:	fa1f f38c 	uxth.w	r3, ip
 800acac:	42a3      	cmp	r3, r4
 800acae:	d908      	bls.n	800acc2 <aci_hal_read_config_data+0x70>
 800acb0:	4622      	mov	r2, r4
 800acb2:	f10d 0105 	add.w	r1, sp, #5
 800acb6:	4628      	mov	r0, r5
 800acb8:	f002 fd8e 	bl	800d7d8 <memcpy>
  
  return 0;
}
 800acbc:	4638      	mov	r0, r7
 800acbe:	b029      	add	sp, #164	; 0xa4
 800acc0:	bdf0      	pop	{r4, r5, r6, r7, pc}
  BLUENRG_memcpy(data, rp.data, MIN(data_len, *data_len_out_p));
 800acc2:	4662      	mov	r2, ip
 800acc4:	e7f5      	b.n	800acb2 <aci_hal_read_config_data+0x60>
    return BLE_STATUS_TIMEOUT;
 800acc6:	27ff      	movs	r7, #255	; 0xff
 800acc8:	e7f8      	b.n	800acbc <aci_hal_read_config_data+0x6a>

0800acca <aci_hal_set_tx_power_level>:

tBleStatus aci_hal_set_tx_power_level(uint8_t en_high_power, uint8_t pa_level)
{
 800acca:	b500      	push	{lr}
 800accc:	b089      	sub	sp, #36	; 0x24
  struct hci_request rq;
  hal_set_tx_power_level_cp cp;    
  uint8_t status;
    
  cp.en_high_power = en_high_power;
 800acce:	f88d 0004 	strb.w	r0, [sp, #4]
  cp.pa_level = pa_level;
 800acd2:	f88d 1005 	strb.w	r1, [sp, #5]

  BLUENRG_memset(&rq, 0, sizeof(rq));
 800acd6:	2100      	movs	r1, #0
 800acd8:	9102      	str	r1, [sp, #8]
 800acda:	9103      	str	r1, [sp, #12]
 800acdc:	9104      	str	r1, [sp, #16]
 800acde:	9105      	str	r1, [sp, #20]
 800ace0:	9106      	str	r1, [sp, #24]
 800ace2:	9107      	str	r1, [sp, #28]
  rq.ogf = OGF_VENDOR_CMD;
 800ace4:	233f      	movs	r3, #63	; 0x3f
 800ace6:	f8ad 3008 	strh.w	r3, [sp, #8]
  rq.ocf = OCF_HAL_SET_TX_POWER_LEVEL;
 800acea:	230f      	movs	r3, #15
 800acec:	f8ad 300a 	strh.w	r3, [sp, #10]
  rq.cparam = &cp;
 800acf0:	ab01      	add	r3, sp, #4
 800acf2:	9304      	str	r3, [sp, #16]
  rq.clen = HAL_SET_TX_POWER_LEVEL_CP_SIZE;
 800acf4:	2302      	movs	r3, #2
 800acf6:	9305      	str	r3, [sp, #20]
  rq.rparam = &status;
 800acf8:	f10d 0303 	add.w	r3, sp, #3
 800acfc:	9306      	str	r3, [sp, #24]
  rq.rlen = 1;
 800acfe:	2301      	movs	r3, #1
 800ad00:	9307      	str	r3, [sp, #28]

  if (hci_send_req(&rq, FALSE) < 0)
 800ad02:	a802      	add	r0, sp, #8
 800ad04:	f000 f95a 	bl	800afbc <hci_send_req>
 800ad08:	2800      	cmp	r0, #0
 800ad0a:	db04      	blt.n	800ad16 <aci_hal_set_tx_power_level+0x4c>
    return BLE_STATUS_TIMEOUT;

  return status;
 800ad0c:	f89d 0003 	ldrb.w	r0, [sp, #3]
}
 800ad10:	b009      	add	sp, #36	; 0x24
 800ad12:	f85d fb04 	ldr.w	pc, [sp], #4
    return BLE_STATUS_TIMEOUT;
 800ad16:	20ff      	movs	r0, #255	; 0xff
 800ad18:	e7fa      	b.n	800ad10 <aci_hal_set_tx_power_level+0x46>

0800ad1a <getBlueNRGVersion>:
#include "hci.h"
#include "hci_le.h"
#include "string.h"

uint8_t getBlueNRGVersion(uint8_t *hwVersion, uint16_t *fwVersion)
{
 800ad1a:	b530      	push	{r4, r5, lr}
 800ad1c:	b085      	sub	sp, #20
 800ad1e:	4605      	mov	r5, r0
 800ad20:	460c      	mov	r4, r1
  uint8_t status;
  uint8_t hci_version, lmp_pal_version;
  uint16_t hci_revision, manufacturer_name, lmp_pal_subversion;

  status = hci_le_read_local_version(&hci_version, &hci_revision, &lmp_pal_version, 
 800ad22:	ab02      	add	r3, sp, #8
 800ad24:	9300      	str	r3, [sp, #0]
 800ad26:	f10d 030a 	add.w	r3, sp, #10
 800ad2a:	f10d 020e 	add.w	r2, sp, #14
 800ad2e:	a903      	add	r1, sp, #12
 800ad30:	f10d 000f 	add.w	r0, sp, #15
 800ad34:	f000 f839 	bl	800adaa <hci_le_read_local_version>
                                     &manufacturer_name, &lmp_pal_subversion);

  if (status == BLE_STATUS_SUCCESS) {
 800ad38:	f010 00ff 	ands.w	r0, r0, #255	; 0xff
 800ad3c:	d114      	bne.n	800ad68 <getBlueNRGVersion+0x4e>
    *hwVersion = hci_revision >> 8;
 800ad3e:	f8bd 300c 	ldrh.w	r3, [sp, #12]
 800ad42:	0a1a      	lsrs	r2, r3, #8
 800ad44:	702a      	strb	r2, [r5, #0]
    *fwVersion = (hci_revision & 0xFF) << 8;              // Major Version Number
 800ad46:	021b      	lsls	r3, r3, #8
 800ad48:	b29b      	uxth	r3, r3
 800ad4a:	8023      	strh	r3, [r4, #0]
    *fwVersion |= ((lmp_pal_subversion >> 4) & 0xF) << 4; // Minor Version Number
 800ad4c:	f8bd 2008 	ldrh.w	r2, [sp, #8]
 800ad50:	0912      	lsrs	r2, r2, #4
 800ad52:	0112      	lsls	r2, r2, #4
 800ad54:	f002 02f0 	and.w	r2, r2, #240	; 0xf0
 800ad58:	4313      	orrs	r3, r2
 800ad5a:	8023      	strh	r3, [r4, #0]
    *fwVersion |= lmp_pal_subversion & 0xF;               // Patch Version Number
 800ad5c:	f8bd 2008 	ldrh.w	r2, [sp, #8]
 800ad60:	f002 020f 	and.w	r2, r2, #15
 800ad64:	4313      	orrs	r3, r2
 800ad66:	8023      	strh	r3, [r4, #0]
  }
  return status;
}
 800ad68:	b005      	add	sp, #20
 800ad6a:	bd30      	pop	{r4, r5, pc}

0800ad6c <hci_reset>:

#define MIN(a,b)            ((a) < (b) )? (a) : (b)
#define MAX(a,b)            ((a) > (b) )? (a) : (b)

int hci_reset(void)
{
 800ad6c:	b500      	push	{lr}
 800ad6e:	b089      	sub	sp, #36	; 0x24
  struct hci_request rq;
  uint8_t status;
  
  BLUENRG_memset(&rq, 0, sizeof(rq));
 800ad70:	2100      	movs	r1, #0
 800ad72:	9102      	str	r1, [sp, #8]
 800ad74:	9103      	str	r1, [sp, #12]
 800ad76:	9104      	str	r1, [sp, #16]
 800ad78:	9105      	str	r1, [sp, #20]
 800ad7a:	9106      	str	r1, [sp, #24]
 800ad7c:	9107      	str	r1, [sp, #28]
  rq.ogf = OGF_HOST_CTL;
 800ad7e:	2303      	movs	r3, #3
 800ad80:	f8ad 3008 	strh.w	r3, [sp, #8]
  rq.ocf = OCF_RESET;
 800ad84:	f8ad 300a 	strh.w	r3, [sp, #10]
  rq.rparam = &status;
 800ad88:	f10d 0307 	add.w	r3, sp, #7
 800ad8c:	9306      	str	r3, [sp, #24]
  rq.rlen = 1;
 800ad8e:	2301      	movs	r3, #1
 800ad90:	9307      	str	r3, [sp, #28]
  
  if (hci_send_req(&rq, FALSE) < 0)
 800ad92:	a802      	add	r0, sp, #8
 800ad94:	f000 f912 	bl	800afbc <hci_send_req>
 800ad98:	2800      	cmp	r0, #0
 800ad9a:	db04      	blt.n	800ada6 <hci_reset+0x3a>
    return BLE_STATUS_TIMEOUT;
  
  return status;  
 800ad9c:	f89d 0007 	ldrb.w	r0, [sp, #7]
}
 800ada0:	b009      	add	sp, #36	; 0x24
 800ada2:	f85d fb04 	ldr.w	pc, [sp], #4
    return BLE_STATUS_TIMEOUT;
 800ada6:	20ff      	movs	r0, #255	; 0xff
 800ada8:	e7fa      	b.n	800ada0 <hci_reset+0x34>

0800adaa <hci_le_read_local_version>:
  return status;  
}

int hci_le_read_local_version(uint8_t *hci_version, uint16_t *hci_revision, uint8_t *lmp_pal_version, 
                              uint16_t *manufacturer_name, uint16_t *lmp_pal_subversion)
{
 800adaa:	e92d 41f0 	stmdb	sp!, {r4, r5, r6, r7, r8, lr}
 800adae:	b08a      	sub	sp, #40	; 0x28
 800adb0:	4680      	mov	r8, r0
 800adb2:	460f      	mov	r7, r1
 800adb4:	4616      	mov	r6, r2
 800adb6:	461d      	mov	r5, r3
  struct hci_request rq;
  read_local_version_rp resp;
  
  BLUENRG_memset(&resp, 0, sizeof(resp));
 800adb8:	ac01      	add	r4, sp, #4
 800adba:	2100      	movs	r1, #0
 800adbc:	9101      	str	r1, [sp, #4]
 800adbe:	9102      	str	r1, [sp, #8]
 800adc0:	f88d 100c 	strb.w	r1, [sp, #12]
  
  BLUENRG_memset(&rq, 0, sizeof(rq));
 800adc4:	9104      	str	r1, [sp, #16]
 800adc6:	9105      	str	r1, [sp, #20]
 800adc8:	9106      	str	r1, [sp, #24]
 800adca:	9107      	str	r1, [sp, #28]
 800adcc:	9108      	str	r1, [sp, #32]
 800adce:	9109      	str	r1, [sp, #36]	; 0x24
  rq.ogf = OGF_INFO_PARAM;
 800add0:	2304      	movs	r3, #4
 800add2:	f8ad 3010 	strh.w	r3, [sp, #16]
  rq.ocf = OCF_READ_LOCAL_VERSION;
 800add6:	2301      	movs	r3, #1
 800add8:	f8ad 3012 	strh.w	r3, [sp, #18]
  rq.cparam = NULL;
  rq.clen = 0;
  rq.rparam = &resp;
 800addc:	9408      	str	r4, [sp, #32]
  rq.rlen = READ_LOCAL_VERSION_RP_SIZE;
 800adde:	2309      	movs	r3, #9
 800ade0:	9309      	str	r3, [sp, #36]	; 0x24
  
  if (hci_send_req(&rq, FALSE) < 0)
 800ade2:	a804      	add	r0, sp, #16
 800ade4:	f000 f8ea 	bl	800afbc <hci_send_req>
 800ade8:	2800      	cmp	r0, #0
 800adea:	db16      	blt.n	800ae1a <hci_le_read_local_version+0x70>
    return BLE_STATUS_TIMEOUT;
  
  if (resp.status) {
 800adec:	f89d 0004 	ldrb.w	r0, [sp, #4]
 800adf0:	b980      	cbnz	r0, 800ae14 <hci_le_read_local_version+0x6a>
    return resp.status;
  }
  
  
  *hci_version = resp.hci_version;
 800adf2:	f89d 3005 	ldrb.w	r3, [sp, #5]
 800adf6:	f888 3000 	strb.w	r3, [r8]
  *hci_revision =  btohs(resp.hci_revision);
 800adfa:	f8bd 3006 	ldrh.w	r3, [sp, #6]
 800adfe:	803b      	strh	r3, [r7, #0]
  *lmp_pal_version = resp.lmp_pal_version;
 800ae00:	f89d 3008 	ldrb.w	r3, [sp, #8]
 800ae04:	7033      	strb	r3, [r6, #0]
  *manufacturer_name = btohs(resp.manufacturer_name);
 800ae06:	f8bd 3009 	ldrh.w	r3, [sp, #9]
 800ae0a:	802b      	strh	r3, [r5, #0]
  *lmp_pal_subversion = btohs(resp.lmp_pal_subversion);
 800ae0c:	f8bd 200b 	ldrh.w	r2, [sp, #11]
 800ae10:	9b10      	ldr	r3, [sp, #64]	; 0x40
 800ae12:	801a      	strh	r2, [r3, #0]
  
  return 0;
}
 800ae14:	b00a      	add	sp, #40	; 0x28
 800ae16:	e8bd 81f0 	ldmia.w	sp!, {r4, r5, r6, r7, r8, pc}
    return BLE_STATUS_TIMEOUT;
 800ae1a:	20ff      	movs	r0, #255	; 0xff
 800ae1c:	e7fa      	b.n	800ae14 <hci_le_read_local_version+0x6a>

0800ae1e <hci_le_set_scan_resp_data>:
  
  return 0;
}

int hci_le_set_scan_resp_data(uint8_t length, const uint8_t data[])
{
 800ae1e:	b5f0      	push	{r4, r5, r6, r7, lr}
 800ae20:	b091      	sub	sp, #68	; 0x44
 800ae22:	4604      	mov	r4, r0
 800ae24:	460d      	mov	r5, r1
  struct hci_request rq;
  le_set_scan_response_data_cp scan_resp_cp;
  uint8_t status;
  
  BLUENRG_memset(&scan_resp_cp, 0, sizeof(scan_resp_cp));
 800ae26:	af02      	add	r7, sp, #8
 800ae28:	2620      	movs	r6, #32
 800ae2a:	4632      	mov	r2, r6
 800ae2c:	2100      	movs	r1, #0
 800ae2e:	4638      	mov	r0, r7
 800ae30:	f002 fc8e 	bl	800d750 <memset>
  scan_resp_cp.length = length;
 800ae34:	f88d 4008 	strb.w	r4, [sp, #8]
  BLUENRG_memcpy(scan_resp_cp.data, data, MIN(31,length));
 800ae38:	4622      	mov	r2, r4
 800ae3a:	2c1f      	cmp	r4, #31
 800ae3c:	bf28      	it	cs
 800ae3e:	221f      	movcs	r2, #31
 800ae40:	4629      	mov	r1, r5
 800ae42:	f10d 0009 	add.w	r0, sp, #9
 800ae46:	f002 fcc7 	bl	800d7d8 <memcpy>
  
  BLUENRG_memset(&rq, 0, sizeof(rq));
 800ae4a:	2100      	movs	r1, #0
 800ae4c:	910a      	str	r1, [sp, #40]	; 0x28
 800ae4e:	910b      	str	r1, [sp, #44]	; 0x2c
 800ae50:	910c      	str	r1, [sp, #48]	; 0x30
 800ae52:	910d      	str	r1, [sp, #52]	; 0x34
 800ae54:	910e      	str	r1, [sp, #56]	; 0x38
 800ae56:	910f      	str	r1, [sp, #60]	; 0x3c
  rq.ogf = OGF_LE_CTL;
 800ae58:	2308      	movs	r3, #8
 800ae5a:	f8ad 3028 	strh.w	r3, [sp, #40]	; 0x28
  rq.ocf = OCF_LE_SET_SCAN_RESPONSE_DATA;
 800ae5e:	2309      	movs	r3, #9
 800ae60:	f8ad 302a 	strh.w	r3, [sp, #42]	; 0x2a
  rq.cparam = &scan_resp_cp;
 800ae64:	970c      	str	r7, [sp, #48]	; 0x30
  rq.clen = LE_SET_SCAN_RESPONSE_DATA_CP_SIZE;
 800ae66:	960d      	str	r6, [sp, #52]	; 0x34
  rq.rparam = &status;
 800ae68:	f10d 0307 	add.w	r3, sp, #7
 800ae6c:	930e      	str	r3, [sp, #56]	; 0x38
  rq.rlen = 1;
 800ae6e:	2301      	movs	r3, #1
 800ae70:	930f      	str	r3, [sp, #60]	; 0x3c
  
  if (hci_send_req(&rq, FALSE) < 0)
 800ae72:	a80a      	add	r0, sp, #40	; 0x28
 800ae74:	f000 f8a2 	bl	800afbc <hci_send_req>
 800ae78:	2800      	cmp	r0, #0
 800ae7a:	db03      	blt.n	800ae84 <hci_le_set_scan_resp_data+0x66>
    return BLE_STATUS_TIMEOUT;
  
  return status;
 800ae7c:	f89d 0007 	ldrb.w	r0, [sp, #7]
}
 800ae80:	b011      	add	sp, #68	; 0x44
 800ae82:	bdf0      	pop	{r4, r5, r6, r7, pc}
    return BLE_STATUS_TIMEOUT;
 800ae84:	20ff      	movs	r0, #255	; 0xff
 800ae86:	e7fb      	b.n	800ae80 <hci_le_set_scan_resp_data+0x62>

0800ae88 <verify_packet>:
  */
static int verify_packet(const tHciDataPacket * hciReadPacket)
{
  const uint8_t *hci_pckt = hciReadPacket->dataBuff;
  
  if (hci_pckt[HCI_PCK_TYPE_OFFSET] != HCI_EVENT_PKT)
 800ae88:	7a03      	ldrb	r3, [r0, #8]
 800ae8a:	2b04      	cmp	r3, #4
 800ae8c:	d107      	bne.n	800ae9e <verify_packet+0x16>
    return 1; /* Incorrect type */
  
  if (hci_pckt[EVENT_PARAMETER_TOT_LEN_OFFSET] != hciReadPacket->data_len - (1+HCI_EVENT_HDR_SIZE))
 800ae8e:	7a82      	ldrb	r2, [r0, #10]
 800ae90:	f890 3088 	ldrb.w	r3, [r0, #136]	; 0x88
 800ae94:	3b03      	subs	r3, #3
 800ae96:	429a      	cmp	r2, r3
 800ae98:	d103      	bne.n	800aea2 <verify_packet+0x1a>
    return 2; /* Wrong length (packet truncated or too long) */
  
  return 0;      
 800ae9a:	2000      	movs	r0, #0
 800ae9c:	4770      	bx	lr
    return 1; /* Incorrect type */
 800ae9e:	2001      	movs	r0, #1
 800aea0:	4770      	bx	lr
    return 2; /* Wrong length (packet truncated or too long) */
 800aea2:	2002      	movs	r0, #2
}
 800aea4:	4770      	bx	lr
	...

0800aea8 <send_cmd>:
  * @param  plen The HCI command length
  * @param  param The HCI command parameters
  * @retval None
  */
static void send_cmd(uint16_t ogf, uint16_t ocf, uint8_t plen, void *param)
{
 800aea8:	b510      	push	{r4, lr}
 800aeaa:	b0a2      	sub	sp, #136	; 0x88
 800aeac:	4614      	mov	r4, r2
  uint8_t payload[HCI_MAX_PAYLOAD_SIZE];  
  hci_command_hdr hc;
  
  hc.opcode = htobs(cmd_opcode_pack(ogf, ocf));
 800aeae:	f3c1 0c09 	ubfx	ip, r1, #0, #10
 800aeb2:	ea4c 2c80 	orr.w	ip, ip, r0, lsl #10
 800aeb6:	f8ad c004 	strh.w	ip, [sp, #4]
  hc.plen = plen;
 800aeba:	f88d 2006 	strb.w	r2, [sp, #6]

  payload[0] = HCI_COMMAND_PKT;
 800aebe:	2101      	movs	r1, #1
 800aec0:	f88d 1008 	strb.w	r1, [sp, #8]
  BLUENRG_memcpy(payload + 1, &hc, sizeof(hc));
 800aec4:	f8bd 0004 	ldrh.w	r0, [sp, #4]
 800aec8:	b2d1      	uxtb	r1, r2
 800aeca:	f8ad 0009 	strh.w	r0, [sp, #9]
 800aece:	f88d 100b 	strb.w	r1, [sp, #11]
  BLUENRG_memcpy(payload + HCI_HDR_SIZE + HCI_COMMAND_HDR_SIZE, param, plen);
 800aed2:	4619      	mov	r1, r3
 800aed4:	a803      	add	r0, sp, #12
 800aed6:	f002 fc7f 	bl	800d7d8 <memcpy>
  
  if (hciContext.io.Send)
 800aeda:	4b04      	ldr	r3, [pc, #16]	; (800aeec <send_cmd+0x44>)
 800aedc:	691b      	ldr	r3, [r3, #16]
 800aede:	b113      	cbz	r3, 800aee6 <send_cmd+0x3e>
  {
    hciContext.io.Send (payload, HCI_HDR_SIZE + HCI_COMMAND_HDR_SIZE + plen);
 800aee0:	1d21      	adds	r1, r4, #4
 800aee2:	a802      	add	r0, sp, #8
 800aee4:	4798      	blx	r3
  }
}
 800aee6:	b022      	add	sp, #136	; 0x88
 800aee8:	bd10      	pop	{r4, pc}
 800aeea:	bf00      	nop
 800aeec:	2000263c 	.word	0x2000263c

0800aef0 <free_event_list>:
  *
  * @param  None
  * @retval None
  */
static void free_event_list(void)
{
 800aef0:	b510      	push	{r4, lr}
 800aef2:	b082      	sub	sp, #8
  tHciDataPacket * pckt;

  while(list_get_size(&hciReadPktPool) < HCI_READ_PACKET_NUM_MAX/2){
 800aef4:	e00a      	b.n	800af0c <free_event_list+0x1c>
    list_remove_head(&hciReadPktRxQueue, (tListNode **)&pckt);    
 800aef6:	4c09      	ldr	r4, [pc, #36]	; (800af1c <free_event_list+0x2c>)
 800aef8:	a901      	add	r1, sp, #4
 800aefa:	f104 0020 	add.w	r0, r4, #32
 800aefe:	f000 f997 	bl	800b230 <list_remove_head>
    list_insert_tail(&hciReadPktPool, (tListNode *)pckt);
 800af02:	9901      	ldr	r1, [sp, #4]
 800af04:	f104 0028 	add.w	r0, r4, #40	; 0x28
 800af08:	f000 f97b 	bl	800b202 <list_insert_tail>
  while(list_get_size(&hciReadPktPool) < HCI_READ_PACKET_NUM_MAX/2){
 800af0c:	4804      	ldr	r0, [pc, #16]	; (800af20 <free_event_list+0x30>)
 800af0e:	f000 f9b1 	bl	800b274 <list_get_size>
 800af12:	2801      	cmp	r0, #1
 800af14:	ddef      	ble.n	800aef6 <free_event_list+0x6>
  }
}
 800af16:	b002      	add	sp, #8
 800af18:	bd10      	pop	{r4, pc}
 800af1a:	bf00      	nop
 800af1c:	2000263c 	.word	0x2000263c
 800af20:	20002664 	.word	0x20002664

0800af24 <move_list>:
{
 800af24:	b530      	push	{r4, r5, lr}
 800af26:	b083      	sub	sp, #12
 800af28:	4605      	mov	r5, r0
 800af2a:	460c      	mov	r4, r1
  while (!list_is_empty(src_list))
 800af2c:	e007      	b.n	800af3e <move_list+0x1a>
    list_remove_tail(src_list, &tmp_node);
 800af2e:	a901      	add	r1, sp, #4
 800af30:	4620      	mov	r0, r4
 800af32:	f000 f98e 	bl	800b252 <list_remove_tail>
    list_insert_head(dest_list, tmp_node);
 800af36:	9901      	ldr	r1, [sp, #4]
 800af38:	4628      	mov	r0, r5
 800af3a:	f000 f956 	bl	800b1ea <list_insert_head>
  while (!list_is_empty(src_list))
 800af3e:	4620      	mov	r0, r4
 800af40:	f000 f947 	bl	800b1d2 <list_is_empty>
 800af44:	2800      	cmp	r0, #0
 800af46:	d0f2      	beq.n	800af2e <move_list+0xa>
}
 800af48:	b003      	add	sp, #12
 800af4a:	bd30      	pop	{r4, r5, pc}

0800af4c <hci_init>:

/********************** HCI Transport layer functions *****************************/

void hci_init(void(* UserEvtRx)(void* pData), void* pConf)
{
 800af4c:	b510      	push	{r4, lr}
  uint8_t index;

  if(UserEvtRx != NULL)
 800af4e:	b108      	cbz	r0, 800af54 <hci_init+0x8>
  {
    hciContext.UserEvtRx = UserEvtRx;
 800af50:	4a12      	ldr	r2, [pc, #72]	; (800af9c <hci_init+0x50>)
 800af52:	61d0      	str	r0, [r2, #28]
  }
  
  /* Initialize list heads of ready and free hci data packet queues */
  list_init_head(&hciReadPktPool);
 800af54:	4c11      	ldr	r4, [pc, #68]	; (800af9c <hci_init+0x50>)
 800af56:	f104 0028 	add.w	r0, r4, #40	; 0x28
 800af5a:	f000 f937 	bl	800b1cc <list_init_head>
  list_init_head(&hciReadPktRxQueue);
 800af5e:	f104 0020 	add.w	r0, r4, #32
 800af62:	f000 f933 	bl	800b1cc <list_init_head>

  /* Initialize TL BLE layer */
  hci_tl_lowlevel_init();
 800af66:	f7fa f9d9 	bl	800531c <hci_tl_lowlevel_init>
    
  /* Initialize the queue of free hci data packets */
  for (index = 0; index < HCI_READ_PACKET_NUM_MAX; index++)
 800af6a:	2400      	movs	r4, #0
 800af6c:	e00a      	b.n	800af84 <hci_init+0x38>
  {
    list_insert_tail(&hciReadPktPool, (tListNode *)&hciReadPacketBuffer[index]);
 800af6e:	480b      	ldr	r0, [pc, #44]	; (800af9c <hci_init+0x50>)
 800af70:	f100 0330 	add.w	r3, r0, #48	; 0x30
 800af74:	218c      	movs	r1, #140	; 0x8c
 800af76:	fb01 3104 	mla	r1, r1, r4, r3
 800af7a:	3028      	adds	r0, #40	; 0x28
 800af7c:	f000 f941 	bl	800b202 <list_insert_tail>
  for (index = 0; index < HCI_READ_PACKET_NUM_MAX; index++)
 800af80:	3401      	adds	r4, #1
 800af82:	b2e4      	uxtb	r4, r4
 800af84:	2c04      	cmp	r4, #4
 800af86:	d9f2      	bls.n	800af6e <hci_init+0x22>
  } 
  
  /* Initialize low level driver */
  if (hciContext.io.Init)  hciContext.io.Init(NULL);
 800af88:	4b04      	ldr	r3, [pc, #16]	; (800af9c <hci_init+0x50>)
 800af8a:	681b      	ldr	r3, [r3, #0]
 800af8c:	b10b      	cbz	r3, 800af92 <hci_init+0x46>
 800af8e:	2000      	movs	r0, #0
 800af90:	4798      	blx	r3
  if (hciContext.io.Reset) hciContext.io.Reset();
 800af92:	4b02      	ldr	r3, [pc, #8]	; (800af9c <hci_init+0x50>)
 800af94:	689b      	ldr	r3, [r3, #8]
 800af96:	b103      	cbz	r3, 800af9a <hci_init+0x4e>
 800af98:	4798      	blx	r3
}
 800af9a:	bd10      	pop	{r4, pc}
 800af9c:	2000263c 	.word	0x2000263c

0800afa0 <hci_register_io_bus>:

void hci_register_io_bus(tHciIO* fops)
{
  /* Register bus function */
  hciContext.io.Init    = fops->Init; 
 800afa0:	6802      	ldr	r2, [r0, #0]
 800afa2:	4b05      	ldr	r3, [pc, #20]	; (800afb8 <hci_register_io_bus+0x18>)
 800afa4:	601a      	str	r2, [r3, #0]
  hciContext.io.Receive = fops->Receive;  
 800afa6:	68c2      	ldr	r2, [r0, #12]
 800afa8:	60da      	str	r2, [r3, #12]
  hciContext.io.Send    = fops->Send;
 800afaa:	6902      	ldr	r2, [r0, #16]
 800afac:	611a      	str	r2, [r3, #16]
  hciContext.io.GetTick = fops->GetTick;
 800afae:	6982      	ldr	r2, [r0, #24]
 800afb0:	619a      	str	r2, [r3, #24]
  hciContext.io.Reset   = fops->Reset;
 800afb2:	6882      	ldr	r2, [r0, #8]
 800afb4:	609a      	str	r2, [r3, #8]
}
 800afb6:	4770      	bx	lr
 800afb8:	2000263c 	.word	0x2000263c

0800afbc <hci_send_req>:

int hci_send_req(struct hci_request* r, BOOL async)
{
 800afbc:	b570      	push	{r4, r5, r6, lr}
 800afbe:	b084      	sub	sp, #16
 800afc0:	4605      	mov	r5, r0
 800afc2:	460c      	mov	r4, r1
  uint8_t *ptr;
  uint16_t opcode = htobs(cmd_opcode_pack(r->ogf, r->ocf));
 800afc4:	f9b0 3002 	ldrsh.w	r3, [r0, #2]
 800afc8:	f3c3 0309 	ubfx	r3, r3, #0, #10
 800afcc:	8802      	ldrh	r2, [r0, #0]
 800afce:	ea43 2382 	orr.w	r3, r3, r2, lsl #10
 800afd2:	b29e      	uxth	r6, r3
  hci_event_pckt *event_pckt;
  hci_uart_pckt *hci_hdr;

  tHciDataPacket * hciReadPacket = NULL;
 800afd4:	2300      	movs	r3, #0
 800afd6:	9303      	str	r3, [sp, #12]
  tListNode hciTempQueue;
  
  list_init_head(&hciTempQueue);
 800afd8:	a801      	add	r0, sp, #4
 800afda:	f000 f8f7 	bl	800b1cc <list_init_head>

  free_event_list();
 800afde:	f7ff ff87 	bl	800aef0 <free_event_list>
  
  send_cmd(r->ogf, r->ocf, r->clen, r->cparam);
 800afe2:	68ab      	ldr	r3, [r5, #8]
 800afe4:	7b2a      	ldrb	r2, [r5, #12]
 800afe6:	8869      	ldrh	r1, [r5, #2]
 800afe8:	8828      	ldrh	r0, [r5, #0]
 800afea:	f7ff ff5d 	bl	800aea8 <send_cmd>
  
  if (async)
 800afee:	2c00      	cmp	r4, #0
 800aff0:	f040 8086 	bne.w	800b100 <hci_send_req+0x144>
    evt_cmd_complete  *cc;
    evt_cmd_status    *cs;
    evt_le_meta_event *me;
    uint32_t len;
    
    uint32_t tickstart = HAL_GetTick();
 800aff4:	f7fb fd9a 	bl	8006b2c <HAL_GetTick>
 800aff8:	4604      	mov	r4, r0
      
    while (1)
    {
      if ((HAL_GetTick() - tickstart) > HCI_DEFAULT_TIMEOUT_MS)
 800affa:	f7fb fd97 	bl	8006b2c <HAL_GetTick>
 800affe:	1b00      	subs	r0, r0, r4
 800b000:	f5b0 7f7a 	cmp.w	r0, #1000	; 0x3e8
 800b004:	d822      	bhi.n	800b04c <hci_send_req+0x90>
      {
        goto failed;
      }
      
      if (!list_is_empty(&hciReadPktRxQueue)) 
 800b006:	483f      	ldr	r0, [pc, #252]	; (800b104 <hci_send_req+0x148>)
 800b008:	f000 f8e3 	bl	800b1d2 <list_is_empty>
 800b00c:	2800      	cmp	r0, #0
 800b00e:	d1f4      	bne.n	800affa <hci_send_req+0x3e>
        break;
      }
    }
    
    /* Extract packet from HCI event queue. */
    list_remove_head(&hciReadPktRxQueue, (tListNode **)&hciReadPacket);    
 800b010:	a903      	add	r1, sp, #12
 800b012:	483c      	ldr	r0, [pc, #240]	; (800b104 <hci_send_req+0x148>)
 800b014:	f000 f90c 	bl	800b230 <list_remove_head>
    
    hci_hdr = (void *)hciReadPacket->dataBuff;
 800b018:	9b03      	ldr	r3, [sp, #12]

    if (hci_hdr->type == HCI_EVENT_PKT)
 800b01a:	7a1a      	ldrb	r2, [r3, #8]
 800b01c:	2a04      	cmp	r2, #4
 800b01e:	d128      	bne.n	800b072 <hci_send_req+0xb6>
    {
      event_pckt = (void *)(hci_hdr->data);
    
      ptr = hciReadPacket->dataBuff + (1 + HCI_EVENT_HDR_SIZE);
 800b020:	f103 010b 	add.w	r1, r3, #11
      len = hciReadPacket->data_len - (1 + HCI_EVENT_HDR_SIZE);
 800b024:	f893 0088 	ldrb.w	r0, [r3, #136]	; 0x88
 800b028:	1ec4      	subs	r4, r0, #3
    
      switch (event_pckt->evt) 
 800b02a:	7a5a      	ldrb	r2, [r3, #9]
 800b02c:	2a10      	cmp	r2, #16
 800b02e:	d00d      	beq.n	800b04c <hci_send_req+0x90>
 800b030:	d819      	bhi.n	800b066 <hci_send_req+0xaa>
 800b032:	2a0e      	cmp	r2, #14
 800b034:	d036      	beq.n	800b0a4 <hci_send_req+0xe8>
 800b036:	2a0f      	cmp	r2, #15
 800b038:	d11b      	bne.n	800b072 <hci_send_req+0xb6>
      {      
      case EVT_CMD_STATUS:
        cs = (void *) ptr;
        
        if (cs->opcode != opcode)
 800b03a:	f8b3 200d 	ldrh.w	r2, [r3, #13]
 800b03e:	42b2      	cmp	r2, r6
 800b040:	d104      	bne.n	800b04c <hci_send_req+0x90>
          goto failed;
        
        if (r->event != EVT_CMD_STATUS) {
 800b042:	686a      	ldr	r2, [r5, #4]
 800b044:	2a0f      	cmp	r2, #15
 800b046:	d024      	beq.n	800b092 <hci_send_req+0xd6>
          if (cs->status) {
 800b048:	7adb      	ldrb	r3, [r3, #11]
 800b04a:	b193      	cbz	r3, 800b072 <hci_send_req+0xb6>
      hciReadPacket=NULL;
    }
  }
  
failed: 
  if (hciReadPacket!=NULL) {
 800b04c:	9903      	ldr	r1, [sp, #12]
 800b04e:	b111      	cbz	r1, 800b056 <hci_send_req+0x9a>
    list_insert_head(&hciReadPktPool, (tListNode *)hciReadPacket);
 800b050:	482d      	ldr	r0, [pc, #180]	; (800b108 <hci_send_req+0x14c>)
 800b052:	f000 f8ca 	bl	800b1ea <list_insert_head>
  }
  move_list(&hciReadPktRxQueue, &hciTempQueue);
 800b056:	a901      	add	r1, sp, #4
 800b058:	482a      	ldr	r0, [pc, #168]	; (800b104 <hci_send_req+0x148>)
 800b05a:	f7ff ff63 	bl	800af24 <move_list>

  return -1;
 800b05e:	f04f 30ff 	mov.w	r0, #4294967295
  /* Insert the packet back into the pool.*/
  list_insert_head(&hciReadPktPool, (tListNode *)hciReadPacket); 
  move_list(&hciReadPktRxQueue, &hciTempQueue);

  return 0;
}
 800b062:	b004      	add	sp, #16
 800b064:	bd70      	pop	{r4, r5, r6, pc}
      switch (event_pckt->evt) 
 800b066:	2a3e      	cmp	r2, #62	; 0x3e
 800b068:	d103      	bne.n	800b072 <hci_send_req+0xb6>
        if (me->subevent != r->event)
 800b06a:	7ad9      	ldrb	r1, [r3, #11]
 800b06c:	686a      	ldr	r2, [r5, #4]
 800b06e:	4291      	cmp	r1, r2
 800b070:	d033      	beq.n	800b0da <hci_send_req+0x11e>
    if (list_is_empty(&hciReadPktPool) && list_is_empty(&hciReadPktRxQueue)) {
 800b072:	4825      	ldr	r0, [pc, #148]	; (800b108 <hci_send_req+0x14c>)
 800b074:	f000 f8ad 	bl	800b1d2 <list_is_empty>
 800b078:	b120      	cbz	r0, 800b084 <hci_send_req+0xc8>
 800b07a:	4822      	ldr	r0, [pc, #136]	; (800b104 <hci_send_req+0x148>)
 800b07c:	f000 f8a9 	bl	800b1d2 <list_is_empty>
 800b080:	2800      	cmp	r0, #0
 800b082:	d136      	bne.n	800b0f2 <hci_send_req+0x136>
    list_insert_tail(&hciTempQueue, (tListNode *)hciReadPacket);
 800b084:	9903      	ldr	r1, [sp, #12]
 800b086:	a801      	add	r0, sp, #4
 800b088:	f000 f8bb 	bl	800b202 <list_insert_tail>
      hciReadPacket=NULL;
 800b08c:	2300      	movs	r3, #0
 800b08e:	9303      	str	r3, [sp, #12]
 800b090:	e7b0      	b.n	800aff4 <hci_send_req+0x38>
        r->rlen = MIN(len, r->rlen);
 800b092:	696a      	ldr	r2, [r5, #20]
 800b094:	42a2      	cmp	r2, r4
 800b096:	bf28      	it	cs
 800b098:	4622      	movcs	r2, r4
 800b09a:	616a      	str	r2, [r5, #20]
        BLUENRG_memcpy(r->rparam, ptr, r->rlen);
 800b09c:	6928      	ldr	r0, [r5, #16]
 800b09e:	f002 fb9b 	bl	800d7d8 <memcpy>
        goto done;
 800b0a2:	e00d      	b.n	800b0c0 <hci_send_req+0x104>
        if (cc->opcode != opcode)
 800b0a4:	899a      	ldrh	r2, [r3, #12]
 800b0a6:	42b2      	cmp	r2, r6
 800b0a8:	d1d0      	bne.n	800b04c <hci_send_req+0x90>
        len -= EVT_CMD_COMPLETE_SIZE;
 800b0aa:	3806      	subs	r0, #6
        r->rlen = MIN(len, r->rlen);
 800b0ac:	696a      	ldr	r2, [r5, #20]
 800b0ae:	4282      	cmp	r2, r0
 800b0b0:	bf28      	it	cs
 800b0b2:	4602      	movcs	r2, r0
 800b0b4:	616a      	str	r2, [r5, #20]
        BLUENRG_memcpy(r->rparam, ptr, r->rlen);
 800b0b6:	f103 010e 	add.w	r1, r3, #14
 800b0ba:	6928      	ldr	r0, [r5, #16]
 800b0bc:	f002 fb8c 	bl	800d7d8 <memcpy>
  list_insert_head(&hciReadPktPool, (tListNode *)hciReadPacket); 
 800b0c0:	4c12      	ldr	r4, [pc, #72]	; (800b10c <hci_send_req+0x150>)
 800b0c2:	9903      	ldr	r1, [sp, #12]
 800b0c4:	f104 0028 	add.w	r0, r4, #40	; 0x28
 800b0c8:	f000 f88f 	bl	800b1ea <list_insert_head>
  move_list(&hciReadPktRxQueue, &hciTempQueue);
 800b0cc:	a901      	add	r1, sp, #4
 800b0ce:	f104 0020 	add.w	r0, r4, #32
 800b0d2:	f7ff ff27 	bl	800af24 <move_list>
  return 0;
 800b0d6:	2000      	movs	r0, #0
 800b0d8:	e7c3      	b.n	800b062 <hci_send_req+0xa6>
        len -= 1;
 800b0da:	3804      	subs	r0, #4
        r->rlen = MIN(len, r->rlen);
 800b0dc:	696a      	ldr	r2, [r5, #20]
 800b0de:	4282      	cmp	r2, r0
 800b0e0:	bf28      	it	cs
 800b0e2:	4602      	movcs	r2, r0
 800b0e4:	616a      	str	r2, [r5, #20]
        BLUENRG_memcpy(r->rparam, me->data, r->rlen);
 800b0e6:	f103 010c 	add.w	r1, r3, #12
 800b0ea:	6928      	ldr	r0, [r5, #16]
 800b0ec:	f002 fb74 	bl	800d7d8 <memcpy>
        goto done;
 800b0f0:	e7e6      	b.n	800b0c0 <hci_send_req+0x104>
      list_insert_tail(&hciReadPktPool, (tListNode *)hciReadPacket);
 800b0f2:	9903      	ldr	r1, [sp, #12]
 800b0f4:	4804      	ldr	r0, [pc, #16]	; (800b108 <hci_send_req+0x14c>)
 800b0f6:	f000 f884 	bl	800b202 <list_insert_tail>
      hciReadPacket=NULL;
 800b0fa:	2300      	movs	r3, #0
 800b0fc:	9303      	str	r3, [sp, #12]
 800b0fe:	e779      	b.n	800aff4 <hci_send_req+0x38>
    return 0;
 800b100:	2000      	movs	r0, #0
 800b102:	e7ae      	b.n	800b062 <hci_send_req+0xa6>
 800b104:	2000265c 	.word	0x2000265c
 800b108:	20002664 	.word	0x20002664
 800b10c:	2000263c 	.word	0x2000263c

0800b110 <hci_user_evt_proc>:

void hci_user_evt_proc(void)
{
 800b110:	b510      	push	{r4, lr}
 800b112:	b082      	sub	sp, #8
  tHciDataPacket * hciReadPacket = NULL;
 800b114:	2300      	movs	r3, #0
 800b116:	9301      	str	r3, [sp, #4]
     
  /* process any pending events read */
  while (list_is_empty(&hciReadPktRxQueue) == FALSE)
 800b118:	e006      	b.n	800b128 <hci_user_evt_proc+0x18>
  {
    list_remove_head (&hciReadPktRxQueue, (tListNode **)&hciReadPacket);

    if (hciContext.UserEvtRx != NULL)
    {
      hciContext.UserEvtRx(hciReadPacket->dataBuff);
 800b11a:	9801      	ldr	r0, [sp, #4]
 800b11c:	3008      	adds	r0, #8
 800b11e:	4798      	blx	r3
    }

    list_insert_tail(&hciReadPktPool, (tListNode *)hciReadPacket);
 800b120:	9901      	ldr	r1, [sp, #4]
 800b122:	4809      	ldr	r0, [pc, #36]	; (800b148 <hci_user_evt_proc+0x38>)
 800b124:	f000 f86d 	bl	800b202 <list_insert_tail>
  while (list_is_empty(&hciReadPktRxQueue) == FALSE)
 800b128:	4808      	ldr	r0, [pc, #32]	; (800b14c <hci_user_evt_proc+0x3c>)
 800b12a:	f000 f852 	bl	800b1d2 <list_is_empty>
 800b12e:	b948      	cbnz	r0, 800b144 <hci_user_evt_proc+0x34>
    list_remove_head (&hciReadPktRxQueue, (tListNode **)&hciReadPacket);
 800b130:	4c07      	ldr	r4, [pc, #28]	; (800b150 <hci_user_evt_proc+0x40>)
 800b132:	a901      	add	r1, sp, #4
 800b134:	f104 0020 	add.w	r0, r4, #32
 800b138:	f000 f87a 	bl	800b230 <list_remove_head>
    if (hciContext.UserEvtRx != NULL)
 800b13c:	69e3      	ldr	r3, [r4, #28]
 800b13e:	2b00      	cmp	r3, #0
 800b140:	d1eb      	bne.n	800b11a <hci_user_evt_proc+0xa>
 800b142:	e7ed      	b.n	800b120 <hci_user_evt_proc+0x10>
  }
}
 800b144:	b002      	add	sp, #8
 800b146:	bd10      	pop	{r4, pc}
 800b148:	20002664 	.word	0x20002664
 800b14c:	2000265c 	.word	0x2000265c
 800b150:	2000263c 	.word	0x2000263c

0800b154 <hci_notify_asynch_evt>:

int32_t hci_notify_asynch_evt(void* pdata)
{
 800b154:	b530      	push	{r4, r5, lr}
 800b156:	b083      	sub	sp, #12
  tHciDataPacket * hciReadPacket = NULL;
 800b158:	2300      	movs	r3, #0
 800b15a:	9301      	str	r3, [sp, #4]
  uint8_t data_len;
  
  int32_t ret = 0;
  
  if (list_is_empty (&hciReadPktPool) == FALSE)
 800b15c:	4818      	ldr	r0, [pc, #96]	; (800b1c0 <hci_notify_asynch_evt+0x6c>)
 800b15e:	f000 f838 	bl	800b1d2 <list_is_empty>
 800b162:	b118      	cbz	r0, 800b16c <hci_notify_asynch_evt+0x18>
      }
    }
  }
  else 
  {
    ret = 1;
 800b164:	2401      	movs	r4, #1
  }
  return ret;

}
 800b166:	4620      	mov	r0, r4
 800b168:	b003      	add	sp, #12
 800b16a:	bd30      	pop	{r4, r5, pc}
    list_remove_head (&hciReadPktPool, (tListNode **)&hciReadPacket);
 800b16c:	4c15      	ldr	r4, [pc, #84]	; (800b1c4 <hci_notify_asynch_evt+0x70>)
 800b16e:	a901      	add	r1, sp, #4
 800b170:	f104 0028 	add.w	r0, r4, #40	; 0x28
 800b174:	f000 f85c 	bl	800b230 <list_remove_head>
    if (hciContext.io.Receive)
 800b178:	68e3      	ldr	r3, [r4, #12]
 800b17a:	b1fb      	cbz	r3, 800b1bc <hci_notify_asynch_evt+0x68>
      data_len = hciContext.io.Receive(hciReadPacket->dataBuff, HCI_READ_PACKET_SIZE);
 800b17c:	2180      	movs	r1, #128	; 0x80
 800b17e:	9801      	ldr	r0, [sp, #4]
 800b180:	3008      	adds	r0, #8
 800b182:	4798      	blx	r3
      if (data_len > 0)
 800b184:	f010 00ff 	ands.w	r0, r0, #255	; 0xff
 800b188:	d012      	beq.n	800b1b0 <hci_notify_asynch_evt+0x5c>
        hciReadPacket->data_len = data_len;
 800b18a:	9d01      	ldr	r5, [sp, #4]
 800b18c:	f885 0088 	strb.w	r0, [r5, #136]	; 0x88
        if (verify_packet(hciReadPacket) == 0)
 800b190:	4628      	mov	r0, r5
 800b192:	f7ff fe79 	bl	800ae88 <verify_packet>
 800b196:	4604      	mov	r4, r0
 800b198:	b920      	cbnz	r0, 800b1a4 <hci_notify_asynch_evt+0x50>
          list_insert_tail(&hciReadPktRxQueue, (tListNode *)hciReadPacket);
 800b19a:	4629      	mov	r1, r5
 800b19c:	480a      	ldr	r0, [pc, #40]	; (800b1c8 <hci_notify_asynch_evt+0x74>)
 800b19e:	f000 f830 	bl	800b202 <list_insert_tail>
 800b1a2:	e7e0      	b.n	800b166 <hci_notify_asynch_evt+0x12>
          list_insert_head(&hciReadPktPool, (tListNode *)hciReadPacket);          
 800b1a4:	4629      	mov	r1, r5
 800b1a6:	4806      	ldr	r0, [pc, #24]	; (800b1c0 <hci_notify_asynch_evt+0x6c>)
 800b1a8:	f000 f81f 	bl	800b1ea <list_insert_head>
  int32_t ret = 0;
 800b1ac:	2400      	movs	r4, #0
 800b1ae:	e7da      	b.n	800b166 <hci_notify_asynch_evt+0x12>
        list_insert_head(&hciReadPktPool, (tListNode *)hciReadPacket);
 800b1b0:	9901      	ldr	r1, [sp, #4]
 800b1b2:	4803      	ldr	r0, [pc, #12]	; (800b1c0 <hci_notify_asynch_evt+0x6c>)
 800b1b4:	f000 f819 	bl	800b1ea <list_insert_head>
  int32_t ret = 0;
 800b1b8:	2400      	movs	r4, #0
 800b1ba:	e7d4      	b.n	800b166 <hci_notify_asynch_evt+0x12>
 800b1bc:	2400      	movs	r4, #0
  return ret;
 800b1be:	e7d2      	b.n	800b166 <hci_notify_asynch_evt+0x12>
 800b1c0:	20002664 	.word	0x20002664
 800b1c4:	2000263c 	.word	0x2000263c
 800b1c8:	2000265c 	.word	0x2000265c

0800b1cc <list_init_head>:
/******************************************************************************
 * Function Definitions 
******************************************************************************/
void list_init_head (tListNode * listHead)
{
  listHead->next = listHead;
 800b1cc:	6000      	str	r0, [r0, #0]
  listHead->prev = listHead;	
 800b1ce:	6040      	str	r0, [r0, #4]
}
 800b1d0:	4770      	bx	lr

0800b1d2 <list_is_empty>:
  __ASM volatile ("MRS %0, primask" : "=r" (result) :: "memory");
 800b1d2:	f3ef 8310 	mrs	r3, PRIMASK
  __ASM volatile ("cpsid i" : : : "memory");
 800b1d6:	b672      	cpsid	i
  
  uint32_t uwPRIMASK_Bit;
  uwPRIMASK_Bit = __get_PRIMASK();  /**< backup PRIMASK bit */
  __disable_irq();                  /**< Disable all interrupts by setting PRIMASK bit on Cortex*/
   
  if(listHead->next == listHead)
 800b1d8:	6802      	ldr	r2, [r0, #0]
 800b1da:	4282      	cmp	r2, r0
 800b1dc:	d003      	beq.n	800b1e6 <list_is_empty+0x14>
  {
    return_value = 1;
  }
  else
  {
    return_value = 0;
 800b1de:	2000      	movs	r0, #0
  __ASM volatile ("MSR primask, %0" : : "r" (priMask) : "memory");
 800b1e0:	f383 8810 	msr	PRIMASK, r3
  }
  
  __set_PRIMASK(uwPRIMASK_Bit);     /**< Restore PRIMASK bit*/
  
  return return_value;
}
 800b1e4:	4770      	bx	lr
    return_value = 1;
 800b1e6:	2001      	movs	r0, #1
 800b1e8:	e7fa      	b.n	800b1e0 <list_is_empty+0xe>

0800b1ea <list_insert_head>:
  __ASM volatile ("MRS %0, primask" : "=r" (result) :: "memory");
 800b1ea:	f3ef 8310 	mrs	r3, PRIMASK
  __ASM volatile ("cpsid i" : : : "memory");
 800b1ee:	b672      	cpsid	i
{
  uint32_t uwPRIMASK_Bit;
  uwPRIMASK_Bit = __get_PRIMASK();  /**< backup PRIMASK bit */
  __disable_irq();                  /**< Disable all interrupts by setting PRIMASK bit on Cortex*/
  
  node->next = listHead->next;
 800b1f0:	6802      	ldr	r2, [r0, #0]
 800b1f2:	600a      	str	r2, [r1, #0]
  node->prev = listHead;
 800b1f4:	6048      	str	r0, [r1, #4]
  listHead->next = node;
 800b1f6:	6001      	str	r1, [r0, #0]
  (node->next)->prev = node;
 800b1f8:	680a      	ldr	r2, [r1, #0]
 800b1fa:	6051      	str	r1, [r2, #4]
  __ASM volatile ("MSR primask, %0" : : "r" (priMask) : "memory");
 800b1fc:	f383 8810 	msr	PRIMASK, r3
  
  __set_PRIMASK(uwPRIMASK_Bit);     /**< Restore PRIMASK bit*/
}
 800b200:	4770      	bx	lr

0800b202 <list_insert_tail>:
  __ASM volatile ("MRS %0, primask" : "=r" (result) :: "memory");
 800b202:	f3ef 8310 	mrs	r3, PRIMASK
  __ASM volatile ("cpsid i" : : : "memory");
 800b206:	b672      	cpsid	i
{
  uint32_t uwPRIMASK_Bit;
  uwPRIMASK_Bit = __get_PRIMASK();  /**< backup PRIMASK bit */
  __disable_irq();                  /**< Disable all interrupts by setting PRIMASK bit on Cortex*/
  
  node->next = listHead;
 800b208:	6008      	str	r0, [r1, #0]
  node->prev = listHead->prev;
 800b20a:	6842      	ldr	r2, [r0, #4]
 800b20c:	604a      	str	r2, [r1, #4]
  listHead->prev = node;
 800b20e:	6041      	str	r1, [r0, #4]
  (node->prev)->next = node;
 800b210:	684a      	ldr	r2, [r1, #4]
 800b212:	6011      	str	r1, [r2, #0]
  __ASM volatile ("MSR primask, %0" : : "r" (priMask) : "memory");
 800b214:	f383 8810 	msr	PRIMASK, r3
  
  __set_PRIMASK(uwPRIMASK_Bit);     /**< Restore PRIMASK bit*/
}
 800b218:	4770      	bx	lr

0800b21a <list_remove_node>:
  __ASM volatile ("MRS %0, primask" : "=r" (result) :: "memory");
 800b21a:	f3ef 8210 	mrs	r2, PRIMASK
  __ASM volatile ("cpsid i" : : : "memory");
 800b21e:	b672      	cpsid	i
{
  uint32_t uwPRIMASK_Bit;
  uwPRIMASK_Bit = __get_PRIMASK();  /**< backup PRIMASK bit */
  __disable_irq();                  /**< Disable all interrupts by setting PRIMASK bit on Cortex*/
  
  (node->prev)->next = node->next;
 800b220:	6841      	ldr	r1, [r0, #4]
 800b222:	6803      	ldr	r3, [r0, #0]
 800b224:	600b      	str	r3, [r1, #0]
  (node->next)->prev = node->prev;
 800b226:	6841      	ldr	r1, [r0, #4]
 800b228:	6059      	str	r1, [r3, #4]
  __ASM volatile ("MSR primask, %0" : : "r" (priMask) : "memory");
 800b22a:	f382 8810 	msr	PRIMASK, r2
  
  __set_PRIMASK(uwPRIMASK_Bit);     /**< Restore PRIMASK bit*/
}
 800b22e:	4770      	bx	lr

0800b230 <list_remove_head>:

void list_remove_head (tListNode * listHead, tListNode ** node )
{
 800b230:	b538      	push	{r3, r4, r5, lr}
 800b232:	460c      	mov	r4, r1
  __ASM volatile ("MRS %0, primask" : "=r" (result) :: "memory");
 800b234:	f3ef 8510 	mrs	r5, PRIMASK
  __ASM volatile ("cpsid i" : : : "memory");
 800b238:	b672      	cpsid	i
  uint32_t uwPRIMASK_Bit;
  uwPRIMASK_Bit = __get_PRIMASK();  /**< backup PRIMASK bit */
  __disable_irq();                  /**< Disable all interrupts by setting PRIMASK bit on Cortex*/
  
  *node = listHead->next;
 800b23a:	6800      	ldr	r0, [r0, #0]
 800b23c:	6008      	str	r0, [r1, #0]
  list_remove_node (listHead->next);
 800b23e:	f7ff ffec 	bl	800b21a <list_remove_node>
  (*node)->next = NULL;
 800b242:	6822      	ldr	r2, [r4, #0]
 800b244:	2300      	movs	r3, #0
 800b246:	6013      	str	r3, [r2, #0]
  (*node)->prev = NULL;
 800b248:	6822      	ldr	r2, [r4, #0]
 800b24a:	6053      	str	r3, [r2, #4]
  __ASM volatile ("MSR primask, %0" : : "r" (priMask) : "memory");
 800b24c:	f385 8810 	msr	PRIMASK, r5
  
  __set_PRIMASK(uwPRIMASK_Bit);     /**< Restore PRIMASK bit*/
}
 800b250:	bd38      	pop	{r3, r4, r5, pc}

0800b252 <list_remove_tail>:

void list_remove_tail (tListNode * listHead, tListNode ** node )
{
 800b252:	b538      	push	{r3, r4, r5, lr}
 800b254:	460c      	mov	r4, r1
  __ASM volatile ("MRS %0, primask" : "=r" (result) :: "memory");
 800b256:	f3ef 8510 	mrs	r5, PRIMASK
  __ASM volatile ("cpsid i" : : : "memory");
 800b25a:	b672      	cpsid	i
  uint32_t uwPRIMASK_Bit;
  uwPRIMASK_Bit = __get_PRIMASK();  /**< backup PRIMASK bit */
  __disable_irq();                  /**< Disable all interrupts by setting PRIMASK bit on Cortex*/
  
  *node = listHead->prev;
 800b25c:	6840      	ldr	r0, [r0, #4]
 800b25e:	6008      	str	r0, [r1, #0]
  list_remove_node (listHead->prev);
 800b260:	f7ff ffdb 	bl	800b21a <list_remove_node>
  (*node)->next = NULL;
 800b264:	6822      	ldr	r2, [r4, #0]
 800b266:	2300      	movs	r3, #0
 800b268:	6013      	str	r3, [r2, #0]
  (*node)->prev = NULL;
 800b26a:	6822      	ldr	r2, [r4, #0]
 800b26c:	6053      	str	r3, [r2, #4]
  __ASM volatile ("MSR primask, %0" : : "r" (priMask) : "memory");
 800b26e:	f385 8810 	msr	PRIMASK, r5
  
  __set_PRIMASK(uwPRIMASK_Bit);     /**< Restore PRIMASK bit*/
}
 800b272:	bd38      	pop	{r3, r4, r5, pc}

0800b274 <list_get_size>:
  
  __set_PRIMASK(uwPRIMASK_Bit);     /**< Restore PRIMASK bit*/
}

int list_get_size (tListNode * listHead)
{
 800b274:	4602      	mov	r2, r0
  __ASM volatile ("MRS %0, primask" : "=r" (result) :: "memory");
 800b276:	f3ef 8110 	mrs	r1, PRIMASK
  __ASM volatile ("cpsid i" : : : "memory");
 800b27a:	b672      	cpsid	i

  uint32_t uwPRIMASK_Bit;
  uwPRIMASK_Bit = __get_PRIMASK();  /**< backup PRIMASK bit */
  __disable_irq();                  /**< Disable all interrupts by setting PRIMASK bit on Cortex*/

  temp = listHead->next;
 800b27c:	6803      	ldr	r3, [r0, #0]
  int size = 0;
 800b27e:	2000      	movs	r0, #0
  while (temp != listHead)
 800b280:	e001      	b.n	800b286 <list_get_size+0x12>
  {
    size++;
 800b282:	3001      	adds	r0, #1
    temp = temp->next;		
 800b284:	681b      	ldr	r3, [r3, #0]
  while (temp != listHead)
 800b286:	4293      	cmp	r3, r2
 800b288:	d1fb      	bne.n	800b282 <list_get_size+0xe>
  __ASM volatile ("MSR primask, %0" : : "r" (priMask) : "memory");
 800b28a:	f381 8810 	msr	PRIMASK, r1
  }
  
  __set_PRIMASK(uwPRIMASK_Bit);     /**< Restore PRIMASK bit*/
  
  return (size);
}
 800b28e:	4770      	bx	lr

0800b290 <USBD_CDC_EP0_RxReady>:
  *         Handle EP0 Rx Ready event
  * @param  pdev: device instance
  * @retval status
  */
static uint8_t USBD_CDC_EP0_RxReady(USBD_HandleTypeDef *pdev)
{
 800b290:	b510      	push	{r4, lr}
  USBD_CDC_HandleTypeDef *hcdc = (USBD_CDC_HandleTypeDef *)pdev->pClassData;
 800b292:	f8d0 42bc 	ldr.w	r4, [r0, #700]	; 0x2bc

  if (hcdc == NULL)
 800b296:	b184      	cbz	r4, 800b2ba <USBD_CDC_EP0_RxReady+0x2a>
  {
    return (uint8_t)USBD_FAIL;
  }

  if ((pdev->pUserData != NULL) && (hcdc->CmdOpCode != 0xFFU))
 800b298:	f8d0 32c0 	ldr.w	r3, [r0, #704]	; 0x2c0
 800b29c:	b17b      	cbz	r3, 800b2be <USBD_CDC_EP0_RxReady+0x2e>
 800b29e:	f894 0200 	ldrb.w	r0, [r4, #512]	; 0x200
 800b2a2:	28ff      	cmp	r0, #255	; 0xff
 800b2a4:	d00d      	beq.n	800b2c2 <USBD_CDC_EP0_RxReady+0x32>
  {
    ((USBD_CDC_ItfTypeDef *)pdev->pUserData)->Control(hcdc->CmdOpCode,
 800b2a6:	689b      	ldr	r3, [r3, #8]
 800b2a8:	f894 2201 	ldrb.w	r2, [r4, #513]	; 0x201
 800b2ac:	4621      	mov	r1, r4
 800b2ae:	4798      	blx	r3
                                                      (uint8_t *)hcdc->data,
                                                      (uint16_t)hcdc->CmdLength);
    hcdc->CmdOpCode = 0xFFU;
 800b2b0:	23ff      	movs	r3, #255	; 0xff
 800b2b2:	f884 3200 	strb.w	r3, [r4, #512]	; 0x200
  }

  return (uint8_t)USBD_OK;
 800b2b6:	2000      	movs	r0, #0
}
 800b2b8:	bd10      	pop	{r4, pc}
    return (uint8_t)USBD_FAIL;
 800b2ba:	2003      	movs	r0, #3
 800b2bc:	e7fc      	b.n	800b2b8 <USBD_CDC_EP0_RxReady+0x28>
  return (uint8_t)USBD_OK;
 800b2be:	2000      	movs	r0, #0
 800b2c0:	e7fa      	b.n	800b2b8 <USBD_CDC_EP0_RxReady+0x28>
 800b2c2:	2000      	movs	r0, #0
 800b2c4:	e7f8      	b.n	800b2b8 <USBD_CDC_EP0_RxReady+0x28>
	...

0800b2c8 <USBD_CDC_GetFSCfgDesc>:
  * @param  length : pointer data length
  * @retval pointer to descriptor buffer
  */
static uint8_t *USBD_CDC_GetFSCfgDesc(uint16_t *length)
{
  *length = (uint16_t)sizeof(USBD_CDC_CfgFSDesc);
 800b2c8:	2343      	movs	r3, #67	; 0x43
 800b2ca:	8003      	strh	r3, [r0, #0]

  return USBD_CDC_CfgFSDesc;
}
 800b2cc:	4800      	ldr	r0, [pc, #0]	; (800b2d0 <USBD_CDC_GetFSCfgDesc+0x8>)
 800b2ce:	4770      	bx	lr
 800b2d0:	20000088 	.word	0x20000088

0800b2d4 <USBD_CDC_GetHSCfgDesc>:
  * @param  length : pointer data length
  * @retval pointer to descriptor buffer
  */
static uint8_t *USBD_CDC_GetHSCfgDesc(uint16_t *length)
{
  *length = (uint16_t)sizeof(USBD_CDC_CfgHSDesc);
 800b2d4:	2343      	movs	r3, #67	; 0x43
 800b2d6:	8003      	strh	r3, [r0, #0]

  return USBD_CDC_CfgHSDesc;
}
 800b2d8:	4800      	ldr	r0, [pc, #0]	; (800b2dc <USBD_CDC_GetHSCfgDesc+0x8>)
 800b2da:	4770      	bx	lr
 800b2dc:	200000cc 	.word	0x200000cc

0800b2e0 <USBD_CDC_GetOtherSpeedCfgDesc>:
  * @param  length : pointer data length
  * @retval pointer to descriptor buffer
  */
static uint8_t *USBD_CDC_GetOtherSpeedCfgDesc(uint16_t *length)
{
  *length = (uint16_t)sizeof(USBD_CDC_OtherSpeedCfgDesc);
 800b2e0:	2343      	movs	r3, #67	; 0x43
 800b2e2:	8003      	strh	r3, [r0, #0]

  return USBD_CDC_OtherSpeedCfgDesc;
}
 800b2e4:	4800      	ldr	r0, [pc, #0]	; (800b2e8 <USBD_CDC_GetOtherSpeedCfgDesc+0x8>)
 800b2e6:	4770      	bx	lr
 800b2e8:	20000110 	.word	0x20000110

0800b2ec <USBD_CDC_GetDeviceQualifierDescriptor>:
  * @param  length : pointer data length
  * @retval pointer to descriptor buffer
  */
uint8_t *USBD_CDC_GetDeviceQualifierDescriptor(uint16_t *length)
{
  *length = (uint16_t)sizeof(USBD_CDC_DeviceQualifierDesc);
 800b2ec:	230a      	movs	r3, #10
 800b2ee:	8003      	strh	r3, [r0, #0]

  return USBD_CDC_DeviceQualifierDesc;
}
 800b2f0:	4800      	ldr	r0, [pc, #0]	; (800b2f4 <USBD_CDC_GetDeviceQualifierDescriptor+0x8>)
 800b2f2:	4770      	bx	lr
 800b2f4:	20000154 	.word	0x20000154

0800b2f8 <USBD_CDC_DataOut>:
{
 800b2f8:	b538      	push	{r3, r4, r5, lr}
  USBD_CDC_HandleTypeDef *hcdc = (USBD_CDC_HandleTypeDef *)pdev->pClassData;
 800b2fa:	f8d0 52bc 	ldr.w	r5, [r0, #700]	; 0x2bc
  if (pdev->pClassData == NULL)
 800b2fe:	b175      	cbz	r5, 800b31e <USBD_CDC_DataOut+0x26>
 800b300:	4604      	mov	r4, r0
  hcdc->RxLength = USBD_LL_GetRxDataSize(pdev, epnum);
 800b302:	f7fb f9b7 	bl	8006674 <USBD_LL_GetRxDataSize>
 800b306:	f8c5 020c 	str.w	r0, [r5, #524]	; 0x20c
  ((USBD_CDC_ItfTypeDef *)pdev->pUserData)->Receive(hcdc->RxBuffer, &hcdc->RxLength);
 800b30a:	f8d4 32c0 	ldr.w	r3, [r4, #704]	; 0x2c0
 800b30e:	68db      	ldr	r3, [r3, #12]
 800b310:	f505 7103 	add.w	r1, r5, #524	; 0x20c
 800b314:	f8d5 0204 	ldr.w	r0, [r5, #516]	; 0x204
 800b318:	4798      	blx	r3
  return (uint8_t)USBD_OK;
 800b31a:	2000      	movs	r0, #0
}
 800b31c:	bd38      	pop	{r3, r4, r5, pc}
    return (uint8_t)USBD_FAIL;
 800b31e:	2003      	movs	r0, #3
 800b320:	e7fc      	b.n	800b31c <USBD_CDC_DataOut+0x24>

0800b322 <USBD_CDC_DataIn>:
{
 800b322:	b510      	push	{r4, lr}
  PCD_HandleTypeDef *hpcd = pdev->pData;
 800b324:	f8d0 42c4 	ldr.w	r4, [r0, #708]	; 0x2c4
  if (pdev->pClassData == NULL)
 800b328:	f8d0 32bc 	ldr.w	r3, [r0, #700]	; 0x2bc
 800b32c:	b353      	cbz	r3, 800b384 <USBD_CDC_DataIn+0x62>
  if ((pdev->ep_in[epnum].total_length > 0U) &&
 800b32e:	eb01 0281 	add.w	r2, r1, r1, lsl #2
 800b332:	eb00 0282 	add.w	r2, r0, r2, lsl #2
 800b336:	6992      	ldr	r2, [r2, #24]
 800b338:	b14a      	cbz	r2, 800b34e <USBD_CDC_DataIn+0x2c>
      ((pdev->ep_in[epnum].total_length % hpcd->IN_ep[epnum].maxpacket) == 0U))
 800b33a:	ebc1 0cc1 	rsb	ip, r1, r1, lsl #3
 800b33e:	eb04 048c 	add.w	r4, r4, ip, lsl #2
 800b342:	6c64      	ldr	r4, [r4, #68]	; 0x44
 800b344:	fbb2 fcf4 	udiv	ip, r2, r4
 800b348:	fb04 221c 	mls	r2, r4, ip, r2
  if ((pdev->ep_in[epnum].total_length > 0U) &&
 800b34c:	b172      	cbz	r2, 800b36c <USBD_CDC_DataIn+0x4a>
    hcdc->TxState = 0U;
 800b34e:	2200      	movs	r2, #0
 800b350:	f8c3 2214 	str.w	r2, [r3, #532]	; 0x214
    if (((USBD_CDC_ItfTypeDef *)pdev->pUserData)->TransmitCplt != NULL)
 800b354:	f8d0 22c0 	ldr.w	r2, [r0, #704]	; 0x2c0
 800b358:	6914      	ldr	r4, [r2, #16]
 800b35a:	b1ac      	cbz	r4, 800b388 <USBD_CDC_DataIn+0x66>
      ((USBD_CDC_ItfTypeDef *)pdev->pUserData)->TransmitCplt(hcdc->TxBuffer, &hcdc->TxLength, epnum);
 800b35c:	460a      	mov	r2, r1
 800b35e:	f503 7104 	add.w	r1, r3, #528	; 0x210
 800b362:	f8d3 0208 	ldr.w	r0, [r3, #520]	; 0x208
 800b366:	47a0      	blx	r4
  return (uint8_t)USBD_OK;
 800b368:	2000      	movs	r0, #0
}
 800b36a:	bd10      	pop	{r4, pc}
    pdev->ep_in[epnum].total_length = 0U;
 800b36c:	eb01 0381 	add.w	r3, r1, r1, lsl #2
 800b370:	eb00 0383 	add.w	r3, r0, r3, lsl #2
 800b374:	2400      	movs	r4, #0
 800b376:	619c      	str	r4, [r3, #24]
    (void)USBD_LL_Transmit(pdev, epnum, NULL, 0U);
 800b378:	4623      	mov	r3, r4
 800b37a:	4622      	mov	r2, r4
 800b37c:	f7fb f96c 	bl	8006658 <USBD_LL_Transmit>
  return (uint8_t)USBD_OK;
 800b380:	4620      	mov	r0, r4
    (void)USBD_LL_Transmit(pdev, epnum, NULL, 0U);
 800b382:	e7f2      	b.n	800b36a <USBD_CDC_DataIn+0x48>
    return (uint8_t)USBD_FAIL;
 800b384:	2003      	movs	r0, #3
 800b386:	e7f0      	b.n	800b36a <USBD_CDC_DataIn+0x48>
  return (uint8_t)USBD_OK;
 800b388:	2000      	movs	r0, #0
 800b38a:	e7ee      	b.n	800b36a <USBD_CDC_DataIn+0x48>

0800b38c <USBD_CDC_Setup>:
{
 800b38c:	b5f0      	push	{r4, r5, r6, r7, lr}
 800b38e:	b083      	sub	sp, #12
  USBD_CDC_HandleTypeDef *hcdc = (USBD_CDC_HandleTypeDef *)pdev->pClassData;
 800b390:	f8d0 62bc 	ldr.w	r6, [r0, #700]	; 0x2bc
  uint8_t ifalt = 0U;
 800b394:	2300      	movs	r3, #0
 800b396:	f88d 3007 	strb.w	r3, [sp, #7]
  uint16_t status_info = 0U;
 800b39a:	f8ad 3004 	strh.w	r3, [sp, #4]
  if (hcdc == NULL)
 800b39e:	2e00      	cmp	r6, #0
 800b3a0:	d06c      	beq.n	800b47c <USBD_CDC_Setup+0xf0>
 800b3a2:	4607      	mov	r7, r0
 800b3a4:	460c      	mov	r4, r1
  switch (req->bmRequest & USB_REQ_TYPE_MASK)
 800b3a6:	780b      	ldrb	r3, [r1, #0]
 800b3a8:	f013 0560 	ands.w	r5, r3, #96	; 0x60
 800b3ac:	d02a      	beq.n	800b404 <USBD_CDC_Setup+0x78>
 800b3ae:	2d20      	cmp	r5, #32
 800b3b0:	d15e      	bne.n	800b470 <USBD_CDC_Setup+0xe4>
      if (req->wLength != 0U)
 800b3b2:	88ca      	ldrh	r2, [r1, #6]
 800b3b4:	b1f2      	cbz	r2, 800b3f4 <USBD_CDC_Setup+0x68>
        if ((req->bmRequest & 0x80U) != 0U)
 800b3b6:	f013 0f80 	tst.w	r3, #128	; 0x80
 800b3ba:	d00f      	beq.n	800b3dc <USBD_CDC_Setup+0x50>
          ((USBD_CDC_ItfTypeDef *)pdev->pUserData)->Control(req->bRequest,
 800b3bc:	f8d0 32c0 	ldr.w	r3, [r0, #704]	; 0x2c0
 800b3c0:	689b      	ldr	r3, [r3, #8]
 800b3c2:	4631      	mov	r1, r6
 800b3c4:	7860      	ldrb	r0, [r4, #1]
 800b3c6:	4798      	blx	r3
          len = MIN(CDC_REQ_MAX_DATA_SIZE, req->wLength);
 800b3c8:	88e2      	ldrh	r2, [r4, #6]
          (void)USBD_CtlSendData(pdev, (uint8_t *)hcdc->data, len);
 800b3ca:	2a07      	cmp	r2, #7
 800b3cc:	bf28      	it	cs
 800b3ce:	2207      	movcs	r2, #7
 800b3d0:	4631      	mov	r1, r6
 800b3d2:	4638      	mov	r0, r7
 800b3d4:	f000 fdfa 	bl	800bfcc <USBD_CtlSendData>
  USBD_StatusTypeDef ret = USBD_OK;
 800b3d8:	2500      	movs	r5, #0
 800b3da:	e04c      	b.n	800b476 <USBD_CDC_Setup+0xea>
          hcdc->CmdOpCode = req->bRequest;
 800b3dc:	784b      	ldrb	r3, [r1, #1]
 800b3de:	f886 3200 	strb.w	r3, [r6, #512]	; 0x200
          hcdc->CmdLength = (uint8_t)req->wLength;
 800b3e2:	798b      	ldrb	r3, [r1, #6]
 800b3e4:	f886 3201 	strb.w	r3, [r6, #513]	; 0x201
          (void)USBD_CtlPrepareRx(pdev, (uint8_t *)hcdc->data, req->wLength);
 800b3e8:	88ca      	ldrh	r2, [r1, #6]
 800b3ea:	4631      	mov	r1, r6
 800b3ec:	f000 fe03 	bl	800bff6 <USBD_CtlPrepareRx>
  USBD_StatusTypeDef ret = USBD_OK;
 800b3f0:	2500      	movs	r5, #0
 800b3f2:	e040      	b.n	800b476 <USBD_CDC_Setup+0xea>
        ((USBD_CDC_ItfTypeDef *)pdev->pUserData)->Control(req->bRequest,
 800b3f4:	f8d0 32c0 	ldr.w	r3, [r0, #704]	; 0x2c0
 800b3f8:	689b      	ldr	r3, [r3, #8]
 800b3fa:	2200      	movs	r2, #0
 800b3fc:	7848      	ldrb	r0, [r1, #1]
 800b3fe:	4798      	blx	r3
  USBD_StatusTypeDef ret = USBD_OK;
 800b400:	2500      	movs	r5, #0
 800b402:	e038      	b.n	800b476 <USBD_CDC_Setup+0xea>
      switch (req->bRequest)
 800b404:	784e      	ldrb	r6, [r1, #1]
 800b406:	2e0b      	cmp	r6, #11
 800b408:	d82e      	bhi.n	800b468 <USBD_CDC_Setup+0xdc>
 800b40a:	e8df f006 	tbb	[pc, r6]
 800b40e:	3406      	.short	0x3406
 800b410:	2d2d2d2d 	.word	0x2d2d2d2d
 800b414:	2d2d2d2d 	.word	0x2d2d2d2d
 800b418:	2415      	.short	0x2415
          if (pdev->dev_state == USBD_STATE_CONFIGURED)
 800b41a:	f890 329c 	ldrb.w	r3, [r0, #668]	; 0x29c
 800b41e:	b2db      	uxtb	r3, r3
 800b420:	2b03      	cmp	r3, #3
 800b422:	d003      	beq.n	800b42c <USBD_CDC_Setup+0xa0>
            USBD_CtlError(pdev, req);
 800b424:	f000 faa9 	bl	800b97a <USBD_CtlError>
            ret = USBD_FAIL;
 800b428:	2503      	movs	r5, #3
 800b42a:	e024      	b.n	800b476 <USBD_CDC_Setup+0xea>
            (void)USBD_CtlSendData(pdev, (uint8_t *)&status_info, 2U);
 800b42c:	2202      	movs	r2, #2
 800b42e:	a901      	add	r1, sp, #4
 800b430:	f000 fdcc 	bl	800bfcc <USBD_CtlSendData>
  USBD_StatusTypeDef ret = USBD_OK;
 800b434:	4635      	mov	r5, r6
 800b436:	e01e      	b.n	800b476 <USBD_CDC_Setup+0xea>
          if (pdev->dev_state == USBD_STATE_CONFIGURED)
 800b438:	f890 329c 	ldrb.w	r3, [r0, #668]	; 0x29c
 800b43c:	b2db      	uxtb	r3, r3
 800b43e:	2b03      	cmp	r3, #3
 800b440:	d003      	beq.n	800b44a <USBD_CDC_Setup+0xbe>
            USBD_CtlError(pdev, req);
 800b442:	f000 fa9a 	bl	800b97a <USBD_CtlError>
            ret = USBD_FAIL;
 800b446:	2503      	movs	r5, #3
 800b448:	e015      	b.n	800b476 <USBD_CDC_Setup+0xea>
            (void)USBD_CtlSendData(pdev, &ifalt, 1U);
 800b44a:	2201      	movs	r2, #1
 800b44c:	f10d 0107 	add.w	r1, sp, #7
 800b450:	f000 fdbc 	bl	800bfcc <USBD_CtlSendData>
 800b454:	e00f      	b.n	800b476 <USBD_CDC_Setup+0xea>
          if (pdev->dev_state != USBD_STATE_CONFIGURED)
 800b456:	f890 329c 	ldrb.w	r3, [r0, #668]	; 0x29c
 800b45a:	b2db      	uxtb	r3, r3
 800b45c:	2b03      	cmp	r3, #3
 800b45e:	d00a      	beq.n	800b476 <USBD_CDC_Setup+0xea>
            USBD_CtlError(pdev, req);
 800b460:	f000 fa8b 	bl	800b97a <USBD_CtlError>
            ret = USBD_FAIL;
 800b464:	2503      	movs	r5, #3
 800b466:	e006      	b.n	800b476 <USBD_CDC_Setup+0xea>
          USBD_CtlError(pdev, req);
 800b468:	f000 fa87 	bl	800b97a <USBD_CtlError>
          ret = USBD_FAIL;
 800b46c:	2503      	movs	r5, #3
          break;
 800b46e:	e002      	b.n	800b476 <USBD_CDC_Setup+0xea>
      USBD_CtlError(pdev, req);
 800b470:	f000 fa83 	bl	800b97a <USBD_CtlError>
      ret = USBD_FAIL;
 800b474:	2503      	movs	r5, #3
}
 800b476:	4628      	mov	r0, r5
 800b478:	b003      	add	sp, #12
 800b47a:	bdf0      	pop	{r4, r5, r6, r7, pc}
    return (uint8_t)USBD_FAIL;
 800b47c:	2503      	movs	r5, #3
 800b47e:	e7fa      	b.n	800b476 <USBD_CDC_Setup+0xea>

0800b480 <USBD_CDC_DeInit>:
{
 800b480:	b538      	push	{r3, r4, r5, lr}
 800b482:	4604      	mov	r4, r0
  (void)USBD_LL_CloseEP(pdev, CDC_IN_EP);
 800b484:	2181      	movs	r1, #129	; 0x81
 800b486:	f7fb f8b4 	bl	80065f2 <USBD_LL_CloseEP>
  pdev->ep_in[CDC_IN_EP & 0xFU].is_used = 0U;
 800b48a:	2500      	movs	r5, #0
 800b48c:	8725      	strh	r5, [r4, #56]	; 0x38
  (void)USBD_LL_CloseEP(pdev, CDC_OUT_EP);
 800b48e:	2101      	movs	r1, #1
 800b490:	4620      	mov	r0, r4
 800b492:	f7fb f8ae 	bl	80065f2 <USBD_LL_CloseEP>
  pdev->ep_out[CDC_OUT_EP & 0xFU].is_used = 0U;
 800b496:	f8a4 5178 	strh.w	r5, [r4, #376]	; 0x178
  (void)USBD_LL_CloseEP(pdev, CDC_CMD_EP);
 800b49a:	2182      	movs	r1, #130	; 0x82
 800b49c:	4620      	mov	r0, r4
 800b49e:	f7fb f8a8 	bl	80065f2 <USBD_LL_CloseEP>
  pdev->ep_in[CDC_CMD_EP & 0xFU].is_used = 0U;
 800b4a2:	f8a4 504c 	strh.w	r5, [r4, #76]	; 0x4c
  pdev->ep_in[CDC_CMD_EP & 0xFU].bInterval = 0U;
 800b4a6:	f8a4 504e 	strh.w	r5, [r4, #78]	; 0x4e
  if (pdev->pClassData != NULL)
 800b4aa:	f8d4 32bc 	ldr.w	r3, [r4, #700]	; 0x2bc
 800b4ae:	b14b      	cbz	r3, 800b4c4 <USBD_CDC_DeInit+0x44>
    ((USBD_CDC_ItfTypeDef *)pdev->pUserData)->DeInit();
 800b4b0:	f8d4 32c0 	ldr.w	r3, [r4, #704]	; 0x2c0
 800b4b4:	685b      	ldr	r3, [r3, #4]
 800b4b6:	4798      	blx	r3
    (void)USBD_free(pdev->pClassData);
 800b4b8:	f8d4 02bc 	ldr.w	r0, [r4, #700]	; 0x2bc
 800b4bc:	f002 f874 	bl	800d5a8 <free>
    pdev->pClassData = NULL;
 800b4c0:	f8c4 52bc 	str.w	r5, [r4, #700]	; 0x2bc
}
 800b4c4:	2000      	movs	r0, #0
 800b4c6:	bd38      	pop	{r3, r4, r5, pc}

0800b4c8 <USBD_CDC_Init>:
{
 800b4c8:	b570      	push	{r4, r5, r6, lr}
 800b4ca:	4604      	mov	r4, r0
  hcdc = USBD_malloc(sizeof(USBD_CDC_HandleTypeDef));
 800b4cc:	f44f 7007 	mov.w	r0, #540	; 0x21c
 800b4d0:	f002 f862 	bl	800d598 <malloc>
  if (hcdc == NULL)
 800b4d4:	b3b8      	cbz	r0, 800b546 <USBD_CDC_Init+0x7e>
 800b4d6:	4606      	mov	r6, r0
  pdev->pClassData = (void *)hcdc;
 800b4d8:	f8c4 02bc 	str.w	r0, [r4, #700]	; 0x2bc
  if (pdev->dev_speed == USBD_SPEED_HIGH)
 800b4dc:	7c23      	ldrb	r3, [r4, #16]
 800b4de:	bbbb      	cbnz	r3, 800b550 <USBD_CDC_Init+0x88>
    (void)USBD_LL_OpenEP(pdev, CDC_IN_EP, USBD_EP_TYPE_BULK,
 800b4e0:	f44f 7300 	mov.w	r3, #512	; 0x200
 800b4e4:	2202      	movs	r2, #2
 800b4e6:	2181      	movs	r1, #129	; 0x81
 800b4e8:	4620      	mov	r0, r4
 800b4ea:	f7fb f878 	bl	80065de <USBD_LL_OpenEP>
    pdev->ep_in[CDC_IN_EP & 0xFU].is_used = 1U;
 800b4ee:	2501      	movs	r5, #1
 800b4f0:	8725      	strh	r5, [r4, #56]	; 0x38
    (void)USBD_LL_OpenEP(pdev, CDC_OUT_EP, USBD_EP_TYPE_BULK,
 800b4f2:	f44f 7300 	mov.w	r3, #512	; 0x200
 800b4f6:	2202      	movs	r2, #2
 800b4f8:	4629      	mov	r1, r5
 800b4fa:	4620      	mov	r0, r4
 800b4fc:	f7fb f86f 	bl	80065de <USBD_LL_OpenEP>
    pdev->ep_out[CDC_OUT_EP & 0xFU].is_used = 1U;
 800b500:	f8a4 5178 	strh.w	r5, [r4, #376]	; 0x178
    pdev->ep_in[CDC_CMD_EP & 0xFU].bInterval = CDC_HS_BINTERVAL;
 800b504:	2310      	movs	r3, #16
 800b506:	f8a4 304e 	strh.w	r3, [r4, #78]	; 0x4e
  (void)USBD_LL_OpenEP(pdev, CDC_CMD_EP, USBD_EP_TYPE_INTR, CDC_CMD_PACKET_SIZE);
 800b50a:	2308      	movs	r3, #8
 800b50c:	2203      	movs	r2, #3
 800b50e:	2182      	movs	r1, #130	; 0x82
 800b510:	4620      	mov	r0, r4
 800b512:	f7fb f864 	bl	80065de <USBD_LL_OpenEP>
  pdev->ep_in[CDC_CMD_EP & 0xFU].is_used = 1U;
 800b516:	2301      	movs	r3, #1
 800b518:	f8a4 304c 	strh.w	r3, [r4, #76]	; 0x4c
  ((USBD_CDC_ItfTypeDef *)pdev->pUserData)->Init();
 800b51c:	f8d4 32c0 	ldr.w	r3, [r4, #704]	; 0x2c0
 800b520:	681b      	ldr	r3, [r3, #0]
 800b522:	4798      	blx	r3
  hcdc->TxState = 0U;
 800b524:	2300      	movs	r3, #0
 800b526:	f8c6 3214 	str.w	r3, [r6, #532]	; 0x214
  hcdc->RxState = 0U;
 800b52a:	f8c6 3218 	str.w	r3, [r6, #536]	; 0x218
  if (pdev->dev_speed == USBD_SPEED_HIGH)
 800b52e:	7c25      	ldrb	r5, [r4, #16]
 800b530:	bb15      	cbnz	r5, 800b578 <USBD_CDC_Init+0xb0>
    (void)USBD_LL_PrepareReceive(pdev, CDC_OUT_EP, hcdc->RxBuffer,
 800b532:	f44f 7300 	mov.w	r3, #512	; 0x200
 800b536:	f8d6 2204 	ldr.w	r2, [r6, #516]	; 0x204
 800b53a:	2101      	movs	r1, #1
 800b53c:	4620      	mov	r0, r4
 800b53e:	f7fb f892 	bl	8006666 <USBD_LL_PrepareReceive>
}
 800b542:	4628      	mov	r0, r5
 800b544:	bd70      	pop	{r4, r5, r6, pc}
    pdev->pClassData = NULL;
 800b546:	2300      	movs	r3, #0
 800b548:	f8c4 32bc 	str.w	r3, [r4, #700]	; 0x2bc
    return (uint8_t)USBD_EMEM;
 800b54c:	2502      	movs	r5, #2
 800b54e:	e7f8      	b.n	800b542 <USBD_CDC_Init+0x7a>
    (void)USBD_LL_OpenEP(pdev, CDC_IN_EP, USBD_EP_TYPE_BULK,
 800b550:	2340      	movs	r3, #64	; 0x40
 800b552:	2202      	movs	r2, #2
 800b554:	2181      	movs	r1, #129	; 0x81
 800b556:	4620      	mov	r0, r4
 800b558:	f7fb f841 	bl	80065de <USBD_LL_OpenEP>
    pdev->ep_in[CDC_IN_EP & 0xFU].is_used = 1U;
 800b55c:	2501      	movs	r5, #1
 800b55e:	8725      	strh	r5, [r4, #56]	; 0x38
    (void)USBD_LL_OpenEP(pdev, CDC_OUT_EP, USBD_EP_TYPE_BULK,
 800b560:	2340      	movs	r3, #64	; 0x40
 800b562:	2202      	movs	r2, #2
 800b564:	4629      	mov	r1, r5
 800b566:	4620      	mov	r0, r4
 800b568:	f7fb f839 	bl	80065de <USBD_LL_OpenEP>
    pdev->ep_out[CDC_OUT_EP & 0xFU].is_used = 1U;
 800b56c:	f8a4 5178 	strh.w	r5, [r4, #376]	; 0x178
    pdev->ep_in[CDC_CMD_EP & 0xFU].bInterval = CDC_FS_BINTERVAL;
 800b570:	2310      	movs	r3, #16
 800b572:	f8a4 304e 	strh.w	r3, [r4, #78]	; 0x4e
 800b576:	e7c8      	b.n	800b50a <USBD_CDC_Init+0x42>
    (void)USBD_LL_PrepareReceive(pdev, CDC_OUT_EP, hcdc->RxBuffer,
 800b578:	2340      	movs	r3, #64	; 0x40
 800b57a:	f8d6 2204 	ldr.w	r2, [r6, #516]	; 0x204
 800b57e:	2101      	movs	r1, #1
 800b580:	4620      	mov	r0, r4
 800b582:	f7fb f870 	bl	8006666 <USBD_LL_PrepareReceive>
  return (uint8_t)USBD_OK;
 800b586:	2500      	movs	r5, #0
 800b588:	e7db      	b.n	800b542 <USBD_CDC_Init+0x7a>

0800b58a <USBD_CDC_RegisterInterface>:
  * @retval status
  */
uint8_t USBD_CDC_RegisterInterface(USBD_HandleTypeDef *pdev,
                                   USBD_CDC_ItfTypeDef *fops)
{
  if (fops == NULL)
 800b58a:	b119      	cbz	r1, 800b594 <USBD_CDC_RegisterInterface+0xa>
  {
    return (uint8_t)USBD_FAIL;
  }

  pdev->pUserData = fops;
 800b58c:	f8c0 12c0 	str.w	r1, [r0, #704]	; 0x2c0

  return (uint8_t)USBD_OK;
 800b590:	2000      	movs	r0, #0
 800b592:	4770      	bx	lr
    return (uint8_t)USBD_FAIL;
 800b594:	2003      	movs	r0, #3
}
 800b596:	4770      	bx	lr

0800b598 <USBD_CDC_SetTxBuffer>:
  * @retval status
  */
uint8_t USBD_CDC_SetTxBuffer(USBD_HandleTypeDef *pdev,
                             uint8_t *pbuff, uint32_t length)
{
  USBD_CDC_HandleTypeDef *hcdc = (USBD_CDC_HandleTypeDef *)pdev->pClassData;
 800b598:	f8d0 32bc 	ldr.w	r3, [r0, #700]	; 0x2bc

  if (hcdc == NULL)
 800b59c:	b12b      	cbz	r3, 800b5aa <USBD_CDC_SetTxBuffer+0x12>
  {
    return (uint8_t)USBD_FAIL;
  }

  hcdc->TxBuffer = pbuff;
 800b59e:	f8c3 1208 	str.w	r1, [r3, #520]	; 0x208
  hcdc->TxLength = length;
 800b5a2:	f8c3 2210 	str.w	r2, [r3, #528]	; 0x210

  return (uint8_t)USBD_OK;
 800b5a6:	2000      	movs	r0, #0
 800b5a8:	4770      	bx	lr
    return (uint8_t)USBD_FAIL;
 800b5aa:	2003      	movs	r0, #3
}
 800b5ac:	4770      	bx	lr

0800b5ae <USBD_CDC_SetRxBuffer>:
  * @param  pbuff: Rx Buffer
  * @retval status
  */
uint8_t USBD_CDC_SetRxBuffer(USBD_HandleTypeDef *pdev, uint8_t *pbuff)
{
  USBD_CDC_HandleTypeDef *hcdc = (USBD_CDC_HandleTypeDef *)pdev->pClassData;
 800b5ae:	f8d0 32bc 	ldr.w	r3, [r0, #700]	; 0x2bc

  if (hcdc == NULL)
 800b5b2:	b11b      	cbz	r3, 800b5bc <USBD_CDC_SetRxBuffer+0xe>
  {
    return (uint8_t)USBD_FAIL;
  }

  hcdc->RxBuffer = pbuff;
 800b5b4:	f8c3 1204 	str.w	r1, [r3, #516]	; 0x204

  return (uint8_t)USBD_OK;
 800b5b8:	2000      	movs	r0, #0
 800b5ba:	4770      	bx	lr
    return (uint8_t)USBD_FAIL;
 800b5bc:	2003      	movs	r0, #3
}
 800b5be:	4770      	bx	lr

0800b5c0 <USBD_CDC_TransmitPacket>:
  * @param  pdev: device instance
  * @retval status
  */
uint8_t USBD_CDC_TransmitPacket(USBD_HandleTypeDef *pdev)
{
  USBD_CDC_HandleTypeDef *hcdc = (USBD_CDC_HandleTypeDef *)pdev->pClassData;
 800b5c0:	f8d0 22bc 	ldr.w	r2, [r0, #700]	; 0x2bc
  USBD_StatusTypeDef ret = USBD_BUSY;

  if (pdev->pClassData == NULL)
 800b5c4:	b1a2      	cbz	r2, 800b5f0 <USBD_CDC_TransmitPacket+0x30>
{
 800b5c6:	b508      	push	{r3, lr}
  {
    return (uint8_t)USBD_FAIL;
  }

  if (hcdc->TxState == 0U)
 800b5c8:	f8d2 3214 	ldr.w	r3, [r2, #532]	; 0x214
 800b5cc:	b10b      	cbz	r3, 800b5d2 <USBD_CDC_TransmitPacket+0x12>
  USBD_StatusTypeDef ret = USBD_BUSY;
 800b5ce:	2001      	movs	r0, #1

    ret = USBD_OK;
  }

  return (uint8_t)ret;
}
 800b5d0:	bd08      	pop	{r3, pc}
    hcdc->TxState = 1U;
 800b5d2:	2301      	movs	r3, #1
 800b5d4:	f8c2 3214 	str.w	r3, [r2, #532]	; 0x214
    pdev->ep_in[CDC_IN_EP & 0xFU].total_length = hcdc->TxLength;
 800b5d8:	f8d2 3210 	ldr.w	r3, [r2, #528]	; 0x210
 800b5dc:	62c3      	str	r3, [r0, #44]	; 0x2c
    (void)USBD_LL_Transmit(pdev, CDC_IN_EP, hcdc->TxBuffer, hcdc->TxLength);
 800b5de:	f8d2 3210 	ldr.w	r3, [r2, #528]	; 0x210
 800b5e2:	f8d2 2208 	ldr.w	r2, [r2, #520]	; 0x208
 800b5e6:	2181      	movs	r1, #129	; 0x81
 800b5e8:	f7fb f836 	bl	8006658 <USBD_LL_Transmit>
    ret = USBD_OK;
 800b5ec:	2000      	movs	r0, #0
 800b5ee:	e7ef      	b.n	800b5d0 <USBD_CDC_TransmitPacket+0x10>
    return (uint8_t)USBD_FAIL;
 800b5f0:	2003      	movs	r0, #3
}
 800b5f2:	4770      	bx	lr

0800b5f4 <USBD_Init>:
                             USBD_DescriptorsTypeDef *pdesc, uint8_t id)
{
  USBD_StatusTypeDef ret;

  /* Check whether the USB Host handle is valid */
  if (pdev == NULL)
 800b5f4:	b198      	cbz	r0, 800b61e <USBD_Init+0x2a>
{
 800b5f6:	b508      	push	{r3, lr}
 800b5f8:	4603      	mov	r3, r0
#endif
    return USBD_FAIL;
  }

  /* Unlink previous class resources */
  pdev->pClass = NULL;
 800b5fa:	2000      	movs	r0, #0
 800b5fc:	f8c3 02b8 	str.w	r0, [r3, #696]	; 0x2b8
  pdev->pUserData = NULL;
 800b600:	f8c3 02c0 	str.w	r0, [r3, #704]	; 0x2c0
  pdev->pConfDesc = NULL;
 800b604:	f8c3 02cc 	str.w	r0, [r3, #716]	; 0x2cc

  /* Assign USBD Descriptors */
  if (pdesc != NULL)
 800b608:	b109      	cbz	r1, 800b60e <USBD_Init+0x1a>
  {
    pdev->pDesc = pdesc;
 800b60a:	f8c3 12b4 	str.w	r1, [r3, #692]	; 0x2b4
  }

  /* Set Device initial State */
  pdev->dev_state = USBD_STATE_DEFAULT;
 800b60e:	2101      	movs	r1, #1
 800b610:	f883 129c 	strb.w	r1, [r3, #668]	; 0x29c
  pdev->id = id;
 800b614:	701a      	strb	r2, [r3, #0]

  /* Initialize low level driver */
  ret = USBD_LL_Init(pdev);
 800b616:	4618      	mov	r0, r3
 800b618:	f7fa ffac 	bl	8006574 <USBD_LL_Init>

  return ret;
}
 800b61c:	bd08      	pop	{r3, pc}
    return USBD_FAIL;
 800b61e:	2003      	movs	r0, #3
}
 800b620:	4770      	bx	lr

0800b622 <USBD_RegisterClass>:
  * @param  pDevice : Device Handle
  * @param  pclass: Class handle
  * @retval USBD Status
  */
USBD_StatusTypeDef USBD_RegisterClass(USBD_HandleTypeDef *pdev, USBD_ClassTypeDef *pclass)
{
 800b622:	b510      	push	{r4, lr}
 800b624:	b082      	sub	sp, #8
  uint16_t len = 0U;
 800b626:	2300      	movs	r3, #0
 800b628:	f8ad 3006 	strh.w	r3, [sp, #6]

  if (pclass == NULL)
 800b62c:	b161      	cbz	r1, 800b648 <USBD_RegisterClass+0x26>
 800b62e:	4604      	mov	r4, r0
#endif
    return USBD_FAIL;
  }

  /* link the class to the USB Device handle */
  pdev->pClass = pclass;
 800b630:	f8c0 12b8 	str.w	r1, [r0, #696]	; 0x2b8
  if (pdev->pClass->GetHSConfigDescriptor != NULL)
  {
    pdev->pConfDesc = (void *)pdev->pClass->GetHSConfigDescriptor(&len);
  }
#else /* Default USE_USB_FS */
  if (pdev->pClass->GetFSConfigDescriptor != NULL)
 800b634:	6acb      	ldr	r3, [r1, #44]	; 0x2c
 800b636:	b14b      	cbz	r3, 800b64c <USBD_RegisterClass+0x2a>
  {
    pdev->pConfDesc = (void *)pdev->pClass->GetFSConfigDescriptor(&len);
 800b638:	f10d 0006 	add.w	r0, sp, #6
 800b63c:	4798      	blx	r3
 800b63e:	f8c4 02cc 	str.w	r0, [r4, #716]	; 0x2cc
  }
#endif /* USE_USB_FS */

  return USBD_OK;
 800b642:	2000      	movs	r0, #0
}
 800b644:	b002      	add	sp, #8
 800b646:	bd10      	pop	{r4, pc}
    return USBD_FAIL;
 800b648:	2003      	movs	r0, #3
 800b64a:	e7fb      	b.n	800b644 <USBD_RegisterClass+0x22>
  return USBD_OK;
 800b64c:	2000      	movs	r0, #0
 800b64e:	e7f9      	b.n	800b644 <USBD_RegisterClass+0x22>

0800b650 <USBD_Start>:
  *         Start the USB Device Core.
  * @param  pdev: Device Handle
  * @retval USBD Status
  */
USBD_StatusTypeDef USBD_Start(USBD_HandleTypeDef *pdev)
{
 800b650:	b508      	push	{r3, lr}
  /* Start the low level driver  */
  return USBD_LL_Start(pdev);
 800b652:	f7fa ffbd 	bl	80065d0 <USBD_LL_Start>
}
 800b656:	bd08      	pop	{r3, pc}

0800b658 <USBD_SetClassConfig>:
  * @param  cfgidx: configuration index
  * @retval status
  */

USBD_StatusTypeDef USBD_SetClassConfig(USBD_HandleTypeDef *pdev, uint8_t cfgidx)
{
 800b658:	b508      	push	{r3, lr}
  USBD_StatusTypeDef ret = USBD_FAIL;

  if (pdev->pClass != NULL)
 800b65a:	f8d0 32b8 	ldr.w	r3, [r0, #696]	; 0x2b8
 800b65e:	b113      	cbz	r3, 800b666 <USBD_SetClassConfig+0xe>
  {
    /* Set configuration and Start the Class */
    ret = (USBD_StatusTypeDef)pdev->pClass->Init(pdev, cfgidx);
 800b660:	681b      	ldr	r3, [r3, #0]
 800b662:	4798      	blx	r3
  }

  return ret;
}
 800b664:	bd08      	pop	{r3, pc}
  USBD_StatusTypeDef ret = USBD_FAIL;
 800b666:	2003      	movs	r0, #3
 800b668:	e7fc      	b.n	800b664 <USBD_SetClassConfig+0xc>

0800b66a <USBD_ClrClassConfig>:
  * @param  pdev: device instance
  * @param  cfgidx: configuration index
  * @retval status: USBD_StatusTypeDef
  */
USBD_StatusTypeDef USBD_ClrClassConfig(USBD_HandleTypeDef *pdev, uint8_t cfgidx)
{
 800b66a:	b508      	push	{r3, lr}
  /* Clear configuration and De-initialize the Class process */
  if (pdev->pClass != NULL)
 800b66c:	f8d0 32b8 	ldr.w	r3, [r0, #696]	; 0x2b8
 800b670:	b10b      	cbz	r3, 800b676 <USBD_ClrClassConfig+0xc>
  {
    pdev->pClass->DeInit(pdev, cfgidx);
 800b672:	685b      	ldr	r3, [r3, #4]
 800b674:	4798      	blx	r3
  }

  return USBD_OK;
}
 800b676:	2000      	movs	r0, #0
 800b678:	bd08      	pop	{r3, pc}

0800b67a <USBD_LL_SetupStage>:
  *         Handle the setup stage
  * @param  pdev: device instance
  * @retval status
  */
USBD_StatusTypeDef USBD_LL_SetupStage(USBD_HandleTypeDef *pdev, uint8_t *psetup)
{
 800b67a:	b538      	push	{r3, r4, r5, lr}
 800b67c:	4604      	mov	r4, r0
  USBD_StatusTypeDef ret;

  USBD_ParseSetupRequest(&pdev->request, psetup);
 800b67e:	f200 25aa 	addw	r5, r0, #682	; 0x2aa
 800b682:	4628      	mov	r0, r5
 800b684:	f000 f965 	bl	800b952 <USBD_ParseSetupRequest>

  pdev->ep0_state = USBD_EP0_SETUP;
 800b688:	2301      	movs	r3, #1
 800b68a:	f8c4 3294 	str.w	r3, [r4, #660]	; 0x294

  pdev->ep0_data_len = pdev->request.wLength;
 800b68e:	f8b4 32b0 	ldrh.w	r3, [r4, #688]	; 0x2b0
 800b692:	f8c4 3298 	str.w	r3, [r4, #664]	; 0x298

  switch (pdev->request.bmRequest & 0x1FU)
 800b696:	f894 12aa 	ldrb.w	r1, [r4, #682]	; 0x2aa
 800b69a:	f001 031f 	and.w	r3, r1, #31
 800b69e:	2b01      	cmp	r3, #1
 800b6a0:	d00d      	beq.n	800b6be <USBD_LL_SetupStage+0x44>
 800b6a2:	2b02      	cmp	r3, #2
 800b6a4:	d010      	beq.n	800b6c8 <USBD_LL_SetupStage+0x4e>
 800b6a6:	b12b      	cbz	r3, 800b6b4 <USBD_LL_SetupStage+0x3a>
    case USB_REQ_RECIPIENT_ENDPOINT:
      ret = USBD_StdEPReq(pdev, &pdev->request);
      break;

    default:
      ret = USBD_LL_StallEP(pdev, (pdev->request.bmRequest & 0x80U));
 800b6a8:	f001 0180 	and.w	r1, r1, #128	; 0x80
 800b6ac:	4620      	mov	r0, r4
 800b6ae:	f7fa ffa7 	bl	8006600 <USBD_LL_StallEP>
      break;
 800b6b2:	e003      	b.n	800b6bc <USBD_LL_SetupStage+0x42>
      ret = USBD_StdDevReq(pdev, &pdev->request);
 800b6b4:	4629      	mov	r1, r5
 800b6b6:	4620      	mov	r0, r4
 800b6b8:	f000 fb09 	bl	800bcce <USBD_StdDevReq>
  }

  return ret;
}
 800b6bc:	bd38      	pop	{r3, r4, r5, pc}
      ret = USBD_StdItfReq(pdev, &pdev->request);
 800b6be:	4629      	mov	r1, r5
 800b6c0:	4620      	mov	r0, r4
 800b6c2:	f000 fb3c 	bl	800bd3e <USBD_StdItfReq>
      break;
 800b6c6:	e7f9      	b.n	800b6bc <USBD_LL_SetupStage+0x42>
      ret = USBD_StdEPReq(pdev, &pdev->request);
 800b6c8:	4629      	mov	r1, r5
 800b6ca:	4620      	mov	r0, r4
 800b6cc:	f000 fb6b 	bl	800bda6 <USBD_StdEPReq>
      break;
 800b6d0:	e7f4      	b.n	800b6bc <USBD_LL_SetupStage+0x42>

0800b6d2 <USBD_LL_DataOutStage>:
  * @param  pdata: data pointer
  * @retval status
  */
USBD_StatusTypeDef USBD_LL_DataOutStage(USBD_HandleTypeDef *pdev,
                                        uint8_t epnum, uint8_t *pdata)
{
 800b6d2:	b538      	push	{r3, r4, r5, lr}
 800b6d4:	4604      	mov	r4, r0
  USBD_EndpointTypeDef *pep;
  USBD_StatusTypeDef ret;

  if (epnum == 0U)
 800b6d6:	460d      	mov	r5, r1
 800b6d8:	bb41      	cbnz	r1, 800b72c <USBD_LL_DataOutStage+0x5a>
 800b6da:	4613      	mov	r3, r2
  {
    pep = &pdev->ep_out[0];

    if (pdev->ep0_state == USBD_EP0_DATA_OUT)
 800b6dc:	f8d0 2294 	ldr.w	r2, [r0, #660]	; 0x294
 800b6e0:	2a03      	cmp	r2, #3
 800b6e2:	d001      	beq.n	800b6e8 <USBD_LL_DataOutStage+0x16>
        }
      }
    }
  }

  return USBD_OK;
 800b6e4:	4608      	mov	r0, r1
}
 800b6e6:	bd38      	pop	{r3, r4, r5, pc}
      if (pep->rem_length > pep->maxpacket)
 800b6e8:	f8d0 115c 	ldr.w	r1, [r0, #348]	; 0x15c
 800b6ec:	f8d0 2160 	ldr.w	r2, [r0, #352]	; 0x160
 800b6f0:	4291      	cmp	r1, r2
 800b6f2:	d809      	bhi.n	800b708 <USBD_LL_DataOutStage+0x36>
        if (pdev->dev_state == USBD_STATE_CONFIGURED)
 800b6f4:	f890 329c 	ldrb.w	r3, [r0, #668]	; 0x29c
 800b6f8:	b2db      	uxtb	r3, r3
 800b6fa:	2b03      	cmp	r3, #3
 800b6fc:	d00f      	beq.n	800b71e <USBD_LL_DataOutStage+0x4c>
        (void)USBD_CtlSendStatus(pdev);
 800b6fe:	4620      	mov	r0, r4
 800b700:	f000 fc90 	bl	800c024 <USBD_CtlSendStatus>
  return USBD_OK;
 800b704:	4628      	mov	r0, r5
 800b706:	e7ee      	b.n	800b6e6 <USBD_LL_DataOutStage+0x14>
        pep->rem_length -= pep->maxpacket;
 800b708:	1a89      	subs	r1, r1, r2
 800b70a:	f8c0 115c 	str.w	r1, [r0, #348]	; 0x15c
        (void)USBD_CtlContinueRx(pdev, pdata, MIN(pep->rem_length, pep->maxpacket));
 800b70e:	428a      	cmp	r2, r1
 800b710:	bf28      	it	cs
 800b712:	460a      	movcs	r2, r1
 800b714:	4619      	mov	r1, r3
 800b716:	f000 fc7d 	bl	800c014 <USBD_CtlContinueRx>
  return USBD_OK;
 800b71a:	4628      	mov	r0, r5
 800b71c:	e7e3      	b.n	800b6e6 <USBD_LL_DataOutStage+0x14>
          if (pdev->pClass->EP0_RxReady != NULL)
 800b71e:	f8d0 32b8 	ldr.w	r3, [r0, #696]	; 0x2b8
 800b722:	691b      	ldr	r3, [r3, #16]
 800b724:	2b00      	cmp	r3, #0
 800b726:	d0ea      	beq.n	800b6fe <USBD_LL_DataOutStage+0x2c>
            pdev->pClass->EP0_RxReady(pdev);
 800b728:	4798      	blx	r3
 800b72a:	e7e8      	b.n	800b6fe <USBD_LL_DataOutStage+0x2c>
    if (pdev->dev_state == USBD_STATE_CONFIGURED)
 800b72c:	f890 329c 	ldrb.w	r3, [r0, #668]	; 0x29c
 800b730:	b2db      	uxtb	r3, r3
 800b732:	2b03      	cmp	r3, #3
 800b734:	d001      	beq.n	800b73a <USBD_LL_DataOutStage+0x68>
  return USBD_OK;
 800b736:	2000      	movs	r0, #0
 800b738:	e7d5      	b.n	800b6e6 <USBD_LL_DataOutStage+0x14>
      if (pdev->pClass->DataOut != NULL)
 800b73a:	f8d0 32b8 	ldr.w	r3, [r0, #696]	; 0x2b8
 800b73e:	699b      	ldr	r3, [r3, #24]
 800b740:	b10b      	cbz	r3, 800b746 <USBD_LL_DataOutStage+0x74>
        ret = (USBD_StatusTypeDef)pdev->pClass->DataOut(pdev, epnum);
 800b742:	4798      	blx	r3
        if (ret != USBD_OK)
 800b744:	e7cf      	b.n	800b6e6 <USBD_LL_DataOutStage+0x14>
  return USBD_OK;
 800b746:	2000      	movs	r0, #0
 800b748:	e7cd      	b.n	800b6e6 <USBD_LL_DataOutStage+0x14>

0800b74a <USBD_LL_DataInStage>:
  * @param  epnum: endpoint index
  * @retval status
  */
USBD_StatusTypeDef USBD_LL_DataInStage(USBD_HandleTypeDef *pdev,
                                       uint8_t epnum, uint8_t *pdata)
{
 800b74a:	b538      	push	{r3, r4, r5, lr}
 800b74c:	4604      	mov	r4, r0
  USBD_EndpointTypeDef *pep;
  USBD_StatusTypeDef ret;

  if (epnum == 0U)
 800b74e:	460d      	mov	r5, r1
 800b750:	2900      	cmp	r1, #0
 800b752:	d14a      	bne.n	800b7ea <USBD_LL_DataInStage+0xa0>
 800b754:	4613      	mov	r3, r2
  {
    pep = &pdev->ep_in[0];

    if (pdev->ep0_state == USBD_EP0_DATA_IN)
 800b756:	f8d0 2294 	ldr.w	r2, [r0, #660]	; 0x294
 800b75a:	2a02      	cmp	r2, #2
 800b75c:	d005      	beq.n	800b76a <USBD_LL_DataInStage+0x20>
        (void)USBD_LL_StallEP(pdev, 0x80U);
      }
#endif
    }

    if (pdev->dev_test_mode == 1U)
 800b75e:	f894 32a0 	ldrb.w	r3, [r4, #672]	; 0x2a0
 800b762:	2b01      	cmp	r3, #1
 800b764:	d03c      	beq.n	800b7e0 <USBD_LL_DataInStage+0x96>
        }
      }
    }
  }

  return USBD_OK;
 800b766:	4628      	mov	r0, r5
}
 800b768:	bd38      	pop	{r3, r4, r5, pc}
      if (pep->rem_length > pep->maxpacket)
 800b76a:	69c2      	ldr	r2, [r0, #28]
 800b76c:	6a01      	ldr	r1, [r0, #32]
 800b76e:	428a      	cmp	r2, r1
 800b770:	d80e      	bhi.n	800b790 <USBD_LL_DataInStage+0x46>
        if ((pep->maxpacket == pep->rem_length) &&
 800b772:	428a      	cmp	r2, r1
 800b774:	d018      	beq.n	800b7a8 <USBD_LL_DataInStage+0x5e>
          if (pdev->dev_state == USBD_STATE_CONFIGURED)
 800b776:	f894 329c 	ldrb.w	r3, [r4, #668]	; 0x29c
 800b77a:	b2db      	uxtb	r3, r3
 800b77c:	2b03      	cmp	r3, #3
 800b77e:	d027      	beq.n	800b7d0 <USBD_LL_DataInStage+0x86>
          (void)USBD_LL_StallEP(pdev, 0x80U);
 800b780:	2180      	movs	r1, #128	; 0x80
 800b782:	4620      	mov	r0, r4
 800b784:	f7fa ff3c 	bl	8006600 <USBD_LL_StallEP>
          (void)USBD_CtlReceiveStatus(pdev);
 800b788:	4620      	mov	r0, r4
 800b78a:	f000 fc56 	bl	800c03a <USBD_CtlReceiveStatus>
 800b78e:	e7e6      	b.n	800b75e <USBD_LL_DataInStage+0x14>
        pep->rem_length -= pep->maxpacket;
 800b790:	1a52      	subs	r2, r2, r1
 800b792:	61c2      	str	r2, [r0, #28]
        (void)USBD_CtlContinueSendData(pdev, pdata, pep->rem_length);
 800b794:	4619      	mov	r1, r3
 800b796:	f000 fc26 	bl	800bfe6 <USBD_CtlContinueSendData>
        (void)USBD_LL_PrepareReceive(pdev, 0U, NULL, 0U);
 800b79a:	2300      	movs	r3, #0
 800b79c:	461a      	mov	r2, r3
 800b79e:	4619      	mov	r1, r3
 800b7a0:	4620      	mov	r0, r4
 800b7a2:	f7fa ff60 	bl	8006666 <USBD_LL_PrepareReceive>
 800b7a6:	e7da      	b.n	800b75e <USBD_LL_DataInStage+0x14>
            (pep->total_length >= pep->maxpacket) &&
 800b7a8:	6983      	ldr	r3, [r0, #24]
        if ((pep->maxpacket == pep->rem_length) &&
 800b7aa:	4299      	cmp	r1, r3
 800b7ac:	d8e3      	bhi.n	800b776 <USBD_LL_DataInStage+0x2c>
            (pep->total_length < pdev->ep0_data_len))
 800b7ae:	f8d0 2298 	ldr.w	r2, [r0, #664]	; 0x298
            (pep->total_length >= pep->maxpacket) &&
 800b7b2:	4293      	cmp	r3, r2
 800b7b4:	d2df      	bcs.n	800b776 <USBD_LL_DataInStage+0x2c>
          (void)USBD_CtlContinueSendData(pdev, NULL, 0U);
 800b7b6:	2200      	movs	r2, #0
 800b7b8:	4611      	mov	r1, r2
 800b7ba:	f000 fc14 	bl	800bfe6 <USBD_CtlContinueSendData>
          pdev->ep0_data_len = 0U;
 800b7be:	2100      	movs	r1, #0
 800b7c0:	f8c4 1298 	str.w	r1, [r4, #664]	; 0x298
          (void)USBD_LL_PrepareReceive(pdev, 0U, NULL, 0U);
 800b7c4:	460b      	mov	r3, r1
 800b7c6:	460a      	mov	r2, r1
 800b7c8:	4620      	mov	r0, r4
 800b7ca:	f7fa ff4c 	bl	8006666 <USBD_LL_PrepareReceive>
 800b7ce:	e7c6      	b.n	800b75e <USBD_LL_DataInStage+0x14>
            if (pdev->pClass->EP0_TxSent != NULL)
 800b7d0:	f8d4 32b8 	ldr.w	r3, [r4, #696]	; 0x2b8
 800b7d4:	68db      	ldr	r3, [r3, #12]
 800b7d6:	2b00      	cmp	r3, #0
 800b7d8:	d0d2      	beq.n	800b780 <USBD_LL_DataInStage+0x36>
              pdev->pClass->EP0_TxSent(pdev);
 800b7da:	4620      	mov	r0, r4
 800b7dc:	4798      	blx	r3
 800b7de:	e7cf      	b.n	800b780 <USBD_LL_DataInStage+0x36>
      pdev->dev_test_mode = 0U;
 800b7e0:	2300      	movs	r3, #0
 800b7e2:	f884 32a0 	strb.w	r3, [r4, #672]	; 0x2a0
  return USBD_OK;
 800b7e6:	4628      	mov	r0, r5
 800b7e8:	e7be      	b.n	800b768 <USBD_LL_DataInStage+0x1e>
    if (pdev->dev_state == USBD_STATE_CONFIGURED)
 800b7ea:	f890 329c 	ldrb.w	r3, [r0, #668]	; 0x29c
 800b7ee:	b2db      	uxtb	r3, r3
 800b7f0:	2b03      	cmp	r3, #3
 800b7f2:	d001      	beq.n	800b7f8 <USBD_LL_DataInStage+0xae>
  return USBD_OK;
 800b7f4:	2000      	movs	r0, #0
 800b7f6:	e7b7      	b.n	800b768 <USBD_LL_DataInStage+0x1e>
      if (pdev->pClass->DataIn != NULL)
 800b7f8:	f8d0 32b8 	ldr.w	r3, [r0, #696]	; 0x2b8
 800b7fc:	695b      	ldr	r3, [r3, #20]
 800b7fe:	b10b      	cbz	r3, 800b804 <USBD_LL_DataInStage+0xba>
        ret = (USBD_StatusTypeDef)pdev->pClass->DataIn(pdev, epnum);
 800b800:	4798      	blx	r3
        if (ret != USBD_OK)
 800b802:	e7b1      	b.n	800b768 <USBD_LL_DataInStage+0x1e>
  return USBD_OK;
 800b804:	2000      	movs	r0, #0
 800b806:	e7af      	b.n	800b768 <USBD_LL_DataInStage+0x1e>

0800b808 <USBD_LL_Reset>:
  */

USBD_StatusTypeDef USBD_LL_Reset(USBD_HandleTypeDef *pdev)
{
  /* Upon Reset call user call back */
  pdev->dev_state = USBD_STATE_DEFAULT;
 800b808:	2301      	movs	r3, #1
 800b80a:	f880 329c 	strb.w	r3, [r0, #668]	; 0x29c
  pdev->ep0_state = USBD_EP0_IDLE;
 800b80e:	2300      	movs	r3, #0
 800b810:	f8c0 3294 	str.w	r3, [r0, #660]	; 0x294
  pdev->dev_config = 0U;
 800b814:	6043      	str	r3, [r0, #4]
  pdev->dev_remote_wakeup = 0U;
 800b816:	f8c0 32a4 	str.w	r3, [r0, #676]	; 0x2a4

  if (pdev->pClass == NULL)
 800b81a:	f8d0 32b8 	ldr.w	r3, [r0, #696]	; 0x2b8
 800b81e:	b1f3      	cbz	r3, 800b85e <USBD_LL_Reset+0x56>
{
 800b820:	b570      	push	{r4, r5, r6, lr}
 800b822:	4604      	mov	r4, r0
  {
    return USBD_FAIL;
  }

  if (pdev->pClassData != NULL)
 800b824:	f8d0 22bc 	ldr.w	r2, [r0, #700]	; 0x2bc
 800b828:	b11a      	cbz	r2, 800b832 <USBD_LL_Reset+0x2a>
  {
    if (pdev->pClass->DeInit != NULL)
 800b82a:	685b      	ldr	r3, [r3, #4]
 800b82c:	b10b      	cbz	r3, 800b832 <USBD_LL_Reset+0x2a>
    {
      (void)pdev->pClass->DeInit(pdev, (uint8_t)pdev->dev_config);
 800b82e:	2100      	movs	r1, #0
 800b830:	4798      	blx	r3
    }
  }

  /* Open EP0 OUT */
  (void)USBD_LL_OpenEP(pdev, 0x00U, USBD_EP_TYPE_CTRL, USB_MAX_EP0_SIZE);
 800b832:	2340      	movs	r3, #64	; 0x40
 800b834:	2200      	movs	r2, #0
 800b836:	4611      	mov	r1, r2
 800b838:	4620      	mov	r0, r4
 800b83a:	f7fa fed0 	bl	80065de <USBD_LL_OpenEP>
  pdev->ep_out[0x00U & 0xFU].is_used = 1U;
 800b83e:	2601      	movs	r6, #1
 800b840:	f8a4 6164 	strh.w	r6, [r4, #356]	; 0x164

  pdev->ep_out[0].maxpacket = USB_MAX_EP0_SIZE;
 800b844:	2540      	movs	r5, #64	; 0x40
 800b846:	f8c4 5160 	str.w	r5, [r4, #352]	; 0x160

  /* Open EP0 IN */
  (void)USBD_LL_OpenEP(pdev, 0x80U, USBD_EP_TYPE_CTRL, USB_MAX_EP0_SIZE);
 800b84a:	462b      	mov	r3, r5
 800b84c:	2200      	movs	r2, #0
 800b84e:	2180      	movs	r1, #128	; 0x80
 800b850:	4620      	mov	r0, r4
 800b852:	f7fa fec4 	bl	80065de <USBD_LL_OpenEP>
  pdev->ep_in[0x80U & 0xFU].is_used = 1U;
 800b856:	84a6      	strh	r6, [r4, #36]	; 0x24

  pdev->ep_in[0].maxpacket = USB_MAX_EP0_SIZE;
 800b858:	6225      	str	r5, [r4, #32]

  return USBD_OK;
 800b85a:	2000      	movs	r0, #0
}
 800b85c:	bd70      	pop	{r4, r5, r6, pc}
    return USBD_FAIL;
 800b85e:	2003      	movs	r0, #3
}
 800b860:	4770      	bx	lr

0800b862 <USBD_LL_SetSpeed>:
  * @retval status
  */
USBD_StatusTypeDef USBD_LL_SetSpeed(USBD_HandleTypeDef *pdev,
                                    USBD_SpeedTypeDef speed)
{
  pdev->dev_speed = speed;
 800b862:	7401      	strb	r1, [r0, #16]

  return USBD_OK;
}
 800b864:	2000      	movs	r0, #0
 800b866:	4770      	bx	lr

0800b868 <USBD_LL_Suspend>:
  * @retval status
  */

USBD_StatusTypeDef USBD_LL_Suspend(USBD_HandleTypeDef *pdev)
{
  pdev->dev_old_state = pdev->dev_state;
 800b868:	f890 329c 	ldrb.w	r3, [r0, #668]	; 0x29c
 800b86c:	b2db      	uxtb	r3, r3
 800b86e:	f880 329d 	strb.w	r3, [r0, #669]	; 0x29d
  pdev->dev_state = USBD_STATE_SUSPENDED;
 800b872:	2304      	movs	r3, #4
 800b874:	f880 329c 	strb.w	r3, [r0, #668]	; 0x29c

  return USBD_OK;
}
 800b878:	2000      	movs	r0, #0
 800b87a:	4770      	bx	lr

0800b87c <USBD_LL_Resume>:
  * @retval status
  */

USBD_StatusTypeDef USBD_LL_Resume(USBD_HandleTypeDef *pdev)
{
  if (pdev->dev_state == USBD_STATE_SUSPENDED)
 800b87c:	f890 329c 	ldrb.w	r3, [r0, #668]	; 0x29c
 800b880:	b2db      	uxtb	r3, r3
 800b882:	2b04      	cmp	r3, #4
 800b884:	d001      	beq.n	800b88a <USBD_LL_Resume+0xe>
  {
    pdev->dev_state = pdev->dev_old_state;
  }

  return USBD_OK;
}
 800b886:	2000      	movs	r0, #0
 800b888:	4770      	bx	lr
    pdev->dev_state = pdev->dev_old_state;
 800b88a:	f890 329d 	ldrb.w	r3, [r0, #669]	; 0x29d
 800b88e:	b2db      	uxtb	r3, r3
 800b890:	f880 329c 	strb.w	r3, [r0, #668]	; 0x29c
 800b894:	e7f7      	b.n	800b886 <USBD_LL_Resume+0xa>

0800b896 <USBD_LL_SOF>:
  * @retval status
  */

USBD_StatusTypeDef USBD_LL_SOF(USBD_HandleTypeDef *pdev)
{
  if (pdev->pClass == NULL)
 800b896:	f8d0 22b8 	ldr.w	r2, [r0, #696]	; 0x2b8
 800b89a:	b162      	cbz	r2, 800b8b6 <USBD_LL_SOF+0x20>
{
 800b89c:	b508      	push	{r3, lr}
  {
    return USBD_FAIL;
  }

  if (pdev->dev_state == USBD_STATE_CONFIGURED)
 800b89e:	f890 329c 	ldrb.w	r3, [r0, #668]	; 0x29c
 800b8a2:	b2db      	uxtb	r3, r3
 800b8a4:	2b03      	cmp	r3, #3
 800b8a6:	d001      	beq.n	800b8ac <USBD_LL_SOF+0x16>
    {
      (void)pdev->pClass->SOF(pdev);
    }
  }

  return USBD_OK;
 800b8a8:	2000      	movs	r0, #0
}
 800b8aa:	bd08      	pop	{r3, pc}
    if (pdev->pClass->SOF != NULL)
 800b8ac:	69d3      	ldr	r3, [r2, #28]
 800b8ae:	b123      	cbz	r3, 800b8ba <USBD_LL_SOF+0x24>
      (void)pdev->pClass->SOF(pdev);
 800b8b0:	4798      	blx	r3
  return USBD_OK;
 800b8b2:	2000      	movs	r0, #0
 800b8b4:	e7f9      	b.n	800b8aa <USBD_LL_SOF+0x14>
    return USBD_FAIL;
 800b8b6:	2003      	movs	r0, #3
}
 800b8b8:	4770      	bx	lr
  return USBD_OK;
 800b8ba:	2000      	movs	r0, #0
 800b8bc:	e7f5      	b.n	800b8aa <USBD_LL_SOF+0x14>

0800b8be <USBD_LL_IsoINIncomplete>:
  * @retval status
  */
USBD_StatusTypeDef USBD_LL_IsoINIncomplete(USBD_HandleTypeDef *pdev,
                                           uint8_t epnum)
{
  if (pdev->pClass == NULL)
 800b8be:	f8d0 22b8 	ldr.w	r2, [r0, #696]	; 0x2b8
 800b8c2:	b162      	cbz	r2, 800b8de <USBD_LL_IsoINIncomplete+0x20>
{
 800b8c4:	b508      	push	{r3, lr}
  {
    return USBD_FAIL;
  }

  if (pdev->dev_state == USBD_STATE_CONFIGURED)
 800b8c6:	f890 329c 	ldrb.w	r3, [r0, #668]	; 0x29c
 800b8ca:	b2db      	uxtb	r3, r3
 800b8cc:	2b03      	cmp	r3, #3
 800b8ce:	d001      	beq.n	800b8d4 <USBD_LL_IsoINIncomplete+0x16>
    {
      (void)pdev->pClass->IsoINIncomplete(pdev, epnum);
    }
  }

  return USBD_OK;
 800b8d0:	2000      	movs	r0, #0
}
 800b8d2:	bd08      	pop	{r3, pc}
    if (pdev->pClass->IsoINIncomplete != NULL)
 800b8d4:	6a13      	ldr	r3, [r2, #32]
 800b8d6:	b123      	cbz	r3, 800b8e2 <USBD_LL_IsoINIncomplete+0x24>
      (void)pdev->pClass->IsoINIncomplete(pdev, epnum);
 800b8d8:	4798      	blx	r3
  return USBD_OK;
 800b8da:	2000      	movs	r0, #0
 800b8dc:	e7f9      	b.n	800b8d2 <USBD_LL_IsoINIncomplete+0x14>
    return USBD_FAIL;
 800b8de:	2003      	movs	r0, #3
}
 800b8e0:	4770      	bx	lr
  return USBD_OK;
 800b8e2:	2000      	movs	r0, #0
 800b8e4:	e7f5      	b.n	800b8d2 <USBD_LL_IsoINIncomplete+0x14>

0800b8e6 <USBD_LL_IsoOUTIncomplete>:
  * @retval status
  */
USBD_StatusTypeDef USBD_LL_IsoOUTIncomplete(USBD_HandleTypeDef *pdev,
                                            uint8_t epnum)
{
  if (pdev->pClass == NULL)
 800b8e6:	f8d0 22b8 	ldr.w	r2, [r0, #696]	; 0x2b8
 800b8ea:	b162      	cbz	r2, 800b906 <USBD_LL_IsoOUTIncomplete+0x20>
{
 800b8ec:	b508      	push	{r3, lr}
  {
    return USBD_FAIL;
  }

  if (pdev->dev_state == USBD_STATE_CONFIGURED)
 800b8ee:	f890 329c 	ldrb.w	r3, [r0, #668]	; 0x29c
 800b8f2:	b2db      	uxtb	r3, r3
 800b8f4:	2b03      	cmp	r3, #3
 800b8f6:	d001      	beq.n	800b8fc <USBD_LL_IsoOUTIncomplete+0x16>
    {
      (void)pdev->pClass->IsoOUTIncomplete(pdev, epnum);
    }
  }

  return USBD_OK;
 800b8f8:	2000      	movs	r0, #0
}
 800b8fa:	bd08      	pop	{r3, pc}
    if (pdev->pClass->IsoOUTIncomplete != NULL)
 800b8fc:	6a53      	ldr	r3, [r2, #36]	; 0x24
 800b8fe:	b123      	cbz	r3, 800b90a <USBD_LL_IsoOUTIncomplete+0x24>
      (void)pdev->pClass->IsoOUTIncomplete(pdev, epnum);
 800b900:	4798      	blx	r3
  return USBD_OK;
 800b902:	2000      	movs	r0, #0
 800b904:	e7f9      	b.n	800b8fa <USBD_LL_IsoOUTIncomplete+0x14>
    return USBD_FAIL;
 800b906:	2003      	movs	r0, #3
}
 800b908:	4770      	bx	lr
  return USBD_OK;
 800b90a:	2000      	movs	r0, #0
 800b90c:	e7f5      	b.n	800b8fa <USBD_LL_IsoOUTIncomplete+0x14>

0800b90e <USBD_LL_DevConnected>:
{
  /* Prevent unused argument compilation warning */
  UNUSED(pdev);

  return USBD_OK;
}
 800b90e:	2000      	movs	r0, #0
 800b910:	4770      	bx	lr

0800b912 <USBD_LL_DevDisconnected>:
  *         Handle device disconnection event
  * @param  pdev: device instance
  * @retval status
  */
USBD_StatusTypeDef USBD_LL_DevDisconnected(USBD_HandleTypeDef *pdev)
{
 800b912:	b508      	push	{r3, lr}
  /* Free Class Resources */
  pdev->dev_state = USBD_STATE_DEFAULT;
 800b914:	2301      	movs	r3, #1
 800b916:	f880 329c 	strb.w	r3, [r0, #668]	; 0x29c

  if (pdev->pClass != NULL)
 800b91a:	f8d0 32b8 	ldr.w	r3, [r0, #696]	; 0x2b8
 800b91e:	b113      	cbz	r3, 800b926 <USBD_LL_DevDisconnected+0x14>
  {
    (void)pdev->pClass->DeInit(pdev, (uint8_t)pdev->dev_config);
 800b920:	685b      	ldr	r3, [r3, #4]
 800b922:	7901      	ldrb	r1, [r0, #4]
 800b924:	4798      	blx	r3
  }

  return USBD_OK;
}
 800b926:	2000      	movs	r0, #0
 800b928:	bd08      	pop	{r3, pc}

0800b92a <USBD_GetLen>:
  *         return the string length
   * @param  buf : pointer to the ascii string buffer
  * @retval string length
  */
static uint8_t USBD_GetLen(uint8_t *buf)
{
 800b92a:	4603      	mov	r3, r0
  uint8_t  len = 0U;
 800b92c:	2000      	movs	r0, #0
  uint8_t *pbuff = buf;

  while (*pbuff != (uint8_t)'\0')
 800b92e:	e002      	b.n	800b936 <USBD_GetLen+0xc>
  {
    len++;
 800b930:	3001      	adds	r0, #1
 800b932:	b2c0      	uxtb	r0, r0
    pbuff++;
 800b934:	3301      	adds	r3, #1
  while (*pbuff != (uint8_t)'\0')
 800b936:	781a      	ldrb	r2, [r3, #0]
 800b938:	2a00      	cmp	r2, #0
 800b93a:	d1f9      	bne.n	800b930 <USBD_GetLen+0x6>
  }

  return len;
}
 800b93c:	4770      	bx	lr

0800b93e <USBD_SetFeature>:
{
 800b93e:	b508      	push	{r3, lr}
  if (req->wValue == USB_FEATURE_REMOTE_WAKEUP)
 800b940:	884b      	ldrh	r3, [r1, #2]
 800b942:	2b01      	cmp	r3, #1
 800b944:	d000      	beq.n	800b948 <USBD_SetFeature+0xa>
}
 800b946:	bd08      	pop	{r3, pc}
    pdev->dev_remote_wakeup = 1U;
 800b948:	f8c0 32a4 	str.w	r3, [r0, #676]	; 0x2a4
    (void)USBD_CtlSendStatus(pdev);
 800b94c:	f000 fb6a 	bl	800c024 <USBD_CtlSendStatus>
}
 800b950:	e7f9      	b.n	800b946 <USBD_SetFeature+0x8>

0800b952 <USBD_ParseSetupRequest>:
  req->bmRequest = *(uint8_t *)(pbuff);
 800b952:	780b      	ldrb	r3, [r1, #0]
 800b954:	7003      	strb	r3, [r0, #0]
  req->bRequest = *(uint8_t *)(pbuff);
 800b956:	784b      	ldrb	r3, [r1, #1]
 800b958:	7043      	strb	r3, [r0, #1]
__STATIC_INLINE uint16_t SWAPBYTE(uint8_t *addr)
{
  uint16_t _SwapVal, _Byte1, _Byte2;
  uint8_t *_pbuff = addr;

  _Byte1 = *(uint8_t *)_pbuff;
 800b95a:	788b      	ldrb	r3, [r1, #2]
  _pbuff++;
  _Byte2 = *(uint8_t *)_pbuff;
 800b95c:	78ca      	ldrb	r2, [r1, #3]

  _SwapVal = (_Byte2 << 8) | _Byte1;
 800b95e:	ea43 2302 	orr.w	r3, r3, r2, lsl #8
  req->wValue = SWAPBYTE(pbuff);
 800b962:	8043      	strh	r3, [r0, #2]
  _Byte1 = *(uint8_t *)_pbuff;
 800b964:	790b      	ldrb	r3, [r1, #4]
  _Byte2 = *(uint8_t *)_pbuff;
 800b966:	794a      	ldrb	r2, [r1, #5]
  _SwapVal = (_Byte2 << 8) | _Byte1;
 800b968:	ea43 2302 	orr.w	r3, r3, r2, lsl #8
  req->wIndex = SWAPBYTE(pbuff);
 800b96c:	8083      	strh	r3, [r0, #4]
  _Byte1 = *(uint8_t *)_pbuff;
 800b96e:	798b      	ldrb	r3, [r1, #6]
  _Byte2 = *(uint8_t *)_pbuff;
 800b970:	79ca      	ldrb	r2, [r1, #7]
  _SwapVal = (_Byte2 << 8) | _Byte1;
 800b972:	ea43 2302 	orr.w	r3, r3, r2, lsl #8
  req->wLength = SWAPBYTE(pbuff);
 800b976:	80c3      	strh	r3, [r0, #6]
}
 800b978:	4770      	bx	lr

0800b97a <USBD_CtlError>:
{
 800b97a:	b510      	push	{r4, lr}
 800b97c:	4604      	mov	r4, r0
  (void)USBD_LL_StallEP(pdev, 0x80U);
 800b97e:	2180      	movs	r1, #128	; 0x80
 800b980:	f7fa fe3e 	bl	8006600 <USBD_LL_StallEP>
  (void)USBD_LL_StallEP(pdev, 0U);
 800b984:	2100      	movs	r1, #0
 800b986:	4620      	mov	r0, r4
 800b988:	f7fa fe3a 	bl	8006600 <USBD_LL_StallEP>
}
 800b98c:	bd10      	pop	{r4, pc}

0800b98e <USBD_GetDescriptor>:
{
 800b98e:	b530      	push	{r4, r5, lr}
 800b990:	b083      	sub	sp, #12
 800b992:	4604      	mov	r4, r0
 800b994:	460d      	mov	r5, r1
  uint16_t len = 0U;
 800b996:	2300      	movs	r3, #0
 800b998:	f8ad 3006 	strh.w	r3, [sp, #6]
  switch (req->wValue >> 8)
 800b99c:	884a      	ldrh	r2, [r1, #2]
 800b99e:	0a13      	lsrs	r3, r2, #8
 800b9a0:	3b01      	subs	r3, #1
 800b9a2:	2b06      	cmp	r3, #6
 800b9a4:	f200 80ab 	bhi.w	800bafe <USBD_GetDescriptor+0x170>
 800b9a8:	e8df f003 	tbb	[pc, r3]
 800b9ac:	a9331f04 	.word	0xa9331f04
 800b9b0:	8da9      	.short	0x8da9
 800b9b2:	9a          	.byte	0x9a
 800b9b3:	00          	.byte	0x00
      pbuf = pdev->pDesc->GetDeviceDescriptor(pdev->dev_speed, &len);
 800b9b4:	f8d0 32b4 	ldr.w	r3, [r0, #692]	; 0x2b4
 800b9b8:	681b      	ldr	r3, [r3, #0]
 800b9ba:	f10d 0106 	add.w	r1, sp, #6
 800b9be:	7c00      	ldrb	r0, [r0, #16]
 800b9c0:	4798      	blx	r3
  if (req->wLength != 0U)
 800b9c2:	88ea      	ldrh	r2, [r5, #6]
 800b9c4:	2a00      	cmp	r2, #0
 800b9c6:	f000 80a3 	beq.w	800bb10 <USBD_GetDescriptor+0x182>
    if (len != 0U)
 800b9ca:	f8bd 3006 	ldrh.w	r3, [sp, #6]
 800b9ce:	2b00      	cmp	r3, #0
 800b9d0:	f000 8099 	beq.w	800bb06 <USBD_GetDescriptor+0x178>
      len = MIN(len, req->wLength);
 800b9d4:	429a      	cmp	r2, r3
 800b9d6:	bf28      	it	cs
 800b9d8:	461a      	movcs	r2, r3
 800b9da:	f8ad 2006 	strh.w	r2, [sp, #6]
      (void)USBD_CtlSendData(pdev, pbuf, len);
 800b9de:	4601      	mov	r1, r0
 800b9e0:	4620      	mov	r0, r4
 800b9e2:	f000 faf3 	bl	800bfcc <USBD_CtlSendData>
}
 800b9e6:	b003      	add	sp, #12
 800b9e8:	bd30      	pop	{r4, r5, pc}
      if (pdev->dev_speed == USBD_SPEED_HIGH)
 800b9ea:	7c03      	ldrb	r3, [r0, #16]
 800b9ec:	b943      	cbnz	r3, 800ba00 <USBD_GetDescriptor+0x72>
        pbuf = pdev->pClass->GetHSConfigDescriptor(&len);
 800b9ee:	f8d0 32b8 	ldr.w	r3, [r0, #696]	; 0x2b8
 800b9f2:	6a9b      	ldr	r3, [r3, #40]	; 0x28
 800b9f4:	f10d 0006 	add.w	r0, sp, #6
 800b9f8:	4798      	blx	r3
        pbuf[1] = USB_DESC_TYPE_CONFIGURATION;
 800b9fa:	2302      	movs	r3, #2
 800b9fc:	7043      	strb	r3, [r0, #1]
  if (err != 0U)
 800b9fe:	e7e0      	b.n	800b9c2 <USBD_GetDescriptor+0x34>
        pbuf = pdev->pClass->GetFSConfigDescriptor(&len);
 800ba00:	f8d0 32b8 	ldr.w	r3, [r0, #696]	; 0x2b8
 800ba04:	6adb      	ldr	r3, [r3, #44]	; 0x2c
 800ba06:	f10d 0006 	add.w	r0, sp, #6
 800ba0a:	4798      	blx	r3
        pbuf[1] = USB_DESC_TYPE_CONFIGURATION;
 800ba0c:	2302      	movs	r3, #2
 800ba0e:	7043      	strb	r3, [r0, #1]
  if (err != 0U)
 800ba10:	e7d7      	b.n	800b9c2 <USBD_GetDescriptor+0x34>
      switch ((uint8_t)(req->wValue))
 800ba12:	b2d2      	uxtb	r2, r2
 800ba14:	2a05      	cmp	r2, #5
 800ba16:	d852      	bhi.n	800babe <USBD_GetDescriptor+0x130>
 800ba18:	e8df f002 	tbb	[pc, r2]
 800ba1c:	2a1d1003 	.word	0x2a1d1003
 800ba20:	4437      	.short	0x4437
          if (pdev->pDesc->GetLangIDStrDescriptor != NULL)
 800ba22:	f8d0 32b4 	ldr.w	r3, [r0, #692]	; 0x2b4
 800ba26:	685b      	ldr	r3, [r3, #4]
 800ba28:	b123      	cbz	r3, 800ba34 <USBD_GetDescriptor+0xa6>
            pbuf = pdev->pDesc->GetLangIDStrDescriptor(pdev->dev_speed, &len);
 800ba2a:	f10d 0106 	add.w	r1, sp, #6
 800ba2e:	7c00      	ldrb	r0, [r0, #16]
 800ba30:	4798      	blx	r3
  if (err != 0U)
 800ba32:	e7c6      	b.n	800b9c2 <USBD_GetDescriptor+0x34>
            USBD_CtlError(pdev, req);
 800ba34:	4629      	mov	r1, r5
 800ba36:	f7ff ffa0 	bl	800b97a <USBD_CtlError>
  if (err != 0U)
 800ba3a:	e7d4      	b.n	800b9e6 <USBD_GetDescriptor+0x58>
          if (pdev->pDesc->GetManufacturerStrDescriptor != NULL)
 800ba3c:	f8d0 32b4 	ldr.w	r3, [r0, #692]	; 0x2b4
 800ba40:	689b      	ldr	r3, [r3, #8]
 800ba42:	b123      	cbz	r3, 800ba4e <USBD_GetDescriptor+0xc0>
            pbuf = pdev->pDesc->GetManufacturerStrDescriptor(pdev->dev_speed, &len);
 800ba44:	f10d 0106 	add.w	r1, sp, #6
 800ba48:	7c00      	ldrb	r0, [r0, #16]
 800ba4a:	4798      	blx	r3
  if (err != 0U)
 800ba4c:	e7b9      	b.n	800b9c2 <USBD_GetDescriptor+0x34>
            USBD_CtlError(pdev, req);
 800ba4e:	4629      	mov	r1, r5
 800ba50:	f7ff ff93 	bl	800b97a <USBD_CtlError>
  if (err != 0U)
 800ba54:	e7c7      	b.n	800b9e6 <USBD_GetDescriptor+0x58>
          if (pdev->pDesc->GetProductStrDescriptor != NULL)
 800ba56:	f8d0 32b4 	ldr.w	r3, [r0, #692]	; 0x2b4
 800ba5a:	68db      	ldr	r3, [r3, #12]
 800ba5c:	b123      	cbz	r3, 800ba68 <USBD_GetDescriptor+0xda>
            pbuf = pdev->pDesc->GetProductStrDescriptor(pdev->dev_speed, &len);
 800ba5e:	f10d 0106 	add.w	r1, sp, #6
 800ba62:	7c00      	ldrb	r0, [r0, #16]
 800ba64:	4798      	blx	r3
  if (err != 0U)
 800ba66:	e7ac      	b.n	800b9c2 <USBD_GetDescriptor+0x34>
            USBD_CtlError(pdev, req);
 800ba68:	4629      	mov	r1, r5
 800ba6a:	f7ff ff86 	bl	800b97a <USBD_CtlError>
  if (err != 0U)
 800ba6e:	e7ba      	b.n	800b9e6 <USBD_GetDescriptor+0x58>
          if (pdev->pDesc->GetSerialStrDescriptor != NULL)
 800ba70:	f8d0 32b4 	ldr.w	r3, [r0, #692]	; 0x2b4
 800ba74:	691b      	ldr	r3, [r3, #16]
 800ba76:	b123      	cbz	r3, 800ba82 <USBD_GetDescriptor+0xf4>
            pbuf = pdev->pDesc->GetSerialStrDescriptor(pdev->dev_speed, &len);
 800ba78:	f10d 0106 	add.w	r1, sp, #6
 800ba7c:	7c00      	ldrb	r0, [r0, #16]
 800ba7e:	4798      	blx	r3
  if (err != 0U)
 800ba80:	e79f      	b.n	800b9c2 <USBD_GetDescriptor+0x34>
            USBD_CtlError(pdev, req);
 800ba82:	4629      	mov	r1, r5
 800ba84:	f7ff ff79 	bl	800b97a <USBD_CtlError>
  if (err != 0U)
 800ba88:	e7ad      	b.n	800b9e6 <USBD_GetDescriptor+0x58>
          if (pdev->pDesc->GetConfigurationStrDescriptor != NULL)
 800ba8a:	f8d0 32b4 	ldr.w	r3, [r0, #692]	; 0x2b4
 800ba8e:	695b      	ldr	r3, [r3, #20]
 800ba90:	b123      	cbz	r3, 800ba9c <USBD_GetDescriptor+0x10e>
            pbuf = pdev->pDesc->GetConfigurationStrDescriptor(pdev->dev_speed, &len);
 800ba92:	f10d 0106 	add.w	r1, sp, #6
 800ba96:	7c00      	ldrb	r0, [r0, #16]
 800ba98:	4798      	blx	r3
  if (err != 0U)
 800ba9a:	e792      	b.n	800b9c2 <USBD_GetDescriptor+0x34>
            USBD_CtlError(pdev, req);
 800ba9c:	4629      	mov	r1, r5
 800ba9e:	f7ff ff6c 	bl	800b97a <USBD_CtlError>
  if (err != 0U)
 800baa2:	e7a0      	b.n	800b9e6 <USBD_GetDescriptor+0x58>
          if (pdev->pDesc->GetInterfaceStrDescriptor != NULL)
 800baa4:	f8d0 32b4 	ldr.w	r3, [r0, #692]	; 0x2b4
 800baa8:	699b      	ldr	r3, [r3, #24]
 800baaa:	b123      	cbz	r3, 800bab6 <USBD_GetDescriptor+0x128>
            pbuf = pdev->pDesc->GetInterfaceStrDescriptor(pdev->dev_speed, &len);
 800baac:	f10d 0106 	add.w	r1, sp, #6
 800bab0:	7c00      	ldrb	r0, [r0, #16]
 800bab2:	4798      	blx	r3
  if (err != 0U)
 800bab4:	e785      	b.n	800b9c2 <USBD_GetDescriptor+0x34>
            USBD_CtlError(pdev, req);
 800bab6:	4629      	mov	r1, r5
 800bab8:	f7ff ff5f 	bl	800b97a <USBD_CtlError>
  if (err != 0U)
 800babc:	e793      	b.n	800b9e6 <USBD_GetDescriptor+0x58>
          USBD_CtlError(pdev, req);
 800babe:	4629      	mov	r1, r5
 800bac0:	f7ff ff5b 	bl	800b97a <USBD_CtlError>
  if (err != 0U)
 800bac4:	e78f      	b.n	800b9e6 <USBD_GetDescriptor+0x58>
      if (pdev->dev_speed == USBD_SPEED_HIGH)
 800bac6:	7c03      	ldrb	r3, [r0, #16]
 800bac8:	b933      	cbnz	r3, 800bad8 <USBD_GetDescriptor+0x14a>
        pbuf = pdev->pClass->GetDeviceQualifierDescriptor(&len);
 800baca:	f8d0 32b8 	ldr.w	r3, [r0, #696]	; 0x2b8
 800bace:	6b5b      	ldr	r3, [r3, #52]	; 0x34
 800bad0:	f10d 0006 	add.w	r0, sp, #6
 800bad4:	4798      	blx	r3
  if (err != 0U)
 800bad6:	e774      	b.n	800b9c2 <USBD_GetDescriptor+0x34>
        USBD_CtlError(pdev, req);
 800bad8:	4629      	mov	r1, r5
 800bada:	f7ff ff4e 	bl	800b97a <USBD_CtlError>
  if (err != 0U)
 800bade:	e782      	b.n	800b9e6 <USBD_GetDescriptor+0x58>
      if (pdev->dev_speed == USBD_SPEED_HIGH)
 800bae0:	7c03      	ldrb	r3, [r0, #16]
 800bae2:	b943      	cbnz	r3, 800baf6 <USBD_GetDescriptor+0x168>
        pbuf = pdev->pClass->GetOtherSpeedConfigDescriptor(&len);
 800bae4:	f8d0 32b8 	ldr.w	r3, [r0, #696]	; 0x2b8
 800bae8:	6b1b      	ldr	r3, [r3, #48]	; 0x30
 800baea:	f10d 0006 	add.w	r0, sp, #6
 800baee:	4798      	blx	r3
        pbuf[1] = USB_DESC_TYPE_OTHER_SPEED_CONFIGURATION;
 800baf0:	2307      	movs	r3, #7
 800baf2:	7043      	strb	r3, [r0, #1]
  if (err != 0U)
 800baf4:	e765      	b.n	800b9c2 <USBD_GetDescriptor+0x34>
        USBD_CtlError(pdev, req);
 800baf6:	4629      	mov	r1, r5
 800baf8:	f7ff ff3f 	bl	800b97a <USBD_CtlError>
  if (err != 0U)
 800bafc:	e773      	b.n	800b9e6 <USBD_GetDescriptor+0x58>
      USBD_CtlError(pdev, req);
 800bafe:	4629      	mov	r1, r5
 800bb00:	f7ff ff3b 	bl	800b97a <USBD_CtlError>
    return;
 800bb04:	e76f      	b.n	800b9e6 <USBD_GetDescriptor+0x58>
      USBD_CtlError(pdev, req);
 800bb06:	4629      	mov	r1, r5
 800bb08:	4620      	mov	r0, r4
 800bb0a:	f7ff ff36 	bl	800b97a <USBD_CtlError>
 800bb0e:	e76a      	b.n	800b9e6 <USBD_GetDescriptor+0x58>
    (void)USBD_CtlSendStatus(pdev);
 800bb10:	4620      	mov	r0, r4
 800bb12:	f000 fa87 	bl	800c024 <USBD_CtlSendStatus>
 800bb16:	e766      	b.n	800b9e6 <USBD_GetDescriptor+0x58>

0800bb18 <USBD_SetAddress>:
{
 800bb18:	b538      	push	{r3, r4, r5, lr}
 800bb1a:	4604      	mov	r4, r0
  if ((req->wIndex == 0U) && (req->wLength == 0U) && (req->wValue < 128U))
 800bb1c:	888b      	ldrh	r3, [r1, #4]
 800bb1e:	b9fb      	cbnz	r3, 800bb60 <USBD_SetAddress+0x48>
 800bb20:	88cb      	ldrh	r3, [r1, #6]
 800bb22:	b9eb      	cbnz	r3, 800bb60 <USBD_SetAddress+0x48>
 800bb24:	884b      	ldrh	r3, [r1, #2]
 800bb26:	2b7f      	cmp	r3, #127	; 0x7f
 800bb28:	d81a      	bhi.n	800bb60 <USBD_SetAddress+0x48>
    dev_addr = (uint8_t)(req->wValue) & 0x7FU;
 800bb2a:	f003 057f 	and.w	r5, r3, #127	; 0x7f
    if (pdev->dev_state == USBD_STATE_CONFIGURED)
 800bb2e:	f890 329c 	ldrb.w	r3, [r0, #668]	; 0x29c
 800bb32:	b2db      	uxtb	r3, r3
 800bb34:	2b03      	cmp	r3, #3
 800bb36:	d00c      	beq.n	800bb52 <USBD_SetAddress+0x3a>
      pdev->dev_address = dev_addr;
 800bb38:	f880 529e 	strb.w	r5, [r0, #670]	; 0x29e
      (void)USBD_LL_SetUSBAddress(pdev, dev_addr);
 800bb3c:	4629      	mov	r1, r5
 800bb3e:	f7fa fd84 	bl	800664a <USBD_LL_SetUSBAddress>
      (void)USBD_CtlSendStatus(pdev);
 800bb42:	4620      	mov	r0, r4
 800bb44:	f000 fa6e 	bl	800c024 <USBD_CtlSendStatus>
      if (dev_addr != 0U)
 800bb48:	b135      	cbz	r5, 800bb58 <USBD_SetAddress+0x40>
        pdev->dev_state = USBD_STATE_ADDRESSED;
 800bb4a:	2302      	movs	r3, #2
 800bb4c:	f884 329c 	strb.w	r3, [r4, #668]	; 0x29c
 800bb50:	e009      	b.n	800bb66 <USBD_SetAddress+0x4e>
      USBD_CtlError(pdev, req);
 800bb52:	f7ff ff12 	bl	800b97a <USBD_CtlError>
 800bb56:	e006      	b.n	800bb66 <USBD_SetAddress+0x4e>
        pdev->dev_state = USBD_STATE_DEFAULT;
 800bb58:	2301      	movs	r3, #1
 800bb5a:	f884 329c 	strb.w	r3, [r4, #668]	; 0x29c
 800bb5e:	e002      	b.n	800bb66 <USBD_SetAddress+0x4e>
    USBD_CtlError(pdev, req);
 800bb60:	4620      	mov	r0, r4
 800bb62:	f7ff ff0a 	bl	800b97a <USBD_CtlError>
}
 800bb66:	bd38      	pop	{r3, r4, r5, pc}

0800bb68 <USBD_SetConfig>:
{
 800bb68:	b570      	push	{r4, r5, r6, lr}
 800bb6a:	4604      	mov	r4, r0
 800bb6c:	460e      	mov	r6, r1
  cfgidx = (uint8_t)(req->wValue);
 800bb6e:	788d      	ldrb	r5, [r1, #2]
 800bb70:	4b2e      	ldr	r3, [pc, #184]	; (800bc2c <USBD_SetConfig+0xc4>)
 800bb72:	701d      	strb	r5, [r3, #0]
  if (cfgidx > USBD_MAX_NUM_CONFIGURATION)
 800bb74:	2d01      	cmp	r5, #1
 800bb76:	d810      	bhi.n	800bb9a <USBD_SetConfig+0x32>
  switch (pdev->dev_state)
 800bb78:	f890 329c 	ldrb.w	r3, [r0, #668]	; 0x29c
 800bb7c:	b2db      	uxtb	r3, r3
 800bb7e:	2b02      	cmp	r3, #2
 800bb80:	d00f      	beq.n	800bba2 <USBD_SetConfig+0x3a>
 800bb82:	2b03      	cmp	r3, #3
 800bb84:	d023      	beq.n	800bbce <USBD_SetConfig+0x66>
      USBD_CtlError(pdev, req);
 800bb86:	f7ff fef8 	bl	800b97a <USBD_CtlError>
      (void)USBD_ClrClassConfig(pdev, cfgidx);
 800bb8a:	4b28      	ldr	r3, [pc, #160]	; (800bc2c <USBD_SetConfig+0xc4>)
 800bb8c:	7819      	ldrb	r1, [r3, #0]
 800bb8e:	4620      	mov	r0, r4
 800bb90:	f7ff fd6b 	bl	800b66a <USBD_ClrClassConfig>
      ret = USBD_FAIL;
 800bb94:	2503      	movs	r5, #3
}
 800bb96:	4628      	mov	r0, r5
 800bb98:	bd70      	pop	{r4, r5, r6, pc}
    USBD_CtlError(pdev, req);
 800bb9a:	f7ff feee 	bl	800b97a <USBD_CtlError>
    return USBD_FAIL;
 800bb9e:	2503      	movs	r5, #3
 800bba0:	e7f9      	b.n	800bb96 <USBD_SetConfig+0x2e>
      if (cfgidx != 0U)
 800bba2:	b18d      	cbz	r5, 800bbc8 <USBD_SetConfig+0x60>
        pdev->dev_config = cfgidx;
 800bba4:	6045      	str	r5, [r0, #4]
        ret = USBD_SetClassConfig(pdev, cfgidx);
 800bba6:	4629      	mov	r1, r5
 800bba8:	f7ff fd56 	bl	800b658 <USBD_SetClassConfig>
        if (ret != USBD_OK)
 800bbac:	4605      	mov	r5, r0
 800bbae:	b120      	cbz	r0, 800bbba <USBD_SetConfig+0x52>
          USBD_CtlError(pdev, req);
 800bbb0:	4631      	mov	r1, r6
 800bbb2:	4620      	mov	r0, r4
 800bbb4:	f7ff fee1 	bl	800b97a <USBD_CtlError>
 800bbb8:	e7ed      	b.n	800bb96 <USBD_SetConfig+0x2e>
          (void)USBD_CtlSendStatus(pdev);
 800bbba:	4620      	mov	r0, r4
 800bbbc:	f000 fa32 	bl	800c024 <USBD_CtlSendStatus>
          pdev->dev_state = USBD_STATE_CONFIGURED;
 800bbc0:	2303      	movs	r3, #3
 800bbc2:	f884 329c 	strb.w	r3, [r4, #668]	; 0x29c
 800bbc6:	e7e6      	b.n	800bb96 <USBD_SetConfig+0x2e>
        (void)USBD_CtlSendStatus(pdev);
 800bbc8:	f000 fa2c 	bl	800c024 <USBD_CtlSendStatus>
 800bbcc:	e7e3      	b.n	800bb96 <USBD_SetConfig+0x2e>
      if (cfgidx == 0U)
 800bbce:	b1cd      	cbz	r5, 800bc04 <USBD_SetConfig+0x9c>
      else if (cfgidx != pdev->dev_config)
 800bbd0:	6841      	ldr	r1, [r0, #4]
 800bbd2:	428d      	cmp	r5, r1
 800bbd4:	d025      	beq.n	800bc22 <USBD_SetConfig+0xba>
        (void)USBD_ClrClassConfig(pdev, (uint8_t)pdev->dev_config);
 800bbd6:	b2c9      	uxtb	r1, r1
 800bbd8:	f7ff fd47 	bl	800b66a <USBD_ClrClassConfig>
        pdev->dev_config = cfgidx;
 800bbdc:	4b13      	ldr	r3, [pc, #76]	; (800bc2c <USBD_SetConfig+0xc4>)
 800bbde:	7819      	ldrb	r1, [r3, #0]
 800bbe0:	6061      	str	r1, [r4, #4]
        ret = USBD_SetClassConfig(pdev, cfgidx);
 800bbe2:	4620      	mov	r0, r4
 800bbe4:	f7ff fd38 	bl	800b658 <USBD_SetClassConfig>
        if (ret != USBD_OK)
 800bbe8:	4605      	mov	r5, r0
 800bbea:	b1b0      	cbz	r0, 800bc1a <USBD_SetConfig+0xb2>
          USBD_CtlError(pdev, req);
 800bbec:	4631      	mov	r1, r6
 800bbee:	4620      	mov	r0, r4
 800bbf0:	f7ff fec3 	bl	800b97a <USBD_CtlError>
          (void)USBD_ClrClassConfig(pdev, (uint8_t)pdev->dev_config);
 800bbf4:	7921      	ldrb	r1, [r4, #4]
 800bbf6:	4620      	mov	r0, r4
 800bbf8:	f7ff fd37 	bl	800b66a <USBD_ClrClassConfig>
          pdev->dev_state = USBD_STATE_ADDRESSED;
 800bbfc:	2302      	movs	r3, #2
 800bbfe:	f884 329c 	strb.w	r3, [r4, #668]	; 0x29c
 800bc02:	e7c8      	b.n	800bb96 <USBD_SetConfig+0x2e>
        pdev->dev_state = USBD_STATE_ADDRESSED;
 800bc04:	2302      	movs	r3, #2
 800bc06:	f880 329c 	strb.w	r3, [r0, #668]	; 0x29c
        pdev->dev_config = cfgidx;
 800bc0a:	6045      	str	r5, [r0, #4]
        (void)USBD_ClrClassConfig(pdev, cfgidx);
 800bc0c:	4629      	mov	r1, r5
 800bc0e:	f7ff fd2c 	bl	800b66a <USBD_ClrClassConfig>
        (void)USBD_CtlSendStatus(pdev);
 800bc12:	4620      	mov	r0, r4
 800bc14:	f000 fa06 	bl	800c024 <USBD_CtlSendStatus>
 800bc18:	e7bd      	b.n	800bb96 <USBD_SetConfig+0x2e>
          (void)USBD_CtlSendStatus(pdev);
 800bc1a:	4620      	mov	r0, r4
 800bc1c:	f000 fa02 	bl	800c024 <USBD_CtlSendStatus>
 800bc20:	e7b9      	b.n	800bb96 <USBD_SetConfig+0x2e>
        (void)USBD_CtlSendStatus(pdev);
 800bc22:	f000 f9ff 	bl	800c024 <USBD_CtlSendStatus>
  USBD_StatusTypeDef ret = USBD_OK;
 800bc26:	2500      	movs	r5, #0
 800bc28:	e7b5      	b.n	800bb96 <USBD_SetConfig+0x2e>
 800bc2a:	bf00      	nop
 800bc2c:	20002928 	.word	0x20002928

0800bc30 <USBD_GetConfig>:
{
 800bc30:	b508      	push	{r3, lr}
  if (req->wLength != 1U)
 800bc32:	88cb      	ldrh	r3, [r1, #6]
 800bc34:	2b01      	cmp	r3, #1
 800bc36:	d10b      	bne.n	800bc50 <USBD_GetConfig+0x20>
    switch (pdev->dev_state)
 800bc38:	f890 329c 	ldrb.w	r3, [r0, #668]	; 0x29c
 800bc3c:	b2db      	uxtb	r3, r3
 800bc3e:	2b02      	cmp	r3, #2
 800bc40:	d909      	bls.n	800bc56 <USBD_GetConfig+0x26>
 800bc42:	2b03      	cmp	r3, #3
 800bc44:	d109      	bne.n	800bc5a <USBD_GetConfig+0x2a>
        (void)USBD_CtlSendData(pdev, (uint8_t *)&pdev->dev_config, 1U);
 800bc46:	2201      	movs	r2, #1
 800bc48:	1d01      	adds	r1, r0, #4
 800bc4a:	f000 f9bf 	bl	800bfcc <USBD_CtlSendData>
        break;
 800bc4e:	e001      	b.n	800bc54 <USBD_GetConfig+0x24>
    USBD_CtlError(pdev, req);
 800bc50:	f7ff fe93 	bl	800b97a <USBD_CtlError>
}
 800bc54:	bd08      	pop	{r3, pc}
    switch (pdev->dev_state)
 800bc56:	b25b      	sxtb	r3, r3
 800bc58:	b913      	cbnz	r3, 800bc60 <USBD_GetConfig+0x30>
        USBD_CtlError(pdev, req);
 800bc5a:	f7ff fe8e 	bl	800b97a <USBD_CtlError>
}
 800bc5e:	e7f9      	b.n	800bc54 <USBD_GetConfig+0x24>
        pdev->dev_default_config = 0U;
 800bc60:	4601      	mov	r1, r0
 800bc62:	2300      	movs	r3, #0
 800bc64:	f841 3f08 	str.w	r3, [r1, #8]!
        (void)USBD_CtlSendData(pdev, (uint8_t *)&pdev->dev_default_config, 1U);
 800bc68:	2201      	movs	r2, #1
 800bc6a:	f000 f9af 	bl	800bfcc <USBD_CtlSendData>
        break;
 800bc6e:	e7f1      	b.n	800bc54 <USBD_GetConfig+0x24>

0800bc70 <USBD_GetStatus>:
{
 800bc70:	b508      	push	{r3, lr}
  switch (pdev->dev_state)
 800bc72:	f890 329c 	ldrb.w	r3, [r0, #668]	; 0x29c
 800bc76:	3b01      	subs	r3, #1
 800bc78:	2b02      	cmp	r3, #2
 800bc7a:	d812      	bhi.n	800bca2 <USBD_GetStatus+0x32>
      if (req->wLength != 0x2U)
 800bc7c:	88cb      	ldrh	r3, [r1, #6]
 800bc7e:	2b02      	cmp	r3, #2
 800bc80:	d10c      	bne.n	800bc9c <USBD_GetStatus+0x2c>
      pdev->dev_config_status = USB_CONFIG_SELF_POWERED;
 800bc82:	2301      	movs	r3, #1
 800bc84:	60c3      	str	r3, [r0, #12]
      if (pdev->dev_remote_wakeup != 0U)
 800bc86:	f8d0 32a4 	ldr.w	r3, [r0, #676]	; 0x2a4
 800bc8a:	b10b      	cbz	r3, 800bc90 <USBD_GetStatus+0x20>
        pdev->dev_config_status |= USB_CONFIG_REMOTE_WAKEUP;
 800bc8c:	2303      	movs	r3, #3
 800bc8e:	60c3      	str	r3, [r0, #12]
      (void)USBD_CtlSendData(pdev, (uint8_t *)&pdev->dev_config_status, 2U);
 800bc90:	2202      	movs	r2, #2
 800bc92:	f100 010c 	add.w	r1, r0, #12
 800bc96:	f000 f999 	bl	800bfcc <USBD_CtlSendData>
}
 800bc9a:	bd08      	pop	{r3, pc}
        USBD_CtlError(pdev, req);
 800bc9c:	f7ff fe6d 	bl	800b97a <USBD_CtlError>
        break;
 800bca0:	e7fb      	b.n	800bc9a <USBD_GetStatus+0x2a>
      USBD_CtlError(pdev, req);
 800bca2:	f7ff fe6a 	bl	800b97a <USBD_CtlError>
}
 800bca6:	e7f8      	b.n	800bc9a <USBD_GetStatus+0x2a>

0800bca8 <USBD_ClrFeature>:
{
 800bca8:	b508      	push	{r3, lr}
  switch (pdev->dev_state)
 800bcaa:	f890 329c 	ldrb.w	r3, [r0, #668]	; 0x29c
 800bcae:	3b01      	subs	r3, #1
 800bcb0:	2b02      	cmp	r3, #2
 800bcb2:	d809      	bhi.n	800bcc8 <USBD_ClrFeature+0x20>
      if (req->wValue == USB_FEATURE_REMOTE_WAKEUP)
 800bcb4:	884b      	ldrh	r3, [r1, #2]
 800bcb6:	2b01      	cmp	r3, #1
 800bcb8:	d000      	beq.n	800bcbc <USBD_ClrFeature+0x14>
}
 800bcba:	bd08      	pop	{r3, pc}
        pdev->dev_remote_wakeup = 0U;
 800bcbc:	2300      	movs	r3, #0
 800bcbe:	f8c0 32a4 	str.w	r3, [r0, #676]	; 0x2a4
        (void)USBD_CtlSendStatus(pdev);
 800bcc2:	f000 f9af 	bl	800c024 <USBD_CtlSendStatus>
 800bcc6:	e7f8      	b.n	800bcba <USBD_ClrFeature+0x12>
      USBD_CtlError(pdev, req);
 800bcc8:	f7ff fe57 	bl	800b97a <USBD_CtlError>
}
 800bccc:	e7f5      	b.n	800bcba <USBD_ClrFeature+0x12>

0800bcce <USBD_StdDevReq>:
{
 800bcce:	b538      	push	{r3, r4, r5, lr}
  switch (req->bmRequest & USB_REQ_TYPE_MASK)
 800bcd0:	780c      	ldrb	r4, [r1, #0]
 800bcd2:	f004 0460 	and.w	r4, r4, #96	; 0x60
 800bcd6:	2c20      	cmp	r4, #32
 800bcd8:	d006      	beq.n	800bce8 <USBD_StdDevReq+0x1a>
 800bcda:	2c40      	cmp	r4, #64	; 0x40
 800bcdc:	d004      	beq.n	800bce8 <USBD_StdDevReq+0x1a>
 800bcde:	b154      	cbz	r4, 800bcf6 <USBD_StdDevReq+0x28>
      USBD_CtlError(pdev, req);
 800bce0:	f7ff fe4b 	bl	800b97a <USBD_CtlError>
  USBD_StatusTypeDef ret = USBD_OK;
 800bce4:	2400      	movs	r4, #0
      break;
 800bce6:	e004      	b.n	800bcf2 <USBD_StdDevReq+0x24>
      ret = (USBD_StatusTypeDef)pdev->pClass->Setup(pdev, req);
 800bce8:	f8d0 32b8 	ldr.w	r3, [r0, #696]	; 0x2b8
 800bcec:	689b      	ldr	r3, [r3, #8]
 800bcee:	4798      	blx	r3
 800bcf0:	4604      	mov	r4, r0
}
 800bcf2:	4620      	mov	r0, r4
 800bcf4:	bd38      	pop	{r3, r4, r5, pc}
      switch (req->bRequest)
 800bcf6:	784d      	ldrb	r5, [r1, #1]
 800bcf8:	2d09      	cmp	r5, #9
 800bcfa:	d81d      	bhi.n	800bd38 <USBD_StdDevReq+0x6a>
 800bcfc:	e8df f005 	tbb	[pc, r5]
 800bd00:	161c1912 	.word	0x161c1912
 800bd04:	1c05081c 	.word	0x1c05081c
 800bd08:	0b0f      	.short	0x0b0f
          USBD_GetDescriptor(pdev, req);
 800bd0a:	f7ff fe40 	bl	800b98e <USBD_GetDescriptor>
          break;
 800bd0e:	e7f0      	b.n	800bcf2 <USBD_StdDevReq+0x24>
          USBD_SetAddress(pdev, req);
 800bd10:	f7ff ff02 	bl	800bb18 <USBD_SetAddress>
          break;
 800bd14:	e7ed      	b.n	800bcf2 <USBD_StdDevReq+0x24>
          ret = USBD_SetConfig(pdev, req);
 800bd16:	f7ff ff27 	bl	800bb68 <USBD_SetConfig>
 800bd1a:	4604      	mov	r4, r0
          break;
 800bd1c:	e7e9      	b.n	800bcf2 <USBD_StdDevReq+0x24>
          USBD_GetConfig(pdev, req);
 800bd1e:	f7ff ff87 	bl	800bc30 <USBD_GetConfig>
          break;
 800bd22:	e7e6      	b.n	800bcf2 <USBD_StdDevReq+0x24>
          USBD_GetStatus(pdev, req);
 800bd24:	f7ff ffa4 	bl	800bc70 <USBD_GetStatus>
  USBD_StatusTypeDef ret = USBD_OK;
 800bd28:	462c      	mov	r4, r5
          break;
 800bd2a:	e7e2      	b.n	800bcf2 <USBD_StdDevReq+0x24>
          USBD_SetFeature(pdev, req);
 800bd2c:	f7ff fe07 	bl	800b93e <USBD_SetFeature>
          break;
 800bd30:	e7df      	b.n	800bcf2 <USBD_StdDevReq+0x24>
          USBD_ClrFeature(pdev, req);
 800bd32:	f7ff ffb9 	bl	800bca8 <USBD_ClrFeature>
          break;
 800bd36:	e7dc      	b.n	800bcf2 <USBD_StdDevReq+0x24>
          USBD_CtlError(pdev, req);
 800bd38:	f7ff fe1f 	bl	800b97a <USBD_CtlError>
          break;
 800bd3c:	e7d9      	b.n	800bcf2 <USBD_StdDevReq+0x24>

0800bd3e <USBD_StdItfReq>:
{
 800bd3e:	b570      	push	{r4, r5, r6, lr}
 800bd40:	4605      	mov	r5, r0
 800bd42:	460c      	mov	r4, r1
  switch (req->bmRequest & USB_REQ_TYPE_MASK)
 800bd44:	780b      	ldrb	r3, [r1, #0]
 800bd46:	f003 0360 	and.w	r3, r3, #96	; 0x60
 800bd4a:	2b20      	cmp	r3, #32
 800bd4c:	d007      	beq.n	800bd5e <USBD_StdItfReq+0x20>
 800bd4e:	2b40      	cmp	r3, #64	; 0x40
 800bd50:	d005      	beq.n	800bd5e <USBD_StdItfReq+0x20>
 800bd52:	b123      	cbz	r3, 800bd5e <USBD_StdItfReq+0x20>
      USBD_CtlError(pdev, req);
 800bd54:	f7ff fe11 	bl	800b97a <USBD_CtlError>
  USBD_StatusTypeDef ret = USBD_OK;
 800bd58:	2600      	movs	r6, #0
}
 800bd5a:	4630      	mov	r0, r6
 800bd5c:	bd70      	pop	{r4, r5, r6, pc}
      switch (pdev->dev_state)
 800bd5e:	f895 329c 	ldrb.w	r3, [r5, #668]	; 0x29c
 800bd62:	3b01      	subs	r3, #1
 800bd64:	2b02      	cmp	r3, #2
 800bd66:	d818      	bhi.n	800bd9a <USBD_StdItfReq+0x5c>
          if (LOBYTE(req->wIndex) <= USBD_MAX_NUM_INTERFACES)
 800bd68:	7923      	ldrb	r3, [r4, #4]
 800bd6a:	2b01      	cmp	r3, #1
 800bd6c:	d80f      	bhi.n	800bd8e <USBD_StdItfReq+0x50>
            ret = (USBD_StatusTypeDef)pdev->pClass->Setup(pdev, req);
 800bd6e:	f8d5 32b8 	ldr.w	r3, [r5, #696]	; 0x2b8
 800bd72:	689b      	ldr	r3, [r3, #8]
 800bd74:	4621      	mov	r1, r4
 800bd76:	4628      	mov	r0, r5
 800bd78:	4798      	blx	r3
 800bd7a:	4606      	mov	r6, r0
            if ((req->wLength == 0U) && (ret == USBD_OK))
 800bd7c:	88e3      	ldrh	r3, [r4, #6]
 800bd7e:	2b00      	cmp	r3, #0
 800bd80:	d1eb      	bne.n	800bd5a <USBD_StdItfReq+0x1c>
 800bd82:	2800      	cmp	r0, #0
 800bd84:	d1e9      	bne.n	800bd5a <USBD_StdItfReq+0x1c>
              (void)USBD_CtlSendStatus(pdev);
 800bd86:	4628      	mov	r0, r5
 800bd88:	f000 f94c 	bl	800c024 <USBD_CtlSendStatus>
 800bd8c:	e7e5      	b.n	800bd5a <USBD_StdItfReq+0x1c>
            USBD_CtlError(pdev, req);
 800bd8e:	4621      	mov	r1, r4
 800bd90:	4628      	mov	r0, r5
 800bd92:	f7ff fdf2 	bl	800b97a <USBD_CtlError>
  USBD_StatusTypeDef ret = USBD_OK;
 800bd96:	2600      	movs	r6, #0
 800bd98:	e7df      	b.n	800bd5a <USBD_StdItfReq+0x1c>
          USBD_CtlError(pdev, req);
 800bd9a:	4621      	mov	r1, r4
 800bd9c:	4628      	mov	r0, r5
 800bd9e:	f7ff fdec 	bl	800b97a <USBD_CtlError>
  USBD_StatusTypeDef ret = USBD_OK;
 800bda2:	2600      	movs	r6, #0
          break;
 800bda4:	e7d9      	b.n	800bd5a <USBD_StdItfReq+0x1c>

0800bda6 <USBD_StdEPReq>:
{
 800bda6:	b5f8      	push	{r3, r4, r5, r6, r7, lr}
 800bda8:	4606      	mov	r6, r0
 800bdaa:	460d      	mov	r5, r1
  ep_addr = LOBYTE(req->wIndex);
 800bdac:	888b      	ldrh	r3, [r1, #4]
  switch (req->bmRequest & USB_REQ_TYPE_MASK)
 800bdae:	780c      	ldrb	r4, [r1, #0]
 800bdb0:	f004 0460 	and.w	r4, r4, #96	; 0x60
 800bdb4:	2c20      	cmp	r4, #32
 800bdb6:	d008      	beq.n	800bdca <USBD_StdEPReq+0x24>
 800bdb8:	b2d9      	uxtb	r1, r3
 800bdba:	2c40      	cmp	r4, #64	; 0x40
 800bdbc:	d005      	beq.n	800bdca <USBD_StdEPReq+0x24>
 800bdbe:	b16c      	cbz	r4, 800bddc <USBD_StdEPReq+0x36>
      USBD_CtlError(pdev, req);
 800bdc0:	4629      	mov	r1, r5
 800bdc2:	f7ff fdda 	bl	800b97a <USBD_CtlError>
  USBD_StatusTypeDef ret = USBD_OK;
 800bdc6:	2400      	movs	r4, #0
      break;
 800bdc8:	e006      	b.n	800bdd8 <USBD_StdEPReq+0x32>
      ret = (USBD_StatusTypeDef)pdev->pClass->Setup(pdev, req);
 800bdca:	f8d6 32b8 	ldr.w	r3, [r6, #696]	; 0x2b8
 800bdce:	689b      	ldr	r3, [r3, #8]
 800bdd0:	4629      	mov	r1, r5
 800bdd2:	4630      	mov	r0, r6
 800bdd4:	4798      	blx	r3
 800bdd6:	4604      	mov	r4, r0
}
 800bdd8:	4620      	mov	r0, r4
 800bdda:	bdf8      	pop	{r3, r4, r5, r6, r7, pc}
      switch (req->bRequest)
 800bddc:	786f      	ldrb	r7, [r5, #1]
 800bdde:	2f01      	cmp	r7, #1
 800bde0:	d02f      	beq.n	800be42 <USBD_StdEPReq+0x9c>
 800bde2:	2f03      	cmp	r7, #3
 800bde4:	d005      	beq.n	800bdf2 <USBD_StdEPReq+0x4c>
 800bde6:	2f00      	cmp	r7, #0
 800bde8:	d059      	beq.n	800be9e <USBD_StdEPReq+0xf8>
          USBD_CtlError(pdev, req);
 800bdea:	4629      	mov	r1, r5
 800bdec:	f7ff fdc5 	bl	800b97a <USBD_CtlError>
          break;
 800bdf0:	e7f2      	b.n	800bdd8 <USBD_StdEPReq+0x32>
          switch (pdev->dev_state)
 800bdf2:	f890 329c 	ldrb.w	r3, [r0, #668]	; 0x29c
 800bdf6:	b2db      	uxtb	r3, r3
 800bdf8:	2b02      	cmp	r3, #2
 800bdfa:	d005      	beq.n	800be08 <USBD_StdEPReq+0x62>
 800bdfc:	2b03      	cmp	r3, #3
 800bdfe:	d012      	beq.n	800be26 <USBD_StdEPReq+0x80>
              USBD_CtlError(pdev, req);
 800be00:	4629      	mov	r1, r5
 800be02:	f7ff fdba 	bl	800b97a <USBD_CtlError>
              break;
 800be06:	e7e7      	b.n	800bdd8 <USBD_StdEPReq+0x32>
              if ((ep_addr != 0x00U) && (ep_addr != 0x80U))
 800be08:	b109      	cbz	r1, 800be0e <USBD_StdEPReq+0x68>
 800be0a:	2980      	cmp	r1, #128	; 0x80
 800be0c:	d104      	bne.n	800be18 <USBD_StdEPReq+0x72>
                USBD_CtlError(pdev, req);
 800be0e:	4629      	mov	r1, r5
 800be10:	4630      	mov	r0, r6
 800be12:	f7ff fdb2 	bl	800b97a <USBD_CtlError>
 800be16:	e7df      	b.n	800bdd8 <USBD_StdEPReq+0x32>
                (void)USBD_LL_StallEP(pdev, ep_addr);
 800be18:	f7fa fbf2 	bl	8006600 <USBD_LL_StallEP>
                (void)USBD_LL_StallEP(pdev, 0x80U);
 800be1c:	2180      	movs	r1, #128	; 0x80
 800be1e:	4630      	mov	r0, r6
 800be20:	f7fa fbee 	bl	8006600 <USBD_LL_StallEP>
 800be24:	e7d8      	b.n	800bdd8 <USBD_StdEPReq+0x32>
              if (req->wValue == USB_FEATURE_EP_HALT)
 800be26:	886b      	ldrh	r3, [r5, #2]
 800be28:	b923      	cbnz	r3, 800be34 <USBD_StdEPReq+0x8e>
                if ((ep_addr != 0x00U) && (ep_addr != 0x80U) && (req->wLength == 0x00U))
 800be2a:	b119      	cbz	r1, 800be34 <USBD_StdEPReq+0x8e>
 800be2c:	2980      	cmp	r1, #128	; 0x80
 800be2e:	d001      	beq.n	800be34 <USBD_StdEPReq+0x8e>
 800be30:	88eb      	ldrh	r3, [r5, #6]
 800be32:	b11b      	cbz	r3, 800be3c <USBD_StdEPReq+0x96>
              (void)USBD_CtlSendStatus(pdev);
 800be34:	4630      	mov	r0, r6
 800be36:	f000 f8f5 	bl	800c024 <USBD_CtlSendStatus>
              break;
 800be3a:	e7cd      	b.n	800bdd8 <USBD_StdEPReq+0x32>
                  (void)USBD_LL_StallEP(pdev, ep_addr);
 800be3c:	f7fa fbe0 	bl	8006600 <USBD_LL_StallEP>
 800be40:	e7f8      	b.n	800be34 <USBD_StdEPReq+0x8e>
          switch (pdev->dev_state)
 800be42:	f890 329c 	ldrb.w	r3, [r0, #668]	; 0x29c
 800be46:	b2db      	uxtb	r3, r3
 800be48:	2b02      	cmp	r3, #2
 800be4a:	d005      	beq.n	800be58 <USBD_StdEPReq+0xb2>
 800be4c:	2b03      	cmp	r3, #3
 800be4e:	d012      	beq.n	800be76 <USBD_StdEPReq+0xd0>
              USBD_CtlError(pdev, req);
 800be50:	4629      	mov	r1, r5
 800be52:	f7ff fd92 	bl	800b97a <USBD_CtlError>
              break;
 800be56:	e7bf      	b.n	800bdd8 <USBD_StdEPReq+0x32>
              if ((ep_addr != 0x00U) && (ep_addr != 0x80U))
 800be58:	b109      	cbz	r1, 800be5e <USBD_StdEPReq+0xb8>
 800be5a:	2980      	cmp	r1, #128	; 0x80
 800be5c:	d104      	bne.n	800be68 <USBD_StdEPReq+0xc2>
                USBD_CtlError(pdev, req);
 800be5e:	4629      	mov	r1, r5
 800be60:	4630      	mov	r0, r6
 800be62:	f7ff fd8a 	bl	800b97a <USBD_CtlError>
 800be66:	e7b7      	b.n	800bdd8 <USBD_StdEPReq+0x32>
                (void)USBD_LL_StallEP(pdev, ep_addr);
 800be68:	f7fa fbca 	bl	8006600 <USBD_LL_StallEP>
                (void)USBD_LL_StallEP(pdev, 0x80U);
 800be6c:	2180      	movs	r1, #128	; 0x80
 800be6e:	4630      	mov	r0, r6
 800be70:	f7fa fbc6 	bl	8006600 <USBD_LL_StallEP>
 800be74:	e7b0      	b.n	800bdd8 <USBD_StdEPReq+0x32>
              if (req->wValue == USB_FEATURE_EP_HALT)
 800be76:	886b      	ldrh	r3, [r5, #2]
 800be78:	2b00      	cmp	r3, #0
 800be7a:	d1ad      	bne.n	800bdd8 <USBD_StdEPReq+0x32>
                if ((ep_addr & 0x7FU) != 0x00U)
 800be7c:	f011 0f7f 	tst.w	r1, #127	; 0x7f
 800be80:	d10a      	bne.n	800be98 <USBD_StdEPReq+0xf2>
                (void)USBD_CtlSendStatus(pdev);
 800be82:	4630      	mov	r0, r6
 800be84:	f000 f8ce 	bl	800c024 <USBD_CtlSendStatus>
                ret = (USBD_StatusTypeDef)pdev->pClass->Setup(pdev, req);
 800be88:	f8d6 32b8 	ldr.w	r3, [r6, #696]	; 0x2b8
 800be8c:	689b      	ldr	r3, [r3, #8]
 800be8e:	4629      	mov	r1, r5
 800be90:	4630      	mov	r0, r6
 800be92:	4798      	blx	r3
 800be94:	4604      	mov	r4, r0
 800be96:	e79f      	b.n	800bdd8 <USBD_StdEPReq+0x32>
                  (void)USBD_LL_ClearStallEP(pdev, ep_addr);
 800be98:	f7fa fbb9 	bl	800660e <USBD_LL_ClearStallEP>
 800be9c:	e7f1      	b.n	800be82 <USBD_StdEPReq+0xdc>
          switch (pdev->dev_state)
 800be9e:	f890 229c 	ldrb.w	r2, [r0, #668]	; 0x29c
 800bea2:	b2d2      	uxtb	r2, r2
 800bea4:	2a02      	cmp	r2, #2
 800bea6:	d006      	beq.n	800beb6 <USBD_StdEPReq+0x110>
 800bea8:	2a03      	cmp	r2, #3
 800beaa:	d029      	beq.n	800bf00 <USBD_StdEPReq+0x15a>
              USBD_CtlError(pdev, req);
 800beac:	4629      	mov	r1, r5
 800beae:	f7ff fd64 	bl	800b97a <USBD_CtlError>
  USBD_StatusTypeDef ret = USBD_OK;
 800beb2:	463c      	mov	r4, r7
              break;
 800beb4:	e790      	b.n	800bdd8 <USBD_StdEPReq+0x32>
              if ((ep_addr != 0x00U) && (ep_addr != 0x80U))
 800beb6:	b109      	cbz	r1, 800bebc <USBD_StdEPReq+0x116>
 800beb8:	2980      	cmp	r1, #128	; 0x80
 800beba:	d113      	bne.n	800bee4 <USBD_StdEPReq+0x13e>
              pep = ((ep_addr & 0x80U) == 0x80U) ? &pdev->ep_in[ep_addr & 0x7FU] : \
 800bebc:	f013 0f80 	tst.w	r3, #128	; 0x80
 800bec0:	d115      	bne.n	800beee <USBD_StdEPReq+0x148>
                    &pdev->ep_out[ep_addr & 0x7FU];
 800bec2:	f001 017f 	and.w	r1, r1, #127	; 0x7f
              pep = ((ep_addr & 0x80U) == 0x80U) ? &pdev->ep_in[ep_addr & 0x7FU] : \
 800bec6:	eb01 0181 	add.w	r1, r1, r1, lsl #2
 800beca:	0089      	lsls	r1, r1, #2
 800becc:	f501 71a8 	add.w	r1, r1, #336	; 0x150
 800bed0:	4431      	add	r1, r6
 800bed2:	3104      	adds	r1, #4
              pep->status = 0x0000U;
 800bed4:	2300      	movs	r3, #0
 800bed6:	600b      	str	r3, [r1, #0]
              (void)USBD_CtlSendData(pdev, (uint8_t *)&pep->status, 2U);
 800bed8:	2202      	movs	r2, #2
 800beda:	4630      	mov	r0, r6
 800bedc:	f000 f876 	bl	800bfcc <USBD_CtlSendData>
  USBD_StatusTypeDef ret = USBD_OK;
 800bee0:	463c      	mov	r4, r7
              break;
 800bee2:	e779      	b.n	800bdd8 <USBD_StdEPReq+0x32>
                USBD_CtlError(pdev, req);
 800bee4:	4629      	mov	r1, r5
 800bee6:	f7ff fd48 	bl	800b97a <USBD_CtlError>
  USBD_StatusTypeDef ret = USBD_OK;
 800beea:	463c      	mov	r4, r7
                break;
 800beec:	e774      	b.n	800bdd8 <USBD_StdEPReq+0x32>
              pep = ((ep_addr & 0x80U) == 0x80U) ? &pdev->ep_in[ep_addr & 0x7FU] : \
 800beee:	f001 017f 	and.w	r1, r1, #127	; 0x7f
 800bef2:	eb01 0181 	add.w	r1, r1, r1, lsl #2
 800bef6:	0089      	lsls	r1, r1, #2
 800bef8:	3110      	adds	r1, #16
 800befa:	4431      	add	r1, r6
 800befc:	3104      	adds	r1, #4
 800befe:	e7e9      	b.n	800bed4 <USBD_StdEPReq+0x12e>
              if ((ep_addr & 0x80U) == 0x80U)
 800bf00:	b25b      	sxtb	r3, r3
 800bf02:	2b00      	cmp	r3, #0
 800bf04:	db1f      	blt.n	800bf46 <USBD_StdEPReq+0x1a0>
                if (pdev->ep_out[ep_addr & 0xFU].is_used == 0U)
 800bf06:	f001 020f 	and.w	r2, r1, #15
 800bf0a:	eb02 0282 	add.w	r2, r2, r2, lsl #2
 800bf0e:	eb00 0282 	add.w	r2, r0, r2, lsl #2
 800bf12:	f8b2 2164 	ldrh.w	r2, [r2, #356]	; 0x164
 800bf16:	b322      	cbz	r2, 800bf62 <USBD_StdEPReq+0x1bc>
              pep = ((ep_addr & 0x80U) == 0x80U) ? &pdev->ep_in[ep_addr & 0x7FU] : \
 800bf18:	2b00      	cmp	r3, #0
 800bf1a:	db27      	blt.n	800bf6c <USBD_StdEPReq+0x1c6>
                    &pdev->ep_out[ep_addr & 0x7FU];
 800bf1c:	f001 037f 	and.w	r3, r1, #127	; 0x7f
              pep = ((ep_addr & 0x80U) == 0x80U) ? &pdev->ep_in[ep_addr & 0x7FU] : \
 800bf20:	eb03 0383 	add.w	r3, r3, r3, lsl #2
 800bf24:	009c      	lsls	r4, r3, #2
 800bf26:	f504 74a8 	add.w	r4, r4, #336	; 0x150
 800bf2a:	4434      	add	r4, r6
 800bf2c:	3404      	adds	r4, #4
              if ((ep_addr == 0x00U) || (ep_addr == 0x80U))
 800bf2e:	b109      	cbz	r1, 800bf34 <USBD_StdEPReq+0x18e>
 800bf30:	2980      	cmp	r1, #128	; 0x80
 800bf32:	d124      	bne.n	800bf7e <USBD_StdEPReq+0x1d8>
                pep->status = 0x0000U;
 800bf34:	2300      	movs	r3, #0
 800bf36:	6023      	str	r3, [r4, #0]
              (void)USBD_CtlSendData(pdev, (uint8_t *)&pep->status, 2U);
 800bf38:	2202      	movs	r2, #2
 800bf3a:	4621      	mov	r1, r4
 800bf3c:	4630      	mov	r0, r6
 800bf3e:	f000 f845 	bl	800bfcc <USBD_CtlSendData>
  USBD_StatusTypeDef ret = USBD_OK;
 800bf42:	463c      	mov	r4, r7
              break;
 800bf44:	e748      	b.n	800bdd8 <USBD_StdEPReq+0x32>
                if (pdev->ep_in[ep_addr & 0xFU].is_used == 0U)
 800bf46:	f001 020f 	and.w	r2, r1, #15
 800bf4a:	eb02 0282 	add.w	r2, r2, r2, lsl #2
 800bf4e:	eb00 0282 	add.w	r2, r0, r2, lsl #2
 800bf52:	8c92      	ldrh	r2, [r2, #36]	; 0x24
 800bf54:	2a00      	cmp	r2, #0
 800bf56:	d1df      	bne.n	800bf18 <USBD_StdEPReq+0x172>
                  USBD_CtlError(pdev, req);
 800bf58:	4629      	mov	r1, r5
 800bf5a:	f7ff fd0e 	bl	800b97a <USBD_CtlError>
  USBD_StatusTypeDef ret = USBD_OK;
 800bf5e:	463c      	mov	r4, r7
                  break;
 800bf60:	e73a      	b.n	800bdd8 <USBD_StdEPReq+0x32>
                  USBD_CtlError(pdev, req);
 800bf62:	4629      	mov	r1, r5
 800bf64:	f7ff fd09 	bl	800b97a <USBD_CtlError>
  USBD_StatusTypeDef ret = USBD_OK;
 800bf68:	463c      	mov	r4, r7
                  break;
 800bf6a:	e735      	b.n	800bdd8 <USBD_StdEPReq+0x32>
              pep = ((ep_addr & 0x80U) == 0x80U) ? &pdev->ep_in[ep_addr & 0x7FU] : \
 800bf6c:	f001 037f 	and.w	r3, r1, #127	; 0x7f
 800bf70:	eb03 0383 	add.w	r3, r3, r3, lsl #2
 800bf74:	009c      	lsls	r4, r3, #2
 800bf76:	3410      	adds	r4, #16
 800bf78:	4434      	add	r4, r6
 800bf7a:	3404      	adds	r4, #4
 800bf7c:	e7d7      	b.n	800bf2e <USBD_StdEPReq+0x188>
              else if (USBD_LL_IsStallEP(pdev, ep_addr) != 0U)
 800bf7e:	4630      	mov	r0, r6
 800bf80:	f7fa fb4c 	bl	800661c <USBD_LL_IsStallEP>
 800bf84:	b110      	cbz	r0, 800bf8c <USBD_StdEPReq+0x1e6>
                pep->status = 0x0001U;
 800bf86:	2301      	movs	r3, #1
 800bf88:	6023      	str	r3, [r4, #0]
 800bf8a:	e7d5      	b.n	800bf38 <USBD_StdEPReq+0x192>
                pep->status = 0x0000U;
 800bf8c:	2300      	movs	r3, #0
 800bf8e:	6023      	str	r3, [r4, #0]
 800bf90:	e7d2      	b.n	800bf38 <USBD_StdEPReq+0x192>

0800bf92 <USBD_GetString>:
  if (desc == NULL)
 800bf92:	b1d0      	cbz	r0, 800bfca <USBD_GetString+0x38>
{
 800bf94:	b570      	push	{r4, r5, r6, lr}
 800bf96:	460d      	mov	r5, r1
 800bf98:	4616      	mov	r6, r2
 800bf9a:	4604      	mov	r4, r0
  *len = ((uint16_t)USBD_GetLen(pdesc) * 2U) + 2U;
 800bf9c:	f7ff fcc5 	bl	800b92a <USBD_GetLen>
 800bfa0:	1c43      	adds	r3, r0, #1
 800bfa2:	005b      	lsls	r3, r3, #1
 800bfa4:	b29b      	uxth	r3, r3
 800bfa6:	8033      	strh	r3, [r6, #0]
  unicode[idx] = *(uint8_t *)len;
 800bfa8:	702b      	strb	r3, [r5, #0]
  unicode[idx] = USB_DESC_TYPE_STRING;
 800bfaa:	2303      	movs	r3, #3
 800bfac:	706b      	strb	r3, [r5, #1]
  idx++;
 800bfae:	2302      	movs	r3, #2
  while (*pdesc != (uint8_t)'\0')
 800bfb0:	e007      	b.n	800bfc2 <USBD_GetString+0x30>
    unicode[idx] = *pdesc;
 800bfb2:	54ea      	strb	r2, [r5, r3]
    pdesc++;
 800bfb4:	3401      	adds	r4, #1
    idx++;
 800bfb6:	1c5a      	adds	r2, r3, #1
 800bfb8:	b2d2      	uxtb	r2, r2
    unicode[idx] = 0U;
 800bfba:	2100      	movs	r1, #0
 800bfbc:	54a9      	strb	r1, [r5, r2]
    idx++;
 800bfbe:	3302      	adds	r3, #2
 800bfc0:	b2db      	uxtb	r3, r3
  while (*pdesc != (uint8_t)'\0')
 800bfc2:	7822      	ldrb	r2, [r4, #0]
 800bfc4:	2a00      	cmp	r2, #0
 800bfc6:	d1f4      	bne.n	800bfb2 <USBD_GetString+0x20>
}
 800bfc8:	bd70      	pop	{r4, r5, r6, pc}
 800bfca:	4770      	bx	lr

0800bfcc <USBD_CtlSendData>:
  * @param  len: length of data to be sent
  * @retval status
  */
USBD_StatusTypeDef USBD_CtlSendData(USBD_HandleTypeDef *pdev,
                                    uint8_t *pbuf, uint32_t len)
{
 800bfcc:	b508      	push	{r3, lr}
 800bfce:	4613      	mov	r3, r2
  /* Set EP0 State */
  pdev->ep0_state = USBD_EP0_DATA_IN;
 800bfd0:	2202      	movs	r2, #2
 800bfd2:	f8c0 2294 	str.w	r2, [r0, #660]	; 0x294
  pdev->ep_in[0].total_length = len;
 800bfd6:	6183      	str	r3, [r0, #24]

#ifdef USBD_AVOID_PACKET_SPLIT_MPS
  pdev->ep_in[0].rem_length = 0U;
#else
  pdev->ep_in[0].rem_length = len;
 800bfd8:	61c3      	str	r3, [r0, #28]
#endif

  /* Start the transfer */
  (void)USBD_LL_Transmit(pdev, 0x00U, pbuf, len);
 800bfda:	460a      	mov	r2, r1
 800bfdc:	2100      	movs	r1, #0
 800bfde:	f7fa fb3b 	bl	8006658 <USBD_LL_Transmit>

  return USBD_OK;
}
 800bfe2:	2000      	movs	r0, #0
 800bfe4:	bd08      	pop	{r3, pc}

0800bfe6 <USBD_CtlContinueSendData>:
  * @param  len: length of data to be sent
  * @retval status
  */
USBD_StatusTypeDef USBD_CtlContinueSendData(USBD_HandleTypeDef *pdev,
                                            uint8_t *pbuf, uint32_t len)
{
 800bfe6:	b508      	push	{r3, lr}
 800bfe8:	4613      	mov	r3, r2
  /* Start the next transfer */
  (void)USBD_LL_Transmit(pdev, 0x00U, pbuf, len);
 800bfea:	460a      	mov	r2, r1
 800bfec:	2100      	movs	r1, #0
 800bfee:	f7fa fb33 	bl	8006658 <USBD_LL_Transmit>

  return USBD_OK;
}
 800bff2:	2000      	movs	r0, #0
 800bff4:	bd08      	pop	{r3, pc}

0800bff6 <USBD_CtlPrepareRx>:
  * @param  len: length of data to be received
  * @retval status
  */
USBD_StatusTypeDef USBD_CtlPrepareRx(USBD_HandleTypeDef *pdev,
                                     uint8_t *pbuf, uint32_t len)
{
 800bff6:	b508      	push	{r3, lr}
 800bff8:	4613      	mov	r3, r2
  /* Set EP0 State */
  pdev->ep0_state = USBD_EP0_DATA_OUT;
 800bffa:	2203      	movs	r2, #3
 800bffc:	f8c0 2294 	str.w	r2, [r0, #660]	; 0x294
  pdev->ep_out[0].total_length = len;
 800c000:	f8c0 3158 	str.w	r3, [r0, #344]	; 0x158

#ifdef USBD_AVOID_PACKET_SPLIT_MPS
  pdev->ep_out[0].rem_length = 0U;
#else
  pdev->ep_out[0].rem_length = len;
 800c004:	f8c0 315c 	str.w	r3, [r0, #348]	; 0x15c
#endif

  /* Start the transfer */
  (void)USBD_LL_PrepareReceive(pdev, 0U, pbuf, len);
 800c008:	460a      	mov	r2, r1
 800c00a:	2100      	movs	r1, #0
 800c00c:	f7fa fb2b 	bl	8006666 <USBD_LL_PrepareReceive>

  return USBD_OK;
}
 800c010:	2000      	movs	r0, #0
 800c012:	bd08      	pop	{r3, pc}

0800c014 <USBD_CtlContinueRx>:
  * @param  len: length of data to be received
  * @retval status
  */
USBD_StatusTypeDef USBD_CtlContinueRx(USBD_HandleTypeDef *pdev,
                                      uint8_t *pbuf, uint32_t len)
{
 800c014:	b508      	push	{r3, lr}
 800c016:	4613      	mov	r3, r2
  (void)USBD_LL_PrepareReceive(pdev, 0U, pbuf, len);
 800c018:	460a      	mov	r2, r1
 800c01a:	2100      	movs	r1, #0
 800c01c:	f7fa fb23 	bl	8006666 <USBD_LL_PrepareReceive>

  return USBD_OK;
}
 800c020:	2000      	movs	r0, #0
 800c022:	bd08      	pop	{r3, pc}

0800c024 <USBD_CtlSendStatus>:
  *         send zero lzngth packet on the ctl pipe
  * @param  pdev: device instance
  * @retval status
  */
USBD_StatusTypeDef USBD_CtlSendStatus(USBD_HandleTypeDef *pdev)
{
 800c024:	b508      	push	{r3, lr}
  /* Set EP0 State */
  pdev->ep0_state = USBD_EP0_STATUS_IN;
 800c026:	2204      	movs	r2, #4
 800c028:	f8c0 2294 	str.w	r2, [r0, #660]	; 0x294

  /* Start the transfer */
  (void)USBD_LL_Transmit(pdev, 0x00U, NULL, 0U);
 800c02c:	2300      	movs	r3, #0
 800c02e:	461a      	mov	r2, r3
 800c030:	4619      	mov	r1, r3
 800c032:	f7fa fb11 	bl	8006658 <USBD_LL_Transmit>

  return USBD_OK;
}
 800c036:	2000      	movs	r0, #0
 800c038:	bd08      	pop	{r3, pc}

0800c03a <USBD_CtlReceiveStatus>:
  *         receive zero lzngth packet on the ctl pipe
  * @param  pdev: device instance
  * @retval status
  */
USBD_StatusTypeDef USBD_CtlReceiveStatus(USBD_HandleTypeDef *pdev)
{
 800c03a:	b508      	push	{r3, lr}
  /* Set EP0 State */
  pdev->ep0_state = USBD_EP0_STATUS_OUT;
 800c03c:	2205      	movs	r2, #5
 800c03e:	f8c0 2294 	str.w	r2, [r0, #660]	; 0x294

  /* Start the transfer */
  (void)USBD_LL_PrepareReceive(pdev, 0U, NULL, 0U);
 800c042:	2300      	movs	r3, #0
 800c044:	461a      	mov	r2, r3
 800c046:	4619      	mov	r1, r3
 800c048:	f7fa fb0d 	bl	8006666 <USBD_LL_PrepareReceive>

  return USBD_OK;
}
 800c04c:	2000      	movs	r0, #0
 800c04e:	bd08      	pop	{r3, pc}

0800c050 <atan2>:
 800c050:	f000 ba06 	b.w	800c460 <__ieee754_atan2>

0800c054 <cos>:
 800c054:	b530      	push	{r4, r5, lr}
 800c056:	4d20      	ldr	r5, [pc, #128]	; (800c0d8 <cos+0x84>)
 800c058:	f021 4400 	bic.w	r4, r1, #2147483648	; 0x80000000
 800c05c:	42ac      	cmp	r4, r5
 800c05e:	b087      	sub	sp, #28
 800c060:	4602      	mov	r2, r0
 800c062:	460b      	mov	r3, r1
 800c064:	dc06      	bgt.n	800c074 <cos+0x20>
 800c066:	2200      	movs	r2, #0
 800c068:	2300      	movs	r3, #0
 800c06a:	b007      	add	sp, #28
 800c06c:	e8bd 4030 	ldmia.w	sp!, {r4, r5, lr}
 800c070:	f000 b87e 	b.w	800c170 <__kernel_cos>
 800c074:	4d19      	ldr	r5, [pc, #100]	; (800c0dc <cos+0x88>)
 800c076:	42ac      	cmp	r4, r5
 800c078:	dd03      	ble.n	800c082 <cos+0x2e>
 800c07a:	f7f8 f8fd 	bl	8004278 <__aeabi_dsub>
 800c07e:	b007      	add	sp, #28
 800c080:	bd30      	pop	{r4, r5, pc}
 800c082:	aa02      	add	r2, sp, #8
 800c084:	f000 fabc 	bl	800c600 <__ieee754_rem_pio2>
 800c088:	f000 0003 	and.w	r0, r0, #3
 800c08c:	2801      	cmp	r0, #1
 800c08e:	d009      	beq.n	800c0a4 <cos+0x50>
 800c090:	2802      	cmp	r0, #2
 800c092:	d011      	beq.n	800c0b8 <cos+0x64>
 800c094:	b9b8      	cbnz	r0, 800c0c6 <cos+0x72>
 800c096:	e9dd 2304 	ldrd	r2, r3, [sp, #16]
 800c09a:	e9dd 0102 	ldrd	r0, r1, [sp, #8]
 800c09e:	f000 f867 	bl	800c170 <__kernel_cos>
 800c0a2:	e7ec      	b.n	800c07e <cos+0x2a>
 800c0a4:	9000      	str	r0, [sp, #0]
 800c0a6:	e9dd 2304 	ldrd	r2, r3, [sp, #16]
 800c0aa:	e9dd 0102 	ldrd	r0, r1, [sp, #8]
 800c0ae:	f000 f91f 	bl	800c2f0 <__kernel_sin>
 800c0b2:	f101 4100 	add.w	r1, r1, #2147483648	; 0x80000000
 800c0b6:	e7e2      	b.n	800c07e <cos+0x2a>
 800c0b8:	e9dd 2304 	ldrd	r2, r3, [sp, #16]
 800c0bc:	e9dd 0102 	ldrd	r0, r1, [sp, #8]
 800c0c0:	f000 f856 	bl	800c170 <__kernel_cos>
 800c0c4:	e7f5      	b.n	800c0b2 <cos+0x5e>
 800c0c6:	2301      	movs	r3, #1
 800c0c8:	9300      	str	r3, [sp, #0]
 800c0ca:	e9dd 0102 	ldrd	r0, r1, [sp, #8]
 800c0ce:	e9dd 2304 	ldrd	r2, r3, [sp, #16]
 800c0d2:	f000 f90d 	bl	800c2f0 <__kernel_sin>
 800c0d6:	e7d2      	b.n	800c07e <cos+0x2a>
 800c0d8:	3fe921fb 	.word	0x3fe921fb
 800c0dc:	7fefffff 	.word	0x7fefffff

0800c0e0 <sin>:
 800c0e0:	b530      	push	{r4, r5, lr}
 800c0e2:	4d20      	ldr	r5, [pc, #128]	; (800c164 <sin+0x84>)
 800c0e4:	f021 4400 	bic.w	r4, r1, #2147483648	; 0x80000000
 800c0e8:	42ac      	cmp	r4, r5
 800c0ea:	b087      	sub	sp, #28
 800c0ec:	4602      	mov	r2, r0
 800c0ee:	460b      	mov	r3, r1
 800c0f0:	dc06      	bgt.n	800c100 <sin+0x20>
 800c0f2:	2300      	movs	r3, #0
 800c0f4:	9300      	str	r3, [sp, #0]
 800c0f6:	2200      	movs	r2, #0
 800c0f8:	2300      	movs	r3, #0
 800c0fa:	f000 f8f9 	bl	800c2f0 <__kernel_sin>
 800c0fe:	e004      	b.n	800c10a <sin+0x2a>
 800c100:	4d19      	ldr	r5, [pc, #100]	; (800c168 <sin+0x88>)
 800c102:	42ac      	cmp	r4, r5
 800c104:	dd03      	ble.n	800c10e <sin+0x2e>
 800c106:	f7f8 f8b7 	bl	8004278 <__aeabi_dsub>
 800c10a:	b007      	add	sp, #28
 800c10c:	bd30      	pop	{r4, r5, pc}
 800c10e:	aa02      	add	r2, sp, #8
 800c110:	f000 fa76 	bl	800c600 <__ieee754_rem_pio2>
 800c114:	f000 0003 	and.w	r0, r0, #3
 800c118:	2801      	cmp	r0, #1
 800c11a:	d009      	beq.n	800c130 <sin+0x50>
 800c11c:	2802      	cmp	r0, #2
 800c11e:	d00e      	beq.n	800c13e <sin+0x5e>
 800c120:	b9c0      	cbnz	r0, 800c154 <sin+0x74>
 800c122:	2301      	movs	r3, #1
 800c124:	9300      	str	r3, [sp, #0]
 800c126:	e9dd 0102 	ldrd	r0, r1, [sp, #8]
 800c12a:	e9dd 2304 	ldrd	r2, r3, [sp, #16]
 800c12e:	e7e4      	b.n	800c0fa <sin+0x1a>
 800c130:	e9dd 2304 	ldrd	r2, r3, [sp, #16]
 800c134:	e9dd 0102 	ldrd	r0, r1, [sp, #8]
 800c138:	f000 f81a 	bl	800c170 <__kernel_cos>
 800c13c:	e7e5      	b.n	800c10a <sin+0x2a>
 800c13e:	2301      	movs	r3, #1
 800c140:	9300      	str	r3, [sp, #0]
 800c142:	e9dd 0102 	ldrd	r0, r1, [sp, #8]
 800c146:	e9dd 2304 	ldrd	r2, r3, [sp, #16]
 800c14a:	f000 f8d1 	bl	800c2f0 <__kernel_sin>
 800c14e:	f101 4100 	add.w	r1, r1, #2147483648	; 0x80000000
 800c152:	e7da      	b.n	800c10a <sin+0x2a>
 800c154:	e9dd 2304 	ldrd	r2, r3, [sp, #16]
 800c158:	e9dd 0102 	ldrd	r0, r1, [sp, #8]
 800c15c:	f000 f808 	bl	800c170 <__kernel_cos>
 800c160:	e7f5      	b.n	800c14e <sin+0x6e>
 800c162:	bf00      	nop
 800c164:	3fe921fb 	.word	0x3fe921fb
 800c168:	7fefffff 	.word	0x7fefffff
 800c16c:	00000000 	.word	0x00000000

0800c170 <__kernel_cos>:
 800c170:	e92d 4ff8 	stmdb	sp!, {r3, r4, r5, r6, r7, r8, r9, sl, fp, lr}
 800c174:	f021 4600 	bic.w	r6, r1, #2147483648	; 0x80000000
 800c178:	f1b6 5f79 	cmp.w	r6, #1044381696	; 0x3e400000
 800c17c:	ed2d 8b02 	vpush	{d8}
 800c180:	4680      	mov	r8, r0
 800c182:	ec43 2b18 	vmov	d8, r2, r3
 800c186:	4689      	mov	r9, r1
 800c188:	da04      	bge.n	800c194 <__kernel_cos+0x24>
 800c18a:	f7f8 fcc7 	bl	8004b1c <__aeabi_d2iz>
 800c18e:	2800      	cmp	r0, #0
 800c190:	f000 8087 	beq.w	800c2a2 <__kernel_cos+0x132>
 800c194:	4642      	mov	r2, r8
 800c196:	464b      	mov	r3, r9
 800c198:	4640      	mov	r0, r8
 800c19a:	4649      	mov	r1, r9
 800c19c:	f7f8 fa24 	bl	80045e8 <__aeabi_dmul>
 800c1a0:	4b4d      	ldr	r3, [pc, #308]	; (800c2d8 <__kernel_cos+0x168>)
 800c1a2:	2200      	movs	r2, #0
 800c1a4:	4604      	mov	r4, r0
 800c1a6:	460d      	mov	r5, r1
 800c1a8:	f7f8 fa1e 	bl	80045e8 <__aeabi_dmul>
 800c1ac:	a33e      	add	r3, pc, #248	; (adr r3, 800c2a8 <__kernel_cos+0x138>)
 800c1ae:	e9d3 2300 	ldrd	r2, r3, [r3]
 800c1b2:	4682      	mov	sl, r0
 800c1b4:	468b      	mov	fp, r1
 800c1b6:	4620      	mov	r0, r4
 800c1b8:	4629      	mov	r1, r5
 800c1ba:	f7f8 fa15 	bl	80045e8 <__aeabi_dmul>
 800c1be:	a33c      	add	r3, pc, #240	; (adr r3, 800c2b0 <__kernel_cos+0x140>)
 800c1c0:	e9d3 2300 	ldrd	r2, r3, [r3]
 800c1c4:	f7f8 f85a 	bl	800427c <__adddf3>
 800c1c8:	4622      	mov	r2, r4
 800c1ca:	462b      	mov	r3, r5
 800c1cc:	f7f8 fa0c 	bl	80045e8 <__aeabi_dmul>
 800c1d0:	a339      	add	r3, pc, #228	; (adr r3, 800c2b8 <__kernel_cos+0x148>)
 800c1d2:	e9d3 2300 	ldrd	r2, r3, [r3]
 800c1d6:	f7f8 f84f 	bl	8004278 <__aeabi_dsub>
 800c1da:	4622      	mov	r2, r4
 800c1dc:	462b      	mov	r3, r5
 800c1de:	f7f8 fa03 	bl	80045e8 <__aeabi_dmul>
 800c1e2:	a337      	add	r3, pc, #220	; (adr r3, 800c2c0 <__kernel_cos+0x150>)
 800c1e4:	e9d3 2300 	ldrd	r2, r3, [r3]
 800c1e8:	f7f8 f848 	bl	800427c <__adddf3>
 800c1ec:	4622      	mov	r2, r4
 800c1ee:	462b      	mov	r3, r5
 800c1f0:	f7f8 f9fa 	bl	80045e8 <__aeabi_dmul>
 800c1f4:	a334      	add	r3, pc, #208	; (adr r3, 800c2c8 <__kernel_cos+0x158>)
 800c1f6:	e9d3 2300 	ldrd	r2, r3, [r3]
 800c1fa:	f7f8 f83d 	bl	8004278 <__aeabi_dsub>
 800c1fe:	4622      	mov	r2, r4
 800c200:	462b      	mov	r3, r5
 800c202:	f7f8 f9f1 	bl	80045e8 <__aeabi_dmul>
 800c206:	a332      	add	r3, pc, #200	; (adr r3, 800c2d0 <__kernel_cos+0x160>)
 800c208:	e9d3 2300 	ldrd	r2, r3, [r3]
 800c20c:	f7f8 f836 	bl	800427c <__adddf3>
 800c210:	4622      	mov	r2, r4
 800c212:	462b      	mov	r3, r5
 800c214:	f7f8 f9e8 	bl	80045e8 <__aeabi_dmul>
 800c218:	4622      	mov	r2, r4
 800c21a:	462b      	mov	r3, r5
 800c21c:	f7f8 f9e4 	bl	80045e8 <__aeabi_dmul>
 800c220:	ec53 2b18 	vmov	r2, r3, d8
 800c224:	4604      	mov	r4, r0
 800c226:	460d      	mov	r5, r1
 800c228:	4640      	mov	r0, r8
 800c22a:	4649      	mov	r1, r9
 800c22c:	f7f8 f9dc 	bl	80045e8 <__aeabi_dmul>
 800c230:	460b      	mov	r3, r1
 800c232:	4602      	mov	r2, r0
 800c234:	4629      	mov	r1, r5
 800c236:	4620      	mov	r0, r4
 800c238:	f7f8 f81e 	bl	8004278 <__aeabi_dsub>
 800c23c:	4b27      	ldr	r3, [pc, #156]	; (800c2dc <__kernel_cos+0x16c>)
 800c23e:	429e      	cmp	r6, r3
 800c240:	4680      	mov	r8, r0
 800c242:	4689      	mov	r9, r1
 800c244:	dc0f      	bgt.n	800c266 <__kernel_cos+0xf6>
 800c246:	4602      	mov	r2, r0
 800c248:	460b      	mov	r3, r1
 800c24a:	4650      	mov	r0, sl
 800c24c:	4659      	mov	r1, fp
 800c24e:	f7f8 f813 	bl	8004278 <__aeabi_dsub>
 800c252:	460b      	mov	r3, r1
 800c254:	4922      	ldr	r1, [pc, #136]	; (800c2e0 <__kernel_cos+0x170>)
 800c256:	4602      	mov	r2, r0
 800c258:	2000      	movs	r0, #0
 800c25a:	f7f8 f80d 	bl	8004278 <__aeabi_dsub>
 800c25e:	ecbd 8b02 	vpop	{d8}
 800c262:	e8bd 8ff8 	ldmia.w	sp!, {r3, r4, r5, r6, r7, r8, r9, sl, fp, pc}
 800c266:	4b1f      	ldr	r3, [pc, #124]	; (800c2e4 <__kernel_cos+0x174>)
 800c268:	491d      	ldr	r1, [pc, #116]	; (800c2e0 <__kernel_cos+0x170>)
 800c26a:	429e      	cmp	r6, r3
 800c26c:	bfcc      	ite	gt
 800c26e:	4d1e      	ldrgt	r5, [pc, #120]	; (800c2e8 <__kernel_cos+0x178>)
 800c270:	f5a6 1500 	suble.w	r5, r6, #2097152	; 0x200000
 800c274:	2400      	movs	r4, #0
 800c276:	4622      	mov	r2, r4
 800c278:	462b      	mov	r3, r5
 800c27a:	2000      	movs	r0, #0
 800c27c:	f7f7 fffc 	bl	8004278 <__aeabi_dsub>
 800c280:	4622      	mov	r2, r4
 800c282:	4606      	mov	r6, r0
 800c284:	460f      	mov	r7, r1
 800c286:	462b      	mov	r3, r5
 800c288:	4650      	mov	r0, sl
 800c28a:	4659      	mov	r1, fp
 800c28c:	f7f7 fff4 	bl	8004278 <__aeabi_dsub>
 800c290:	4642      	mov	r2, r8
 800c292:	464b      	mov	r3, r9
 800c294:	f7f7 fff0 	bl	8004278 <__aeabi_dsub>
 800c298:	4602      	mov	r2, r0
 800c29a:	460b      	mov	r3, r1
 800c29c:	4630      	mov	r0, r6
 800c29e:	4639      	mov	r1, r7
 800c2a0:	e7db      	b.n	800c25a <__kernel_cos+0xea>
 800c2a2:	490f      	ldr	r1, [pc, #60]	; (800c2e0 <__kernel_cos+0x170>)
 800c2a4:	2000      	movs	r0, #0
 800c2a6:	e7da      	b.n	800c25e <__kernel_cos+0xee>
 800c2a8:	be8838d4 	.word	0xbe8838d4
 800c2ac:	bda8fae9 	.word	0xbda8fae9
 800c2b0:	bdb4b1c4 	.word	0xbdb4b1c4
 800c2b4:	3e21ee9e 	.word	0x3e21ee9e
 800c2b8:	809c52ad 	.word	0x809c52ad
 800c2bc:	3e927e4f 	.word	0x3e927e4f
 800c2c0:	19cb1590 	.word	0x19cb1590
 800c2c4:	3efa01a0 	.word	0x3efa01a0
 800c2c8:	16c15177 	.word	0x16c15177
 800c2cc:	3f56c16c 	.word	0x3f56c16c
 800c2d0:	5555554c 	.word	0x5555554c
 800c2d4:	3fa55555 	.word	0x3fa55555
 800c2d8:	3fe00000 	.word	0x3fe00000
 800c2dc:	3fd33332 	.word	0x3fd33332
 800c2e0:	3ff00000 	.word	0x3ff00000
 800c2e4:	3fe90000 	.word	0x3fe90000
 800c2e8:	3fd20000 	.word	0x3fd20000
 800c2ec:	00000000 	.word	0x00000000

0800c2f0 <__kernel_sin>:
 800c2f0:	e92d 4ff8 	stmdb	sp!, {r3, r4, r5, r6, r7, r8, r9, sl, fp, lr}
 800c2f4:	461f      	mov	r7, r3
 800c2f6:	f021 4300 	bic.w	r3, r1, #2147483648	; 0x80000000
 800c2fa:	f1b3 5f79 	cmp.w	r3, #1044381696	; 0x3e400000
 800c2fe:	ed2d 8b04 	vpush	{d8-d9}
 800c302:	4604      	mov	r4, r0
 800c304:	460d      	mov	r5, r1
 800c306:	4616      	mov	r6, r2
 800c308:	da03      	bge.n	800c312 <__kernel_sin+0x22>
 800c30a:	f7f8 fc07 	bl	8004b1c <__aeabi_d2iz>
 800c30e:	2800      	cmp	r0, #0
 800c310:	d051      	beq.n	800c3b6 <__kernel_sin+0xc6>
 800c312:	4622      	mov	r2, r4
 800c314:	462b      	mov	r3, r5
 800c316:	4620      	mov	r0, r4
 800c318:	4629      	mov	r1, r5
 800c31a:	f7f8 f965 	bl	80045e8 <__aeabi_dmul>
 800c31e:	4682      	mov	sl, r0
 800c320:	468b      	mov	fp, r1
 800c322:	4602      	mov	r2, r0
 800c324:	460b      	mov	r3, r1
 800c326:	4620      	mov	r0, r4
 800c328:	4629      	mov	r1, r5
 800c32a:	f7f8 f95d 	bl	80045e8 <__aeabi_dmul>
 800c32e:	a341      	add	r3, pc, #260	; (adr r3, 800c434 <__kernel_sin+0x144>)
 800c330:	e9d3 2300 	ldrd	r2, r3, [r3]
 800c334:	4680      	mov	r8, r0
 800c336:	4689      	mov	r9, r1
 800c338:	4650      	mov	r0, sl
 800c33a:	4659      	mov	r1, fp
 800c33c:	f7f8 f954 	bl	80045e8 <__aeabi_dmul>
 800c340:	a33e      	add	r3, pc, #248	; (adr r3, 800c43c <__kernel_sin+0x14c>)
 800c342:	e9d3 2300 	ldrd	r2, r3, [r3]
 800c346:	f7f7 ff97 	bl	8004278 <__aeabi_dsub>
 800c34a:	4652      	mov	r2, sl
 800c34c:	465b      	mov	r3, fp
 800c34e:	f7f8 f94b 	bl	80045e8 <__aeabi_dmul>
 800c352:	a33c      	add	r3, pc, #240	; (adr r3, 800c444 <__kernel_sin+0x154>)
 800c354:	e9d3 2300 	ldrd	r2, r3, [r3]
 800c358:	f7f7 ff90 	bl	800427c <__adddf3>
 800c35c:	4652      	mov	r2, sl
 800c35e:	465b      	mov	r3, fp
 800c360:	f7f8 f942 	bl	80045e8 <__aeabi_dmul>
 800c364:	a339      	add	r3, pc, #228	; (adr r3, 800c44c <__kernel_sin+0x15c>)
 800c366:	e9d3 2300 	ldrd	r2, r3, [r3]
 800c36a:	f7f7 ff85 	bl	8004278 <__aeabi_dsub>
 800c36e:	4652      	mov	r2, sl
 800c370:	465b      	mov	r3, fp
 800c372:	f7f8 f939 	bl	80045e8 <__aeabi_dmul>
 800c376:	a337      	add	r3, pc, #220	; (adr r3, 800c454 <__kernel_sin+0x164>)
 800c378:	e9d3 2300 	ldrd	r2, r3, [r3]
 800c37c:	f7f7 ff7e 	bl	800427c <__adddf3>
 800c380:	9b0e      	ldr	r3, [sp, #56]	; 0x38
 800c382:	ec41 0b18 	vmov	d8, r0, r1
 800c386:	b9e3      	cbnz	r3, 800c3c2 <__kernel_sin+0xd2>
 800c388:	4602      	mov	r2, r0
 800c38a:	460b      	mov	r3, r1
 800c38c:	4650      	mov	r0, sl
 800c38e:	4659      	mov	r1, fp
 800c390:	f7f8 f92a 	bl	80045e8 <__aeabi_dmul>
 800c394:	a324      	add	r3, pc, #144	; (adr r3, 800c428 <__kernel_sin+0x138>)
 800c396:	e9d3 2300 	ldrd	r2, r3, [r3]
 800c39a:	f7f7 ff6d 	bl	8004278 <__aeabi_dsub>
 800c39e:	4642      	mov	r2, r8
 800c3a0:	464b      	mov	r3, r9
 800c3a2:	f7f8 f921 	bl	80045e8 <__aeabi_dmul>
 800c3a6:	4602      	mov	r2, r0
 800c3a8:	460b      	mov	r3, r1
 800c3aa:	4620      	mov	r0, r4
 800c3ac:	4629      	mov	r1, r5
 800c3ae:	f7f7 ff65 	bl	800427c <__adddf3>
 800c3b2:	4604      	mov	r4, r0
 800c3b4:	460d      	mov	r5, r1
 800c3b6:	ecbd 8b04 	vpop	{d8-d9}
 800c3ba:	4620      	mov	r0, r4
 800c3bc:	4629      	mov	r1, r5
 800c3be:	e8bd 8ff8 	ldmia.w	sp!, {r3, r4, r5, r6, r7, r8, r9, sl, fp, pc}
 800c3c2:	4b1b      	ldr	r3, [pc, #108]	; (800c430 <__kernel_sin+0x140>)
 800c3c4:	2200      	movs	r2, #0
 800c3c6:	4630      	mov	r0, r6
 800c3c8:	4639      	mov	r1, r7
 800c3ca:	f7f8 f90d 	bl	80045e8 <__aeabi_dmul>
 800c3ce:	ec53 2b18 	vmov	r2, r3, d8
 800c3d2:	ec41 0b19 	vmov	d9, r0, r1
 800c3d6:	4640      	mov	r0, r8
 800c3d8:	4649      	mov	r1, r9
 800c3da:	f7f8 f905 	bl	80045e8 <__aeabi_dmul>
 800c3de:	4602      	mov	r2, r0
 800c3e0:	460b      	mov	r3, r1
 800c3e2:	ec51 0b19 	vmov	r0, r1, d9
 800c3e6:	f7f7 ff47 	bl	8004278 <__aeabi_dsub>
 800c3ea:	4652      	mov	r2, sl
 800c3ec:	465b      	mov	r3, fp
 800c3ee:	f7f8 f8fb 	bl	80045e8 <__aeabi_dmul>
 800c3f2:	4632      	mov	r2, r6
 800c3f4:	463b      	mov	r3, r7
 800c3f6:	f7f7 ff3f 	bl	8004278 <__aeabi_dsub>
 800c3fa:	a30b      	add	r3, pc, #44	; (adr r3, 800c428 <__kernel_sin+0x138>)
 800c3fc:	e9d3 2300 	ldrd	r2, r3, [r3]
 800c400:	4606      	mov	r6, r0
 800c402:	460f      	mov	r7, r1
 800c404:	4640      	mov	r0, r8
 800c406:	4649      	mov	r1, r9
 800c408:	f7f8 f8ee 	bl	80045e8 <__aeabi_dmul>
 800c40c:	4602      	mov	r2, r0
 800c40e:	460b      	mov	r3, r1
 800c410:	4630      	mov	r0, r6
 800c412:	4639      	mov	r1, r7
 800c414:	f7f7 ff32 	bl	800427c <__adddf3>
 800c418:	4602      	mov	r2, r0
 800c41a:	460b      	mov	r3, r1
 800c41c:	4620      	mov	r0, r4
 800c41e:	4629      	mov	r1, r5
 800c420:	f7f7 ff2a 	bl	8004278 <__aeabi_dsub>
 800c424:	e7c5      	b.n	800c3b2 <__kernel_sin+0xc2>
 800c426:	bf00      	nop
 800c428:	55555549 	.word	0x55555549
 800c42c:	3fc55555 	.word	0x3fc55555
 800c430:	3fe00000 	.word	0x3fe00000
 800c434:	5acfd57c 	.word	0x5acfd57c
 800c438:	3de5d93a 	.word	0x3de5d93a
 800c43c:	8a2b9ceb 	.word	0x8a2b9ceb
 800c440:	3e5ae5e6 	.word	0x3e5ae5e6
 800c444:	57b1fe7d 	.word	0x57b1fe7d
 800c448:	3ec71de3 	.word	0x3ec71de3
 800c44c:	19c161d5 	.word	0x19c161d5
 800c450:	3f2a01a0 	.word	0x3f2a01a0
 800c454:	1110f8a6 	.word	0x1110f8a6
 800c458:	3f811111 	.word	0x3f811111
 800c45c:	00000000 	.word	0x00000000

0800c460 <__ieee754_atan2>:
 800c460:	e92d 4ff8 	stmdb	sp!, {r3, r4, r5, r6, r7, r8, r9, sl, fp, lr}
 800c464:	4617      	mov	r7, r2
 800c466:	4690      	mov	r8, r2
 800c468:	4699      	mov	r9, r3
 800c46a:	f023 4200 	bic.w	r2, r3, #2147483648	; 0x80000000
 800c46e:	427b      	negs	r3, r7
 800c470:	f8df a184 	ldr.w	sl, [pc, #388]	; 800c5f8 <__ieee754_atan2+0x198>
 800c474:	433b      	orrs	r3, r7
 800c476:	ea42 73d3 	orr.w	r3, r2, r3, lsr #31
 800c47a:	4553      	cmp	r3, sl
 800c47c:	4604      	mov	r4, r0
 800c47e:	460d      	mov	r5, r1
 800c480:	d809      	bhi.n	800c496 <__ieee754_atan2+0x36>
 800c482:	4246      	negs	r6, r0
 800c484:	f021 4300 	bic.w	r3, r1, #2147483648	; 0x80000000
 800c488:	4306      	orrs	r6, r0
 800c48a:	ea43 76d6 	orr.w	r6, r3, r6, lsr #31
 800c48e:	4556      	cmp	r6, sl
 800c490:	468e      	mov	lr, r1
 800c492:	4683      	mov	fp, r0
 800c494:	d908      	bls.n	800c4a8 <__ieee754_atan2+0x48>
 800c496:	4642      	mov	r2, r8
 800c498:	464b      	mov	r3, r9
 800c49a:	4620      	mov	r0, r4
 800c49c:	4629      	mov	r1, r5
 800c49e:	f7f7 feed 	bl	800427c <__adddf3>
 800c4a2:	4604      	mov	r4, r0
 800c4a4:	460d      	mov	r5, r1
 800c4a6:	e019      	b.n	800c4dc <__ieee754_atan2+0x7c>
 800c4a8:	f109 4640 	add.w	r6, r9, #3221225472	; 0xc0000000
 800c4ac:	f506 1680 	add.w	r6, r6, #1048576	; 0x100000
 800c4b0:	433e      	orrs	r6, r7
 800c4b2:	d103      	bne.n	800c4bc <__ieee754_atan2+0x5c>
 800c4b4:	e8bd 4ff8 	ldmia.w	sp!, {r3, r4, r5, r6, r7, r8, r9, sl, fp, lr}
 800c4b8:	f000 ba9e 	b.w	800c9f8 <atan>
 800c4bc:	ea4f 76a9 	mov.w	r6, r9, asr #30
 800c4c0:	f006 0602 	and.w	r6, r6, #2
 800c4c4:	ea53 0b0b 	orrs.w	fp, r3, fp
 800c4c8:	ea46 76d1 	orr.w	r6, r6, r1, lsr #31
 800c4cc:	d10a      	bne.n	800c4e4 <__ieee754_atan2+0x84>
 800c4ce:	2e02      	cmp	r6, #2
 800c4d0:	d067      	beq.n	800c5a2 <__ieee754_atan2+0x142>
 800c4d2:	2e03      	cmp	r6, #3
 800c4d4:	d102      	bne.n	800c4dc <__ieee754_atan2+0x7c>
 800c4d6:	a544      	add	r5, pc, #272	; (adr r5, 800c5e8 <__ieee754_atan2+0x188>)
 800c4d8:	e9d5 4500 	ldrd	r4, r5, [r5]
 800c4dc:	4620      	mov	r0, r4
 800c4de:	4629      	mov	r1, r5
 800c4e0:	e8bd 8ff8 	ldmia.w	sp!, {r3, r4, r5, r6, r7, r8, r9, sl, fp, pc}
 800c4e4:	4317      	orrs	r7, r2
 800c4e6:	d106      	bne.n	800c4f6 <__ieee754_atan2+0x96>
 800c4e8:	f1be 0f00 	cmp.w	lr, #0
 800c4ec:	da64      	bge.n	800c5b8 <__ieee754_atan2+0x158>
 800c4ee:	a540      	add	r5, pc, #256	; (adr r5, 800c5f0 <__ieee754_atan2+0x190>)
 800c4f0:	e9d5 4500 	ldrd	r4, r5, [r5]
 800c4f4:	e7f2      	b.n	800c4dc <__ieee754_atan2+0x7c>
 800c4f6:	4552      	cmp	r2, sl
 800c4f8:	d10f      	bne.n	800c51a <__ieee754_atan2+0xba>
 800c4fa:	4293      	cmp	r3, r2
 800c4fc:	f106 36ff 	add.w	r6, r6, #4294967295
 800c500:	d107      	bne.n	800c512 <__ieee754_atan2+0xb2>
 800c502:	2e02      	cmp	r6, #2
 800c504:	d851      	bhi.n	800c5aa <__ieee754_atan2+0x14a>
 800c506:	4b36      	ldr	r3, [pc, #216]	; (800c5e0 <__ieee754_atan2+0x180>)
 800c508:	eb03 03c6 	add.w	r3, r3, r6, lsl #3
 800c50c:	e9d3 4500 	ldrd	r4, r5, [r3]
 800c510:	e7e4      	b.n	800c4dc <__ieee754_atan2+0x7c>
 800c512:	2e02      	cmp	r6, #2
 800c514:	d84d      	bhi.n	800c5b2 <__ieee754_atan2+0x152>
 800c516:	4b33      	ldr	r3, [pc, #204]	; (800c5e4 <__ieee754_atan2+0x184>)
 800c518:	e7f6      	b.n	800c508 <__ieee754_atan2+0xa8>
 800c51a:	4553      	cmp	r3, sl
 800c51c:	d0e4      	beq.n	800c4e8 <__ieee754_atan2+0x88>
 800c51e:	1a9b      	subs	r3, r3, r2
 800c520:	f1b3 7f74 	cmp.w	r3, #63963136	; 0x3d00000
 800c524:	ea4f 5223 	mov.w	r2, r3, asr #20
 800c528:	da21      	bge.n	800c56e <__ieee754_atan2+0x10e>
 800c52a:	f1b9 0f00 	cmp.w	r9, #0
 800c52e:	da01      	bge.n	800c534 <__ieee754_atan2+0xd4>
 800c530:	323c      	adds	r2, #60	; 0x3c
 800c532:	db20      	blt.n	800c576 <__ieee754_atan2+0x116>
 800c534:	4642      	mov	r2, r8
 800c536:	464b      	mov	r3, r9
 800c538:	4620      	mov	r0, r4
 800c53a:	4629      	mov	r1, r5
 800c53c:	f7f8 f97e 	bl	800483c <__aeabi_ddiv>
 800c540:	f000 fbea 	bl	800cd18 <fabs>
 800c544:	f000 fa58 	bl	800c9f8 <atan>
 800c548:	4604      	mov	r4, r0
 800c54a:	460d      	mov	r5, r1
 800c54c:	2e01      	cmp	r6, #1
 800c54e:	d015      	beq.n	800c57c <__ieee754_atan2+0x11c>
 800c550:	2e02      	cmp	r6, #2
 800c552:	d017      	beq.n	800c584 <__ieee754_atan2+0x124>
 800c554:	2e00      	cmp	r6, #0
 800c556:	d0c1      	beq.n	800c4dc <__ieee754_atan2+0x7c>
 800c558:	a319      	add	r3, pc, #100	; (adr r3, 800c5c0 <__ieee754_atan2+0x160>)
 800c55a:	e9d3 2300 	ldrd	r2, r3, [r3]
 800c55e:	4620      	mov	r0, r4
 800c560:	4629      	mov	r1, r5
 800c562:	f7f7 fe89 	bl	8004278 <__aeabi_dsub>
 800c566:	a318      	add	r3, pc, #96	; (adr r3, 800c5c8 <__ieee754_atan2+0x168>)
 800c568:	e9d3 2300 	ldrd	r2, r3, [r3]
 800c56c:	e016      	b.n	800c59c <__ieee754_atan2+0x13c>
 800c56e:	a518      	add	r5, pc, #96	; (adr r5, 800c5d0 <__ieee754_atan2+0x170>)
 800c570:	e9d5 4500 	ldrd	r4, r5, [r5]
 800c574:	e7ea      	b.n	800c54c <__ieee754_atan2+0xec>
 800c576:	2400      	movs	r4, #0
 800c578:	2500      	movs	r5, #0
 800c57a:	e7e7      	b.n	800c54c <__ieee754_atan2+0xec>
 800c57c:	f105 4300 	add.w	r3, r5, #2147483648	; 0x80000000
 800c580:	461d      	mov	r5, r3
 800c582:	e7ab      	b.n	800c4dc <__ieee754_atan2+0x7c>
 800c584:	a30e      	add	r3, pc, #56	; (adr r3, 800c5c0 <__ieee754_atan2+0x160>)
 800c586:	e9d3 2300 	ldrd	r2, r3, [r3]
 800c58a:	4620      	mov	r0, r4
 800c58c:	4629      	mov	r1, r5
 800c58e:	f7f7 fe73 	bl	8004278 <__aeabi_dsub>
 800c592:	4602      	mov	r2, r0
 800c594:	460b      	mov	r3, r1
 800c596:	a10c      	add	r1, pc, #48	; (adr r1, 800c5c8 <__ieee754_atan2+0x168>)
 800c598:	e9d1 0100 	ldrd	r0, r1, [r1]
 800c59c:	f7f7 fe6c 	bl	8004278 <__aeabi_dsub>
 800c5a0:	e77f      	b.n	800c4a2 <__ieee754_atan2+0x42>
 800c5a2:	a509      	add	r5, pc, #36	; (adr r5, 800c5c8 <__ieee754_atan2+0x168>)
 800c5a4:	e9d5 4500 	ldrd	r4, r5, [r5]
 800c5a8:	e798      	b.n	800c4dc <__ieee754_atan2+0x7c>
 800c5aa:	a50b      	add	r5, pc, #44	; (adr r5, 800c5d8 <__ieee754_atan2+0x178>)
 800c5ac:	e9d5 4500 	ldrd	r4, r5, [r5]
 800c5b0:	e794      	b.n	800c4dc <__ieee754_atan2+0x7c>
 800c5b2:	2400      	movs	r4, #0
 800c5b4:	2500      	movs	r5, #0
 800c5b6:	e791      	b.n	800c4dc <__ieee754_atan2+0x7c>
 800c5b8:	a505      	add	r5, pc, #20	; (adr r5, 800c5d0 <__ieee754_atan2+0x170>)
 800c5ba:	e9d5 4500 	ldrd	r4, r5, [r5]
 800c5be:	e78d      	b.n	800c4dc <__ieee754_atan2+0x7c>
 800c5c0:	33145c07 	.word	0x33145c07
 800c5c4:	3ca1a626 	.word	0x3ca1a626
 800c5c8:	54442d18 	.word	0x54442d18
 800c5cc:	400921fb 	.word	0x400921fb
 800c5d0:	54442d18 	.word	0x54442d18
 800c5d4:	3ff921fb 	.word	0x3ff921fb
 800c5d8:	54442d18 	.word	0x54442d18
 800c5dc:	3fe921fb 	.word	0x3fe921fb
 800c5e0:	0800e210 	.word	0x0800e210
 800c5e4:	0800e228 	.word	0x0800e228
 800c5e8:	54442d18 	.word	0x54442d18
 800c5ec:	c00921fb 	.word	0xc00921fb
 800c5f0:	54442d18 	.word	0x54442d18
 800c5f4:	bff921fb 	.word	0xbff921fb
 800c5f8:	7ff00000 	.word	0x7ff00000
 800c5fc:	00000000 	.word	0x00000000

0800c600 <__ieee754_rem_pio2>:
 800c600:	e92d 4ff0 	stmdb	sp!, {r4, r5, r6, r7, r8, r9, sl, fp, lr}
 800c604:	ed2d 8b02 	vpush	{d8}
 800c608:	4bc7      	ldr	r3, [pc, #796]	; (800c928 <__ieee754_rem_pio2+0x328>)
 800c60a:	b08b      	sub	sp, #44	; 0x2c
 800c60c:	f021 4800 	bic.w	r8, r1, #2147483648	; 0x80000000
 800c610:	4598      	cmp	r8, r3
 800c612:	4604      	mov	r4, r0
 800c614:	460d      	mov	r5, r1
 800c616:	4692      	mov	sl, r2
 800c618:	9102      	str	r1, [sp, #8]
 800c61a:	dc08      	bgt.n	800c62e <__ieee754_rem_pio2+0x2e>
 800c61c:	e9c2 4500 	strd	r4, r5, [r2]
 800c620:	2300      	movs	r3, #0
 800c622:	2200      	movs	r2, #0
 800c624:	e9ca 2302 	strd	r2, r3, [sl, #8]
 800c628:	f04f 0b00 	mov.w	fp, #0
 800c62c:	e025      	b.n	800c67a <__ieee754_rem_pio2+0x7a>
 800c62e:	4bbf      	ldr	r3, [pc, #764]	; (800c92c <__ieee754_rem_pio2+0x32c>)
 800c630:	4598      	cmp	r8, r3
 800c632:	dc75      	bgt.n	800c720 <__ieee754_rem_pio2+0x120>
 800c634:	9b02      	ldr	r3, [sp, #8]
 800c636:	4ebe      	ldr	r6, [pc, #760]	; (800c930 <__ieee754_rem_pio2+0x330>)
 800c638:	2b00      	cmp	r3, #0
 800c63a:	a3ad      	add	r3, pc, #692	; (adr r3, 800c8f0 <__ieee754_rem_pio2+0x2f0>)
 800c63c:	e9d3 2300 	ldrd	r2, r3, [r3]
 800c640:	dd39      	ble.n	800c6b6 <__ieee754_rem_pio2+0xb6>
 800c642:	f7f7 fe19 	bl	8004278 <__aeabi_dsub>
 800c646:	45b0      	cmp	r8, r6
 800c648:	4604      	mov	r4, r0
 800c64a:	460d      	mov	r5, r1
 800c64c:	d01b      	beq.n	800c686 <__ieee754_rem_pio2+0x86>
 800c64e:	a3aa      	add	r3, pc, #680	; (adr r3, 800c8f8 <__ieee754_rem_pio2+0x2f8>)
 800c650:	e9d3 2300 	ldrd	r2, r3, [r3]
 800c654:	f7f7 fe10 	bl	8004278 <__aeabi_dsub>
 800c658:	4602      	mov	r2, r0
 800c65a:	460b      	mov	r3, r1
 800c65c:	e9ca 2300 	strd	r2, r3, [sl]
 800c660:	4620      	mov	r0, r4
 800c662:	4629      	mov	r1, r5
 800c664:	f7f7 fe08 	bl	8004278 <__aeabi_dsub>
 800c668:	a3a3      	add	r3, pc, #652	; (adr r3, 800c8f8 <__ieee754_rem_pio2+0x2f8>)
 800c66a:	e9d3 2300 	ldrd	r2, r3, [r3]
 800c66e:	f7f7 fe03 	bl	8004278 <__aeabi_dsub>
 800c672:	e9ca 0102 	strd	r0, r1, [sl, #8]
 800c676:	f04f 0b01 	mov.w	fp, #1
 800c67a:	4658      	mov	r0, fp
 800c67c:	b00b      	add	sp, #44	; 0x2c
 800c67e:	ecbd 8b02 	vpop	{d8}
 800c682:	e8bd 8ff0 	ldmia.w	sp!, {r4, r5, r6, r7, r8, r9, sl, fp, pc}
 800c686:	a39e      	add	r3, pc, #632	; (adr r3, 800c900 <__ieee754_rem_pio2+0x300>)
 800c688:	e9d3 2300 	ldrd	r2, r3, [r3]
 800c68c:	f7f7 fdf4 	bl	8004278 <__aeabi_dsub>
 800c690:	a39d      	add	r3, pc, #628	; (adr r3, 800c908 <__ieee754_rem_pio2+0x308>)
 800c692:	e9d3 2300 	ldrd	r2, r3, [r3]
 800c696:	4604      	mov	r4, r0
 800c698:	460d      	mov	r5, r1
 800c69a:	f7f7 fded 	bl	8004278 <__aeabi_dsub>
 800c69e:	4602      	mov	r2, r0
 800c6a0:	460b      	mov	r3, r1
 800c6a2:	e9ca 2300 	strd	r2, r3, [sl]
 800c6a6:	4620      	mov	r0, r4
 800c6a8:	4629      	mov	r1, r5
 800c6aa:	f7f7 fde5 	bl	8004278 <__aeabi_dsub>
 800c6ae:	a396      	add	r3, pc, #600	; (adr r3, 800c908 <__ieee754_rem_pio2+0x308>)
 800c6b0:	e9d3 2300 	ldrd	r2, r3, [r3]
 800c6b4:	e7db      	b.n	800c66e <__ieee754_rem_pio2+0x6e>
 800c6b6:	f7f7 fde1 	bl	800427c <__adddf3>
 800c6ba:	45b0      	cmp	r8, r6
 800c6bc:	4604      	mov	r4, r0
 800c6be:	460d      	mov	r5, r1
 800c6c0:	d016      	beq.n	800c6f0 <__ieee754_rem_pio2+0xf0>
 800c6c2:	a38d      	add	r3, pc, #564	; (adr r3, 800c8f8 <__ieee754_rem_pio2+0x2f8>)
 800c6c4:	e9d3 2300 	ldrd	r2, r3, [r3]
 800c6c8:	f7f7 fdd8 	bl	800427c <__adddf3>
 800c6cc:	4602      	mov	r2, r0
 800c6ce:	460b      	mov	r3, r1
 800c6d0:	e9ca 2300 	strd	r2, r3, [sl]
 800c6d4:	4620      	mov	r0, r4
 800c6d6:	4629      	mov	r1, r5
 800c6d8:	f7f7 fdce 	bl	8004278 <__aeabi_dsub>
 800c6dc:	a386      	add	r3, pc, #536	; (adr r3, 800c8f8 <__ieee754_rem_pio2+0x2f8>)
 800c6de:	e9d3 2300 	ldrd	r2, r3, [r3]
 800c6e2:	f7f7 fdcb 	bl	800427c <__adddf3>
 800c6e6:	f04f 3bff 	mov.w	fp, #4294967295
 800c6ea:	e9ca 0102 	strd	r0, r1, [sl, #8]
 800c6ee:	e7c4      	b.n	800c67a <__ieee754_rem_pio2+0x7a>
 800c6f0:	a383      	add	r3, pc, #524	; (adr r3, 800c900 <__ieee754_rem_pio2+0x300>)
 800c6f2:	e9d3 2300 	ldrd	r2, r3, [r3]
 800c6f6:	f7f7 fdc1 	bl	800427c <__adddf3>
 800c6fa:	a383      	add	r3, pc, #524	; (adr r3, 800c908 <__ieee754_rem_pio2+0x308>)
 800c6fc:	e9d3 2300 	ldrd	r2, r3, [r3]
 800c700:	4604      	mov	r4, r0
 800c702:	460d      	mov	r5, r1
 800c704:	f7f7 fdba 	bl	800427c <__adddf3>
 800c708:	4602      	mov	r2, r0
 800c70a:	460b      	mov	r3, r1
 800c70c:	e9ca 2300 	strd	r2, r3, [sl]
 800c710:	4620      	mov	r0, r4
 800c712:	4629      	mov	r1, r5
 800c714:	f7f7 fdb0 	bl	8004278 <__aeabi_dsub>
 800c718:	a37b      	add	r3, pc, #492	; (adr r3, 800c908 <__ieee754_rem_pio2+0x308>)
 800c71a:	e9d3 2300 	ldrd	r2, r3, [r3]
 800c71e:	e7e0      	b.n	800c6e2 <__ieee754_rem_pio2+0xe2>
 800c720:	4b84      	ldr	r3, [pc, #528]	; (800c934 <__ieee754_rem_pio2+0x334>)
 800c722:	4598      	cmp	r8, r3
 800c724:	f300 80d5 	bgt.w	800c8d2 <__ieee754_rem_pio2+0x2d2>
 800c728:	f000 faf6 	bl	800cd18 <fabs>
 800c72c:	a378      	add	r3, pc, #480	; (adr r3, 800c910 <__ieee754_rem_pio2+0x310>)
 800c72e:	e9d3 2300 	ldrd	r2, r3, [r3]
 800c732:	4604      	mov	r4, r0
 800c734:	460d      	mov	r5, r1
 800c736:	f7f7 ff57 	bl	80045e8 <__aeabi_dmul>
 800c73a:	4b7f      	ldr	r3, [pc, #508]	; (800c938 <__ieee754_rem_pio2+0x338>)
 800c73c:	2200      	movs	r2, #0
 800c73e:	f7f7 fd9d 	bl	800427c <__adddf3>
 800c742:	f7f8 f9eb 	bl	8004b1c <__aeabi_d2iz>
 800c746:	4683      	mov	fp, r0
 800c748:	f7f7 fee4 	bl	8004514 <__aeabi_i2d>
 800c74c:	4602      	mov	r2, r0
 800c74e:	460b      	mov	r3, r1
 800c750:	ec43 2b18 	vmov	d8, r2, r3
 800c754:	a366      	add	r3, pc, #408	; (adr r3, 800c8f0 <__ieee754_rem_pio2+0x2f0>)
 800c756:	e9d3 2300 	ldrd	r2, r3, [r3]
 800c75a:	f7f7 ff45 	bl	80045e8 <__aeabi_dmul>
 800c75e:	4602      	mov	r2, r0
 800c760:	460b      	mov	r3, r1
 800c762:	4620      	mov	r0, r4
 800c764:	4629      	mov	r1, r5
 800c766:	f7f7 fd87 	bl	8004278 <__aeabi_dsub>
 800c76a:	a363      	add	r3, pc, #396	; (adr r3, 800c8f8 <__ieee754_rem_pio2+0x2f8>)
 800c76c:	e9d3 2300 	ldrd	r2, r3, [r3]
 800c770:	4606      	mov	r6, r0
 800c772:	460f      	mov	r7, r1
 800c774:	ec51 0b18 	vmov	r0, r1, d8
 800c778:	f7f7 ff36 	bl	80045e8 <__aeabi_dmul>
 800c77c:	f1bb 0f1f 	cmp.w	fp, #31
 800c780:	4604      	mov	r4, r0
 800c782:	460d      	mov	r5, r1
 800c784:	dc0d      	bgt.n	800c7a2 <__ieee754_rem_pio2+0x1a2>
 800c786:	4b6d      	ldr	r3, [pc, #436]	; (800c93c <__ieee754_rem_pio2+0x33c>)
 800c788:	f10b 32ff 	add.w	r2, fp, #4294967295
 800c78c:	f853 3022 	ldr.w	r3, [r3, r2, lsl #2]
 800c790:	4543      	cmp	r3, r8
 800c792:	d006      	beq.n	800c7a2 <__ieee754_rem_pio2+0x1a2>
 800c794:	4622      	mov	r2, r4
 800c796:	462b      	mov	r3, r5
 800c798:	4630      	mov	r0, r6
 800c79a:	4639      	mov	r1, r7
 800c79c:	f7f7 fd6c 	bl	8004278 <__aeabi_dsub>
 800c7a0:	e00e      	b.n	800c7c0 <__ieee754_rem_pio2+0x1c0>
 800c7a2:	462b      	mov	r3, r5
 800c7a4:	4622      	mov	r2, r4
 800c7a6:	4630      	mov	r0, r6
 800c7a8:	4639      	mov	r1, r7
 800c7aa:	f7f7 fd65 	bl	8004278 <__aeabi_dsub>
 800c7ae:	ea4f 5328 	mov.w	r3, r8, asr #20
 800c7b2:	9303      	str	r3, [sp, #12]
 800c7b4:	f3c1 530a 	ubfx	r3, r1, #20, #11
 800c7b8:	ebc3 5318 	rsb	r3, r3, r8, lsr #20
 800c7bc:	2b10      	cmp	r3, #16
 800c7be:	dc02      	bgt.n	800c7c6 <__ieee754_rem_pio2+0x1c6>
 800c7c0:	e9ca 0100 	strd	r0, r1, [sl]
 800c7c4:	e039      	b.n	800c83a <__ieee754_rem_pio2+0x23a>
 800c7c6:	a34e      	add	r3, pc, #312	; (adr r3, 800c900 <__ieee754_rem_pio2+0x300>)
 800c7c8:	e9d3 2300 	ldrd	r2, r3, [r3]
 800c7cc:	ec51 0b18 	vmov	r0, r1, d8
 800c7d0:	f7f7 ff0a 	bl	80045e8 <__aeabi_dmul>
 800c7d4:	4604      	mov	r4, r0
 800c7d6:	460d      	mov	r5, r1
 800c7d8:	4602      	mov	r2, r0
 800c7da:	460b      	mov	r3, r1
 800c7dc:	4630      	mov	r0, r6
 800c7de:	4639      	mov	r1, r7
 800c7e0:	f7f7 fd4a 	bl	8004278 <__aeabi_dsub>
 800c7e4:	4602      	mov	r2, r0
 800c7e6:	460b      	mov	r3, r1
 800c7e8:	4680      	mov	r8, r0
 800c7ea:	4689      	mov	r9, r1
 800c7ec:	4630      	mov	r0, r6
 800c7ee:	4639      	mov	r1, r7
 800c7f0:	f7f7 fd42 	bl	8004278 <__aeabi_dsub>
 800c7f4:	4622      	mov	r2, r4
 800c7f6:	462b      	mov	r3, r5
 800c7f8:	f7f7 fd3e 	bl	8004278 <__aeabi_dsub>
 800c7fc:	a342      	add	r3, pc, #264	; (adr r3, 800c908 <__ieee754_rem_pio2+0x308>)
 800c7fe:	e9d3 2300 	ldrd	r2, r3, [r3]
 800c802:	4604      	mov	r4, r0
 800c804:	460d      	mov	r5, r1
 800c806:	ec51 0b18 	vmov	r0, r1, d8
 800c80a:	f7f7 feed 	bl	80045e8 <__aeabi_dmul>
 800c80e:	4622      	mov	r2, r4
 800c810:	462b      	mov	r3, r5
 800c812:	f7f7 fd31 	bl	8004278 <__aeabi_dsub>
 800c816:	4602      	mov	r2, r0
 800c818:	460b      	mov	r3, r1
 800c81a:	4604      	mov	r4, r0
 800c81c:	460d      	mov	r5, r1
 800c81e:	4640      	mov	r0, r8
 800c820:	4649      	mov	r1, r9
 800c822:	f7f7 fd29 	bl	8004278 <__aeabi_dsub>
 800c826:	9a03      	ldr	r2, [sp, #12]
 800c828:	f3c1 530a 	ubfx	r3, r1, #20, #11
 800c82c:	1ad3      	subs	r3, r2, r3
 800c82e:	2b31      	cmp	r3, #49	; 0x31
 800c830:	dc24      	bgt.n	800c87c <__ieee754_rem_pio2+0x27c>
 800c832:	e9ca 0100 	strd	r0, r1, [sl]
 800c836:	4646      	mov	r6, r8
 800c838:	464f      	mov	r7, r9
 800c83a:	e9da 8900 	ldrd	r8, r9, [sl]
 800c83e:	4630      	mov	r0, r6
 800c840:	4642      	mov	r2, r8
 800c842:	464b      	mov	r3, r9
 800c844:	4639      	mov	r1, r7
 800c846:	f7f7 fd17 	bl	8004278 <__aeabi_dsub>
 800c84a:	462b      	mov	r3, r5
 800c84c:	4622      	mov	r2, r4
 800c84e:	f7f7 fd13 	bl	8004278 <__aeabi_dsub>
 800c852:	9b02      	ldr	r3, [sp, #8]
 800c854:	2b00      	cmp	r3, #0
 800c856:	e9ca 0102 	strd	r0, r1, [sl, #8]
 800c85a:	f6bf af0e 	bge.w	800c67a <__ieee754_rem_pio2+0x7a>
 800c85e:	f109 4300 	add.w	r3, r9, #2147483648	; 0x80000000
 800c862:	f8ca 3004 	str.w	r3, [sl, #4]
 800c866:	f101 4300 	add.w	r3, r1, #2147483648	; 0x80000000
 800c86a:	f8ca 8000 	str.w	r8, [sl]
 800c86e:	f8ca 0008 	str.w	r0, [sl, #8]
 800c872:	f8ca 300c 	str.w	r3, [sl, #12]
 800c876:	f1cb 0b00 	rsb	fp, fp, #0
 800c87a:	e6fe      	b.n	800c67a <__ieee754_rem_pio2+0x7a>
 800c87c:	a326      	add	r3, pc, #152	; (adr r3, 800c918 <__ieee754_rem_pio2+0x318>)
 800c87e:	e9d3 2300 	ldrd	r2, r3, [r3]
 800c882:	ec51 0b18 	vmov	r0, r1, d8
 800c886:	f7f7 feaf 	bl	80045e8 <__aeabi_dmul>
 800c88a:	4604      	mov	r4, r0
 800c88c:	460d      	mov	r5, r1
 800c88e:	4602      	mov	r2, r0
 800c890:	460b      	mov	r3, r1
 800c892:	4640      	mov	r0, r8
 800c894:	4649      	mov	r1, r9
 800c896:	f7f7 fcef 	bl	8004278 <__aeabi_dsub>
 800c89a:	4602      	mov	r2, r0
 800c89c:	460b      	mov	r3, r1
 800c89e:	4606      	mov	r6, r0
 800c8a0:	460f      	mov	r7, r1
 800c8a2:	4640      	mov	r0, r8
 800c8a4:	4649      	mov	r1, r9
 800c8a6:	f7f7 fce7 	bl	8004278 <__aeabi_dsub>
 800c8aa:	4622      	mov	r2, r4
 800c8ac:	462b      	mov	r3, r5
 800c8ae:	f7f7 fce3 	bl	8004278 <__aeabi_dsub>
 800c8b2:	a31b      	add	r3, pc, #108	; (adr r3, 800c920 <__ieee754_rem_pio2+0x320>)
 800c8b4:	e9d3 2300 	ldrd	r2, r3, [r3]
 800c8b8:	4604      	mov	r4, r0
 800c8ba:	460d      	mov	r5, r1
 800c8bc:	ec51 0b18 	vmov	r0, r1, d8
 800c8c0:	f7f7 fe92 	bl	80045e8 <__aeabi_dmul>
 800c8c4:	4622      	mov	r2, r4
 800c8c6:	462b      	mov	r3, r5
 800c8c8:	f7f7 fcd6 	bl	8004278 <__aeabi_dsub>
 800c8cc:	4604      	mov	r4, r0
 800c8ce:	460d      	mov	r5, r1
 800c8d0:	e760      	b.n	800c794 <__ieee754_rem_pio2+0x194>
 800c8d2:	4b1b      	ldr	r3, [pc, #108]	; (800c940 <__ieee754_rem_pio2+0x340>)
 800c8d4:	4598      	cmp	r8, r3
 800c8d6:	dd35      	ble.n	800c944 <__ieee754_rem_pio2+0x344>
 800c8d8:	4602      	mov	r2, r0
 800c8da:	460b      	mov	r3, r1
 800c8dc:	f7f7 fccc 	bl	8004278 <__aeabi_dsub>
 800c8e0:	e9ca 0102 	strd	r0, r1, [sl, #8]
 800c8e4:	e9ca 0100 	strd	r0, r1, [sl]
 800c8e8:	e69e      	b.n	800c628 <__ieee754_rem_pio2+0x28>
 800c8ea:	bf00      	nop
 800c8ec:	f3af 8000 	nop.w
 800c8f0:	54400000 	.word	0x54400000
 800c8f4:	3ff921fb 	.word	0x3ff921fb
 800c8f8:	1a626331 	.word	0x1a626331
 800c8fc:	3dd0b461 	.word	0x3dd0b461
 800c900:	1a600000 	.word	0x1a600000
 800c904:	3dd0b461 	.word	0x3dd0b461
 800c908:	2e037073 	.word	0x2e037073
 800c90c:	3ba3198a 	.word	0x3ba3198a
 800c910:	6dc9c883 	.word	0x6dc9c883
 800c914:	3fe45f30 	.word	0x3fe45f30
 800c918:	2e000000 	.word	0x2e000000
 800c91c:	3ba3198a 	.word	0x3ba3198a
 800c920:	252049c1 	.word	0x252049c1
 800c924:	397b839a 	.word	0x397b839a
 800c928:	3fe921fb 	.word	0x3fe921fb
 800c92c:	4002d97b 	.word	0x4002d97b
 800c930:	3ff921fb 	.word	0x3ff921fb
 800c934:	413921fb 	.word	0x413921fb
 800c938:	3fe00000 	.word	0x3fe00000
 800c93c:	0800e240 	.word	0x0800e240
 800c940:	7fefffff 	.word	0x7fefffff
 800c944:	ea4f 5628 	mov.w	r6, r8, asr #20
 800c948:	f2a6 4616 	subw	r6, r6, #1046	; 0x416
 800c94c:	eba8 5106 	sub.w	r1, r8, r6, lsl #20
 800c950:	460d      	mov	r5, r1
 800c952:	f7f8 f8e3 	bl	8004b1c <__aeabi_d2iz>
 800c956:	f7f7 fddd 	bl	8004514 <__aeabi_i2d>
 800c95a:	4602      	mov	r2, r0
 800c95c:	460b      	mov	r3, r1
 800c95e:	4620      	mov	r0, r4
 800c960:	4629      	mov	r1, r5
 800c962:	e9cd 2304 	strd	r2, r3, [sp, #16]
 800c966:	f7f7 fc87 	bl	8004278 <__aeabi_dsub>
 800c96a:	4b21      	ldr	r3, [pc, #132]	; (800c9f0 <__ieee754_rem_pio2+0x3f0>)
 800c96c:	2200      	movs	r2, #0
 800c96e:	f7f7 fe3b 	bl	80045e8 <__aeabi_dmul>
 800c972:	460d      	mov	r5, r1
 800c974:	4604      	mov	r4, r0
 800c976:	f7f8 f8d1 	bl	8004b1c <__aeabi_d2iz>
 800c97a:	f7f7 fdcb 	bl	8004514 <__aeabi_i2d>
 800c97e:	4602      	mov	r2, r0
 800c980:	460b      	mov	r3, r1
 800c982:	4620      	mov	r0, r4
 800c984:	4629      	mov	r1, r5
 800c986:	e9cd 2306 	strd	r2, r3, [sp, #24]
 800c98a:	f7f7 fc75 	bl	8004278 <__aeabi_dsub>
 800c98e:	4b18      	ldr	r3, [pc, #96]	; (800c9f0 <__ieee754_rem_pio2+0x3f0>)
 800c990:	2200      	movs	r2, #0
 800c992:	f7f7 fe29 	bl	80045e8 <__aeabi_dmul>
 800c996:	e9cd 0108 	strd	r0, r1, [sp, #32]
 800c99a:	f10d 0828 	add.w	r8, sp, #40	; 0x28
 800c99e:	2703      	movs	r7, #3
 800c9a0:	2400      	movs	r4, #0
 800c9a2:	2500      	movs	r5, #0
 800c9a4:	e978 0102 	ldrd	r0, r1, [r8, #-8]!
 800c9a8:	4622      	mov	r2, r4
 800c9aa:	462b      	mov	r3, r5
 800c9ac:	46b9      	mov	r9, r7
 800c9ae:	3f01      	subs	r7, #1
 800c9b0:	f7f8 f882 	bl	8004ab8 <__aeabi_dcmpeq>
 800c9b4:	2800      	cmp	r0, #0
 800c9b6:	d1f5      	bne.n	800c9a4 <__ieee754_rem_pio2+0x3a4>
 800c9b8:	4b0e      	ldr	r3, [pc, #56]	; (800c9f4 <__ieee754_rem_pio2+0x3f4>)
 800c9ba:	9301      	str	r3, [sp, #4]
 800c9bc:	2302      	movs	r3, #2
 800c9be:	9300      	str	r3, [sp, #0]
 800c9c0:	4632      	mov	r2, r6
 800c9c2:	464b      	mov	r3, r9
 800c9c4:	4651      	mov	r1, sl
 800c9c6:	a804      	add	r0, sp, #16
 800c9c8:	f000 f9aa 	bl	800cd20 <__kernel_rem_pio2>
 800c9cc:	9b02      	ldr	r3, [sp, #8]
 800c9ce:	2b00      	cmp	r3, #0
 800c9d0:	4683      	mov	fp, r0
 800c9d2:	f6bf ae52 	bge.w	800c67a <__ieee754_rem_pio2+0x7a>
 800c9d6:	e9da 2100 	ldrd	r2, r1, [sl]
 800c9da:	f101 4300 	add.w	r3, r1, #2147483648	; 0x80000000
 800c9de:	e9ca 2300 	strd	r2, r3, [sl]
 800c9e2:	e9da 2102 	ldrd	r2, r1, [sl, #8]
 800c9e6:	f101 4300 	add.w	r3, r1, #2147483648	; 0x80000000
 800c9ea:	e9ca 2302 	strd	r2, r3, [sl, #8]
 800c9ee:	e742      	b.n	800c876 <__ieee754_rem_pio2+0x276>
 800c9f0:	41700000 	.word	0x41700000
 800c9f4:	0800e2c0 	.word	0x0800e2c0

0800c9f8 <atan>:
 800c9f8:	e92d 4ff8 	stmdb	sp!, {r3, r4, r5, r6, r7, r8, r9, sl, fp, lr}
 800c9fc:	4bbc      	ldr	r3, [pc, #752]	; (800ccf0 <atan+0x2f8>)
 800c9fe:	f021 4600 	bic.w	r6, r1, #2147483648	; 0x80000000
 800ca02:	429e      	cmp	r6, r3
 800ca04:	4604      	mov	r4, r0
 800ca06:	460d      	mov	r5, r1
 800ca08:	468b      	mov	fp, r1
 800ca0a:	dd18      	ble.n	800ca3e <atan+0x46>
 800ca0c:	4bb9      	ldr	r3, [pc, #740]	; (800ccf4 <atan+0x2fc>)
 800ca0e:	429e      	cmp	r6, r3
 800ca10:	dc01      	bgt.n	800ca16 <atan+0x1e>
 800ca12:	d109      	bne.n	800ca28 <atan+0x30>
 800ca14:	b140      	cbz	r0, 800ca28 <atan+0x30>
 800ca16:	4622      	mov	r2, r4
 800ca18:	462b      	mov	r3, r5
 800ca1a:	4620      	mov	r0, r4
 800ca1c:	4629      	mov	r1, r5
 800ca1e:	f7f7 fc2d 	bl	800427c <__adddf3>
 800ca22:	4604      	mov	r4, r0
 800ca24:	460d      	mov	r5, r1
 800ca26:	e006      	b.n	800ca36 <atan+0x3e>
 800ca28:	f1bb 0f00 	cmp.w	fp, #0
 800ca2c:	f300 8123 	bgt.w	800cc76 <atan+0x27e>
 800ca30:	a593      	add	r5, pc, #588	; (adr r5, 800cc80 <atan+0x288>)
 800ca32:	e9d5 4500 	ldrd	r4, r5, [r5]
 800ca36:	4620      	mov	r0, r4
 800ca38:	4629      	mov	r1, r5
 800ca3a:	e8bd 8ff8 	ldmia.w	sp!, {r3, r4, r5, r6, r7, r8, r9, sl, fp, pc}
 800ca3e:	4bae      	ldr	r3, [pc, #696]	; (800ccf8 <atan+0x300>)
 800ca40:	429e      	cmp	r6, r3
 800ca42:	dc11      	bgt.n	800ca68 <atan+0x70>
 800ca44:	f1a3 73de 	sub.w	r3, r3, #29097984	; 0x1bc0000
 800ca48:	429e      	cmp	r6, r3
 800ca4a:	dc0a      	bgt.n	800ca62 <atan+0x6a>
 800ca4c:	a38e      	add	r3, pc, #568	; (adr r3, 800cc88 <atan+0x290>)
 800ca4e:	e9d3 2300 	ldrd	r2, r3, [r3]
 800ca52:	f7f7 fc13 	bl	800427c <__adddf3>
 800ca56:	4ba9      	ldr	r3, [pc, #676]	; (800ccfc <atan+0x304>)
 800ca58:	2200      	movs	r2, #0
 800ca5a:	f7f8 f855 	bl	8004b08 <__aeabi_dcmpgt>
 800ca5e:	2800      	cmp	r0, #0
 800ca60:	d1e9      	bne.n	800ca36 <atan+0x3e>
 800ca62:	f04f 3aff 	mov.w	sl, #4294967295
 800ca66:	e027      	b.n	800cab8 <atan+0xc0>
 800ca68:	f000 f956 	bl	800cd18 <fabs>
 800ca6c:	4ba4      	ldr	r3, [pc, #656]	; (800cd00 <atan+0x308>)
 800ca6e:	429e      	cmp	r6, r3
 800ca70:	4604      	mov	r4, r0
 800ca72:	460d      	mov	r5, r1
 800ca74:	f300 80b8 	bgt.w	800cbe8 <atan+0x1f0>
 800ca78:	f5a3 2350 	sub.w	r3, r3, #851968	; 0xd0000
 800ca7c:	429e      	cmp	r6, r3
 800ca7e:	f300 809c 	bgt.w	800cbba <atan+0x1c2>
 800ca82:	4602      	mov	r2, r0
 800ca84:	460b      	mov	r3, r1
 800ca86:	f7f7 fbf9 	bl	800427c <__adddf3>
 800ca8a:	4b9c      	ldr	r3, [pc, #624]	; (800ccfc <atan+0x304>)
 800ca8c:	2200      	movs	r2, #0
 800ca8e:	f7f7 fbf3 	bl	8004278 <__aeabi_dsub>
 800ca92:	2200      	movs	r2, #0
 800ca94:	4606      	mov	r6, r0
 800ca96:	460f      	mov	r7, r1
 800ca98:	f04f 4380 	mov.w	r3, #1073741824	; 0x40000000
 800ca9c:	4620      	mov	r0, r4
 800ca9e:	4629      	mov	r1, r5
 800caa0:	f7f7 fbec 	bl	800427c <__adddf3>
 800caa4:	4602      	mov	r2, r0
 800caa6:	460b      	mov	r3, r1
 800caa8:	4630      	mov	r0, r6
 800caaa:	4639      	mov	r1, r7
 800caac:	f7f7 fec6 	bl	800483c <__aeabi_ddiv>
 800cab0:	f04f 0a00 	mov.w	sl, #0
 800cab4:	4604      	mov	r4, r0
 800cab6:	460d      	mov	r5, r1
 800cab8:	4622      	mov	r2, r4
 800caba:	462b      	mov	r3, r5
 800cabc:	4620      	mov	r0, r4
 800cabe:	4629      	mov	r1, r5
 800cac0:	f7f7 fd92 	bl	80045e8 <__aeabi_dmul>
 800cac4:	4602      	mov	r2, r0
 800cac6:	460b      	mov	r3, r1
 800cac8:	4680      	mov	r8, r0
 800caca:	4689      	mov	r9, r1
 800cacc:	f7f7 fd8c 	bl	80045e8 <__aeabi_dmul>
 800cad0:	a36f      	add	r3, pc, #444	; (adr r3, 800cc90 <atan+0x298>)
 800cad2:	e9d3 2300 	ldrd	r2, r3, [r3]
 800cad6:	4606      	mov	r6, r0
 800cad8:	460f      	mov	r7, r1
 800cada:	f7f7 fd85 	bl	80045e8 <__aeabi_dmul>
 800cade:	a36e      	add	r3, pc, #440	; (adr r3, 800cc98 <atan+0x2a0>)
 800cae0:	e9d3 2300 	ldrd	r2, r3, [r3]
 800cae4:	f7f7 fbca 	bl	800427c <__adddf3>
 800cae8:	4632      	mov	r2, r6
 800caea:	463b      	mov	r3, r7
 800caec:	f7f7 fd7c 	bl	80045e8 <__aeabi_dmul>
 800caf0:	a36b      	add	r3, pc, #428	; (adr r3, 800cca0 <atan+0x2a8>)
 800caf2:	e9d3 2300 	ldrd	r2, r3, [r3]
 800caf6:	f7f7 fbc1 	bl	800427c <__adddf3>
 800cafa:	4632      	mov	r2, r6
 800cafc:	463b      	mov	r3, r7
 800cafe:	f7f7 fd73 	bl	80045e8 <__aeabi_dmul>
 800cb02:	a369      	add	r3, pc, #420	; (adr r3, 800cca8 <atan+0x2b0>)
 800cb04:	e9d3 2300 	ldrd	r2, r3, [r3]
 800cb08:	f7f7 fbb8 	bl	800427c <__adddf3>
 800cb0c:	4632      	mov	r2, r6
 800cb0e:	463b      	mov	r3, r7
 800cb10:	f7f7 fd6a 	bl	80045e8 <__aeabi_dmul>
 800cb14:	a366      	add	r3, pc, #408	; (adr r3, 800ccb0 <atan+0x2b8>)
 800cb16:	e9d3 2300 	ldrd	r2, r3, [r3]
 800cb1a:	f7f7 fbaf 	bl	800427c <__adddf3>
 800cb1e:	4632      	mov	r2, r6
 800cb20:	463b      	mov	r3, r7
 800cb22:	f7f7 fd61 	bl	80045e8 <__aeabi_dmul>
 800cb26:	a364      	add	r3, pc, #400	; (adr r3, 800ccb8 <atan+0x2c0>)
 800cb28:	e9d3 2300 	ldrd	r2, r3, [r3]
 800cb2c:	f7f7 fba6 	bl	800427c <__adddf3>
 800cb30:	4642      	mov	r2, r8
 800cb32:	464b      	mov	r3, r9
 800cb34:	f7f7 fd58 	bl	80045e8 <__aeabi_dmul>
 800cb38:	a361      	add	r3, pc, #388	; (adr r3, 800ccc0 <atan+0x2c8>)
 800cb3a:	e9d3 2300 	ldrd	r2, r3, [r3]
 800cb3e:	4680      	mov	r8, r0
 800cb40:	4689      	mov	r9, r1
 800cb42:	4630      	mov	r0, r6
 800cb44:	4639      	mov	r1, r7
 800cb46:	f7f7 fd4f 	bl	80045e8 <__aeabi_dmul>
 800cb4a:	a35f      	add	r3, pc, #380	; (adr r3, 800ccc8 <atan+0x2d0>)
 800cb4c:	e9d3 2300 	ldrd	r2, r3, [r3]
 800cb50:	f7f7 fb92 	bl	8004278 <__aeabi_dsub>
 800cb54:	4632      	mov	r2, r6
 800cb56:	463b      	mov	r3, r7
 800cb58:	f7f7 fd46 	bl	80045e8 <__aeabi_dmul>
 800cb5c:	a35c      	add	r3, pc, #368	; (adr r3, 800ccd0 <atan+0x2d8>)
 800cb5e:	e9d3 2300 	ldrd	r2, r3, [r3]
 800cb62:	f7f7 fb89 	bl	8004278 <__aeabi_dsub>
 800cb66:	4632      	mov	r2, r6
 800cb68:	463b      	mov	r3, r7
 800cb6a:	f7f7 fd3d 	bl	80045e8 <__aeabi_dmul>
 800cb6e:	a35a      	add	r3, pc, #360	; (adr r3, 800ccd8 <atan+0x2e0>)
 800cb70:	e9d3 2300 	ldrd	r2, r3, [r3]
 800cb74:	f7f7 fb80 	bl	8004278 <__aeabi_dsub>
 800cb78:	4632      	mov	r2, r6
 800cb7a:	463b      	mov	r3, r7
 800cb7c:	f7f7 fd34 	bl	80045e8 <__aeabi_dmul>
 800cb80:	a357      	add	r3, pc, #348	; (adr r3, 800cce0 <atan+0x2e8>)
 800cb82:	e9d3 2300 	ldrd	r2, r3, [r3]
 800cb86:	f7f7 fb77 	bl	8004278 <__aeabi_dsub>
 800cb8a:	4632      	mov	r2, r6
 800cb8c:	463b      	mov	r3, r7
 800cb8e:	f7f7 fd2b 	bl	80045e8 <__aeabi_dmul>
 800cb92:	4602      	mov	r2, r0
 800cb94:	460b      	mov	r3, r1
 800cb96:	4640      	mov	r0, r8
 800cb98:	4649      	mov	r1, r9
 800cb9a:	f7f7 fb6f 	bl	800427c <__adddf3>
 800cb9e:	4622      	mov	r2, r4
 800cba0:	462b      	mov	r3, r5
 800cba2:	f7f7 fd21 	bl	80045e8 <__aeabi_dmul>
 800cba6:	f1ba 3fff 	cmp.w	sl, #4294967295
 800cbaa:	4602      	mov	r2, r0
 800cbac:	460b      	mov	r3, r1
 800cbae:	d144      	bne.n	800cc3a <atan+0x242>
 800cbb0:	4620      	mov	r0, r4
 800cbb2:	4629      	mov	r1, r5
 800cbb4:	f7f7 fb60 	bl	8004278 <__aeabi_dsub>
 800cbb8:	e733      	b.n	800ca22 <atan+0x2a>
 800cbba:	4b50      	ldr	r3, [pc, #320]	; (800ccfc <atan+0x304>)
 800cbbc:	2200      	movs	r2, #0
 800cbbe:	f7f7 fb5b 	bl	8004278 <__aeabi_dsub>
 800cbc2:	4b4e      	ldr	r3, [pc, #312]	; (800ccfc <atan+0x304>)
 800cbc4:	4606      	mov	r6, r0
 800cbc6:	460f      	mov	r7, r1
 800cbc8:	2200      	movs	r2, #0
 800cbca:	4620      	mov	r0, r4
 800cbcc:	4629      	mov	r1, r5
 800cbce:	f7f7 fb55 	bl	800427c <__adddf3>
 800cbd2:	4602      	mov	r2, r0
 800cbd4:	460b      	mov	r3, r1
 800cbd6:	4630      	mov	r0, r6
 800cbd8:	4639      	mov	r1, r7
 800cbda:	f7f7 fe2f 	bl	800483c <__aeabi_ddiv>
 800cbde:	f04f 0a01 	mov.w	sl, #1
 800cbe2:	4604      	mov	r4, r0
 800cbe4:	460d      	mov	r5, r1
 800cbe6:	e767      	b.n	800cab8 <atan+0xc0>
 800cbe8:	4b46      	ldr	r3, [pc, #280]	; (800cd04 <atan+0x30c>)
 800cbea:	429e      	cmp	r6, r3
 800cbec:	da1a      	bge.n	800cc24 <atan+0x22c>
 800cbee:	4b46      	ldr	r3, [pc, #280]	; (800cd08 <atan+0x310>)
 800cbf0:	2200      	movs	r2, #0
 800cbf2:	f7f7 fb41 	bl	8004278 <__aeabi_dsub>
 800cbf6:	4b44      	ldr	r3, [pc, #272]	; (800cd08 <atan+0x310>)
 800cbf8:	4606      	mov	r6, r0
 800cbfa:	460f      	mov	r7, r1
 800cbfc:	2200      	movs	r2, #0
 800cbfe:	4620      	mov	r0, r4
 800cc00:	4629      	mov	r1, r5
 800cc02:	f7f7 fcf1 	bl	80045e8 <__aeabi_dmul>
 800cc06:	4b3d      	ldr	r3, [pc, #244]	; (800ccfc <atan+0x304>)
 800cc08:	2200      	movs	r2, #0
 800cc0a:	f7f7 fb37 	bl	800427c <__adddf3>
 800cc0e:	4602      	mov	r2, r0
 800cc10:	460b      	mov	r3, r1
 800cc12:	4630      	mov	r0, r6
 800cc14:	4639      	mov	r1, r7
 800cc16:	f7f7 fe11 	bl	800483c <__aeabi_ddiv>
 800cc1a:	f04f 0a02 	mov.w	sl, #2
 800cc1e:	4604      	mov	r4, r0
 800cc20:	460d      	mov	r5, r1
 800cc22:	e749      	b.n	800cab8 <atan+0xc0>
 800cc24:	4602      	mov	r2, r0
 800cc26:	460b      	mov	r3, r1
 800cc28:	2000      	movs	r0, #0
 800cc2a:	4938      	ldr	r1, [pc, #224]	; (800cd0c <atan+0x314>)
 800cc2c:	f7f7 fe06 	bl	800483c <__aeabi_ddiv>
 800cc30:	f04f 0a03 	mov.w	sl, #3
 800cc34:	4604      	mov	r4, r0
 800cc36:	460d      	mov	r5, r1
 800cc38:	e73e      	b.n	800cab8 <atan+0xc0>
 800cc3a:	4b35      	ldr	r3, [pc, #212]	; (800cd10 <atan+0x318>)
 800cc3c:	4e35      	ldr	r6, [pc, #212]	; (800cd14 <atan+0x31c>)
 800cc3e:	eb03 03ca 	add.w	r3, r3, sl, lsl #3
 800cc42:	e9d3 2300 	ldrd	r2, r3, [r3]
 800cc46:	f7f7 fb17 	bl	8004278 <__aeabi_dsub>
 800cc4a:	4622      	mov	r2, r4
 800cc4c:	462b      	mov	r3, r5
 800cc4e:	f7f7 fb13 	bl	8004278 <__aeabi_dsub>
 800cc52:	eb06 06ca 	add.w	r6, r6, sl, lsl #3
 800cc56:	4602      	mov	r2, r0
 800cc58:	460b      	mov	r3, r1
 800cc5a:	e9d6 0100 	ldrd	r0, r1, [r6]
 800cc5e:	f7f7 fb0b 	bl	8004278 <__aeabi_dsub>
 800cc62:	f1bb 0f00 	cmp.w	fp, #0
 800cc66:	4604      	mov	r4, r0
 800cc68:	460d      	mov	r5, r1
 800cc6a:	f6bf aee4 	bge.w	800ca36 <atan+0x3e>
 800cc6e:	f101 4300 	add.w	r3, r1, #2147483648	; 0x80000000
 800cc72:	461d      	mov	r5, r3
 800cc74:	e6df      	b.n	800ca36 <atan+0x3e>
 800cc76:	a51c      	add	r5, pc, #112	; (adr r5, 800cce8 <atan+0x2f0>)
 800cc78:	e9d5 4500 	ldrd	r4, r5, [r5]
 800cc7c:	e6db      	b.n	800ca36 <atan+0x3e>
 800cc7e:	bf00      	nop
 800cc80:	54442d18 	.word	0x54442d18
 800cc84:	bff921fb 	.word	0xbff921fb
 800cc88:	8800759c 	.word	0x8800759c
 800cc8c:	7e37e43c 	.word	0x7e37e43c
 800cc90:	e322da11 	.word	0xe322da11
 800cc94:	3f90ad3a 	.word	0x3f90ad3a
 800cc98:	24760deb 	.word	0x24760deb
 800cc9c:	3fa97b4b 	.word	0x3fa97b4b
 800cca0:	a0d03d51 	.word	0xa0d03d51
 800cca4:	3fb10d66 	.word	0x3fb10d66
 800cca8:	c54c206e 	.word	0xc54c206e
 800ccac:	3fb745cd 	.word	0x3fb745cd
 800ccb0:	920083ff 	.word	0x920083ff
 800ccb4:	3fc24924 	.word	0x3fc24924
 800ccb8:	5555550d 	.word	0x5555550d
 800ccbc:	3fd55555 	.word	0x3fd55555
 800ccc0:	2c6a6c2f 	.word	0x2c6a6c2f
 800ccc4:	bfa2b444 	.word	0xbfa2b444
 800ccc8:	52defd9a 	.word	0x52defd9a
 800cccc:	3fadde2d 	.word	0x3fadde2d
 800ccd0:	af749a6d 	.word	0xaf749a6d
 800ccd4:	3fb3b0f2 	.word	0x3fb3b0f2
 800ccd8:	fe231671 	.word	0xfe231671
 800ccdc:	3fbc71c6 	.word	0x3fbc71c6
 800cce0:	9998ebc4 	.word	0x9998ebc4
 800cce4:	3fc99999 	.word	0x3fc99999
 800cce8:	54442d18 	.word	0x54442d18
 800ccec:	3ff921fb 	.word	0x3ff921fb
 800ccf0:	440fffff 	.word	0x440fffff
 800ccf4:	7ff00000 	.word	0x7ff00000
 800ccf8:	3fdbffff 	.word	0x3fdbffff
 800ccfc:	3ff00000 	.word	0x3ff00000
 800cd00:	3ff2ffff 	.word	0x3ff2ffff
 800cd04:	40038000 	.word	0x40038000
 800cd08:	3ff80000 	.word	0x3ff80000
 800cd0c:	bff00000 	.word	0xbff00000
 800cd10:	0800e3e8 	.word	0x0800e3e8
 800cd14:	0800e3c8 	.word	0x0800e3c8

0800cd18 <fabs>:
 800cd18:	f021 4300 	bic.w	r3, r1, #2147483648	; 0x80000000
 800cd1c:	4619      	mov	r1, r3
 800cd1e:	4770      	bx	lr

0800cd20 <__kernel_rem_pio2>:
 800cd20:	e92d 4ff0 	stmdb	sp!, {r4, r5, r6, r7, r8, r9, sl, fp, lr}
 800cd24:	ed2d 8b02 	vpush	{d8}
 800cd28:	f5ad 7d19 	sub.w	sp, sp, #612	; 0x264
 800cd2c:	f112 0f14 	cmn.w	r2, #20
 800cd30:	9306      	str	r3, [sp, #24]
 800cd32:	9104      	str	r1, [sp, #16]
 800cd34:	4bc0      	ldr	r3, [pc, #768]	; (800d038 <__kernel_rem_pio2+0x318>)
 800cd36:	99a4      	ldr	r1, [sp, #656]	; 0x290
 800cd38:	9009      	str	r0, [sp, #36]	; 0x24
 800cd3a:	f853 3021 	ldr.w	r3, [r3, r1, lsl #2]
 800cd3e:	9300      	str	r3, [sp, #0]
 800cd40:	9b06      	ldr	r3, [sp, #24]
 800cd42:	f103 33ff 	add.w	r3, r3, #4294967295
 800cd46:	bfa8      	it	ge
 800cd48:	1ed4      	subge	r4, r2, #3
 800cd4a:	9305      	str	r3, [sp, #20]
 800cd4c:	bfb2      	itee	lt
 800cd4e:	2400      	movlt	r4, #0
 800cd50:	2318      	movge	r3, #24
 800cd52:	fb94 f4f3 	sdivge	r4, r4, r3
 800cd56:	f06f 0317 	mvn.w	r3, #23
 800cd5a:	fb04 3303 	mla	r3, r4, r3, r3
 800cd5e:	eb03 0a02 	add.w	sl, r3, r2
 800cd62:	9b00      	ldr	r3, [sp, #0]
 800cd64:	9a05      	ldr	r2, [sp, #20]
 800cd66:	ed9f 8bb2 	vldr	d8, [pc, #712]	; 800d030 <__kernel_rem_pio2+0x310>
 800cd6a:	eb03 0802 	add.w	r8, r3, r2
 800cd6e:	9ba5      	ldr	r3, [sp, #660]	; 0x294
 800cd70:	1aa7      	subs	r7, r4, r2
 800cd72:	ae20      	add	r6, sp, #128	; 0x80
 800cd74:	eb03 0987 	add.w	r9, r3, r7, lsl #2
 800cd78:	2500      	movs	r5, #0
 800cd7a:	4545      	cmp	r5, r8
 800cd7c:	dd13      	ble.n	800cda6 <__kernel_rem_pio2+0x86>
 800cd7e:	9b06      	ldr	r3, [sp, #24]
 800cd80:	aa20      	add	r2, sp, #128	; 0x80
 800cd82:	eb02 05c3 	add.w	r5, r2, r3, lsl #3
 800cd86:	f50d 7be0 	add.w	fp, sp, #448	; 0x1c0
 800cd8a:	f04f 0800 	mov.w	r8, #0
 800cd8e:	9b00      	ldr	r3, [sp, #0]
 800cd90:	4598      	cmp	r8, r3
 800cd92:	dc31      	bgt.n	800cdf8 <__kernel_rem_pio2+0xd8>
 800cd94:	ed9f 7ba6 	vldr	d7, [pc, #664]	; 800d030 <__kernel_rem_pio2+0x310>
 800cd98:	f8dd 9024 	ldr.w	r9, [sp, #36]	; 0x24
 800cd9c:	ed8d 7b02 	vstr	d7, [sp, #8]
 800cda0:	462f      	mov	r7, r5
 800cda2:	2600      	movs	r6, #0
 800cda4:	e01b      	b.n	800cdde <__kernel_rem_pio2+0xbe>
 800cda6:	42ef      	cmn	r7, r5
 800cda8:	d407      	bmi.n	800cdba <__kernel_rem_pio2+0x9a>
 800cdaa:	f859 0025 	ldr.w	r0, [r9, r5, lsl #2]
 800cdae:	f7f7 fbb1 	bl	8004514 <__aeabi_i2d>
 800cdb2:	e8e6 0102 	strd	r0, r1, [r6], #8
 800cdb6:	3501      	adds	r5, #1
 800cdb8:	e7df      	b.n	800cd7a <__kernel_rem_pio2+0x5a>
 800cdba:	ec51 0b18 	vmov	r0, r1, d8
 800cdbe:	e7f8      	b.n	800cdb2 <__kernel_rem_pio2+0x92>
 800cdc0:	e9d7 2300 	ldrd	r2, r3, [r7]
 800cdc4:	e8f9 0102 	ldrd	r0, r1, [r9], #8
 800cdc8:	f7f7 fc0e 	bl	80045e8 <__aeabi_dmul>
 800cdcc:	4602      	mov	r2, r0
 800cdce:	460b      	mov	r3, r1
 800cdd0:	e9dd 0102 	ldrd	r0, r1, [sp, #8]
 800cdd4:	f7f7 fa52 	bl	800427c <__adddf3>
 800cdd8:	e9cd 0102 	strd	r0, r1, [sp, #8]
 800cddc:	3601      	adds	r6, #1
 800cdde:	9b05      	ldr	r3, [sp, #20]
 800cde0:	429e      	cmp	r6, r3
 800cde2:	f1a7 0708 	sub.w	r7, r7, #8
 800cde6:	ddeb      	ble.n	800cdc0 <__kernel_rem_pio2+0xa0>
 800cde8:	ed9d 7b02 	vldr	d7, [sp, #8]
 800cdec:	f108 0801 	add.w	r8, r8, #1
 800cdf0:	ecab 7b02 	vstmia	fp!, {d7}
 800cdf4:	3508      	adds	r5, #8
 800cdf6:	e7ca      	b.n	800cd8e <__kernel_rem_pio2+0x6e>
 800cdf8:	9b00      	ldr	r3, [sp, #0]
 800cdfa:	aa0c      	add	r2, sp, #48	; 0x30
 800cdfc:	eb02 0383 	add.w	r3, r2, r3, lsl #2
 800ce00:	930b      	str	r3, [sp, #44]	; 0x2c
 800ce02:	9ba5      	ldr	r3, [sp, #660]	; 0x294
 800ce04:	eb03 0384 	add.w	r3, r3, r4, lsl #2
 800ce08:	9c00      	ldr	r4, [sp, #0]
 800ce0a:	930a      	str	r3, [sp, #40]	; 0x28
 800ce0c:	00e3      	lsls	r3, r4, #3
 800ce0e:	9308      	str	r3, [sp, #32]
 800ce10:	ab98      	add	r3, sp, #608	; 0x260
 800ce12:	eb03 03c4 	add.w	r3, r3, r4, lsl #3
 800ce16:	e953 6728 	ldrd	r6, r7, [r3, #-160]	; 0xa0
 800ce1a:	f10d 0830 	add.w	r8, sp, #48	; 0x30
 800ce1e:	ab70      	add	r3, sp, #448	; 0x1c0
 800ce20:	eb03 05c4 	add.w	r5, r3, r4, lsl #3
 800ce24:	46c3      	mov	fp, r8
 800ce26:	46a1      	mov	r9, r4
 800ce28:	f1b9 0f00 	cmp.w	r9, #0
 800ce2c:	f1a5 0508 	sub.w	r5, r5, #8
 800ce30:	dc70      	bgt.n	800cf14 <__kernel_rem_pio2+0x1f4>
 800ce32:	4652      	mov	r2, sl
 800ce34:	4630      	mov	r0, r6
 800ce36:	4639      	mov	r1, r7
 800ce38:	f000 fab6 	bl	800d3a8 <scalbn>
 800ce3c:	2200      	movs	r2, #0
 800ce3e:	f04f 537f 	mov.w	r3, #1069547520	; 0x3fc00000
 800ce42:	4606      	mov	r6, r0
 800ce44:	460f      	mov	r7, r1
 800ce46:	f7f7 fbcf 	bl	80045e8 <__aeabi_dmul>
 800ce4a:	f000 fb25 	bl	800d498 <floor>
 800ce4e:	4b7b      	ldr	r3, [pc, #492]	; (800d03c <__kernel_rem_pio2+0x31c>)
 800ce50:	2200      	movs	r2, #0
 800ce52:	f7f7 fbc9 	bl	80045e8 <__aeabi_dmul>
 800ce56:	4602      	mov	r2, r0
 800ce58:	460b      	mov	r3, r1
 800ce5a:	4630      	mov	r0, r6
 800ce5c:	4639      	mov	r1, r7
 800ce5e:	f7f7 fa0b 	bl	8004278 <__aeabi_dsub>
 800ce62:	460f      	mov	r7, r1
 800ce64:	4606      	mov	r6, r0
 800ce66:	f7f7 fe59 	bl	8004b1c <__aeabi_d2iz>
 800ce6a:	9002      	str	r0, [sp, #8]
 800ce6c:	f7f7 fb52 	bl	8004514 <__aeabi_i2d>
 800ce70:	4602      	mov	r2, r0
 800ce72:	460b      	mov	r3, r1
 800ce74:	4630      	mov	r0, r6
 800ce76:	4639      	mov	r1, r7
 800ce78:	f7f7 f9fe 	bl	8004278 <__aeabi_dsub>
 800ce7c:	f1ba 0f00 	cmp.w	sl, #0
 800ce80:	4606      	mov	r6, r0
 800ce82:	460f      	mov	r7, r1
 800ce84:	dd6d      	ble.n	800cf62 <__kernel_rem_pio2+0x242>
 800ce86:	1e61      	subs	r1, r4, #1
 800ce88:	ab0c      	add	r3, sp, #48	; 0x30
 800ce8a:	9d02      	ldr	r5, [sp, #8]
 800ce8c:	f853 3021 	ldr.w	r3, [r3, r1, lsl #2]
 800ce90:	f1ca 0018 	rsb	r0, sl, #24
 800ce94:	fa43 f200 	asr.w	r2, r3, r0
 800ce98:	4415      	add	r5, r2
 800ce9a:	4082      	lsls	r2, r0
 800ce9c:	1a9b      	subs	r3, r3, r2
 800ce9e:	aa0c      	add	r2, sp, #48	; 0x30
 800cea0:	9502      	str	r5, [sp, #8]
 800cea2:	f842 3021 	str.w	r3, [r2, r1, lsl #2]
 800cea6:	f1ca 0217 	rsb	r2, sl, #23
 800ceaa:	fa43 fb02 	asr.w	fp, r3, r2
 800ceae:	f1bb 0f00 	cmp.w	fp, #0
 800ceb2:	dd65      	ble.n	800cf80 <__kernel_rem_pio2+0x260>
 800ceb4:	9b02      	ldr	r3, [sp, #8]
 800ceb6:	2200      	movs	r2, #0
 800ceb8:	3301      	adds	r3, #1
 800ceba:	9302      	str	r3, [sp, #8]
 800cebc:	4615      	mov	r5, r2
 800cebe:	f06f 417f 	mvn.w	r1, #4278190080	; 0xff000000
 800cec2:	4294      	cmp	r4, r2
 800cec4:	f300 809f 	bgt.w	800d006 <__kernel_rem_pio2+0x2e6>
 800cec8:	f1ba 0f00 	cmp.w	sl, #0
 800cecc:	dd07      	ble.n	800cede <__kernel_rem_pio2+0x1be>
 800cece:	f1ba 0f01 	cmp.w	sl, #1
 800ced2:	f000 80bf 	beq.w	800d054 <__kernel_rem_pio2+0x334>
 800ced6:	f1ba 0f02 	cmp.w	sl, #2
 800ceda:	f000 80c5 	beq.w	800d068 <__kernel_rem_pio2+0x348>
 800cede:	f1bb 0f02 	cmp.w	fp, #2
 800cee2:	d14d      	bne.n	800cf80 <__kernel_rem_pio2+0x260>
 800cee4:	4632      	mov	r2, r6
 800cee6:	463b      	mov	r3, r7
 800cee8:	4955      	ldr	r1, [pc, #340]	; (800d040 <__kernel_rem_pio2+0x320>)
 800ceea:	2000      	movs	r0, #0
 800ceec:	f7f7 f9c4 	bl	8004278 <__aeabi_dsub>
 800cef0:	4606      	mov	r6, r0
 800cef2:	460f      	mov	r7, r1
 800cef4:	2d00      	cmp	r5, #0
 800cef6:	d043      	beq.n	800cf80 <__kernel_rem_pio2+0x260>
 800cef8:	4652      	mov	r2, sl
 800cefa:	4951      	ldr	r1, [pc, #324]	; (800d040 <__kernel_rem_pio2+0x320>)
 800cefc:	2000      	movs	r0, #0
 800cefe:	f000 fa53 	bl	800d3a8 <scalbn>
 800cf02:	4602      	mov	r2, r0
 800cf04:	460b      	mov	r3, r1
 800cf06:	4630      	mov	r0, r6
 800cf08:	4639      	mov	r1, r7
 800cf0a:	f7f7 f9b5 	bl	8004278 <__aeabi_dsub>
 800cf0e:	4606      	mov	r6, r0
 800cf10:	460f      	mov	r7, r1
 800cf12:	e035      	b.n	800cf80 <__kernel_rem_pio2+0x260>
 800cf14:	4b4b      	ldr	r3, [pc, #300]	; (800d044 <__kernel_rem_pio2+0x324>)
 800cf16:	2200      	movs	r2, #0
 800cf18:	4630      	mov	r0, r6
 800cf1a:	4639      	mov	r1, r7
 800cf1c:	f7f7 fb64 	bl	80045e8 <__aeabi_dmul>
 800cf20:	f7f7 fdfc 	bl	8004b1c <__aeabi_d2iz>
 800cf24:	f7f7 faf6 	bl	8004514 <__aeabi_i2d>
 800cf28:	4602      	mov	r2, r0
 800cf2a:	460b      	mov	r3, r1
 800cf2c:	ec43 2b18 	vmov	d8, r2, r3
 800cf30:	4b45      	ldr	r3, [pc, #276]	; (800d048 <__kernel_rem_pio2+0x328>)
 800cf32:	2200      	movs	r2, #0
 800cf34:	f7f7 fb58 	bl	80045e8 <__aeabi_dmul>
 800cf38:	4602      	mov	r2, r0
 800cf3a:	460b      	mov	r3, r1
 800cf3c:	4630      	mov	r0, r6
 800cf3e:	4639      	mov	r1, r7
 800cf40:	f7f7 f99a 	bl	8004278 <__aeabi_dsub>
 800cf44:	f7f7 fdea 	bl	8004b1c <__aeabi_d2iz>
 800cf48:	e9d5 2300 	ldrd	r2, r3, [r5]
 800cf4c:	f84b 0b04 	str.w	r0, [fp], #4
 800cf50:	ec51 0b18 	vmov	r0, r1, d8
 800cf54:	f7f7 f992 	bl	800427c <__adddf3>
 800cf58:	f109 39ff 	add.w	r9, r9, #4294967295
 800cf5c:	4606      	mov	r6, r0
 800cf5e:	460f      	mov	r7, r1
 800cf60:	e762      	b.n	800ce28 <__kernel_rem_pio2+0x108>
 800cf62:	d106      	bne.n	800cf72 <__kernel_rem_pio2+0x252>
 800cf64:	1e63      	subs	r3, r4, #1
 800cf66:	aa0c      	add	r2, sp, #48	; 0x30
 800cf68:	f852 3023 	ldr.w	r3, [r2, r3, lsl #2]
 800cf6c:	ea4f 5be3 	mov.w	fp, r3, asr #23
 800cf70:	e79d      	b.n	800ceae <__kernel_rem_pio2+0x18e>
 800cf72:	4b36      	ldr	r3, [pc, #216]	; (800d04c <__kernel_rem_pio2+0x32c>)
 800cf74:	2200      	movs	r2, #0
 800cf76:	f7f7 fdbd 	bl	8004af4 <__aeabi_dcmpge>
 800cf7a:	2800      	cmp	r0, #0
 800cf7c:	d140      	bne.n	800d000 <__kernel_rem_pio2+0x2e0>
 800cf7e:	4683      	mov	fp, r0
 800cf80:	2200      	movs	r2, #0
 800cf82:	2300      	movs	r3, #0
 800cf84:	4630      	mov	r0, r6
 800cf86:	4639      	mov	r1, r7
 800cf88:	f7f7 fd96 	bl	8004ab8 <__aeabi_dcmpeq>
 800cf8c:	2800      	cmp	r0, #0
 800cf8e:	f000 80bf 	beq.w	800d110 <__kernel_rem_pio2+0x3f0>
 800cf92:	1e65      	subs	r5, r4, #1
 800cf94:	462b      	mov	r3, r5
 800cf96:	2200      	movs	r2, #0
 800cf98:	9900      	ldr	r1, [sp, #0]
 800cf9a:	428b      	cmp	r3, r1
 800cf9c:	da6b      	bge.n	800d076 <__kernel_rem_pio2+0x356>
 800cf9e:	2a00      	cmp	r2, #0
 800cfa0:	f000 8088 	beq.w	800d0b4 <__kernel_rem_pio2+0x394>
 800cfa4:	ab0c      	add	r3, sp, #48	; 0x30
 800cfa6:	f1aa 0a18 	sub.w	sl, sl, #24
 800cfaa:	f853 3025 	ldr.w	r3, [r3, r5, lsl #2]
 800cfae:	2b00      	cmp	r3, #0
 800cfb0:	f000 80ac 	beq.w	800d10c <__kernel_rem_pio2+0x3ec>
 800cfb4:	4652      	mov	r2, sl
 800cfb6:	4922      	ldr	r1, [pc, #136]	; (800d040 <__kernel_rem_pio2+0x320>)
 800cfb8:	f8df 9088 	ldr.w	r9, [pc, #136]	; 800d044 <__kernel_rem_pio2+0x324>
 800cfbc:	2000      	movs	r0, #0
 800cfbe:	f000 f9f3 	bl	800d3a8 <scalbn>
 800cfc2:	1c6b      	adds	r3, r5, #1
 800cfc4:	00da      	lsls	r2, r3, #3
 800cfc6:	9205      	str	r2, [sp, #20]
 800cfc8:	aa70      	add	r2, sp, #448	; 0x1c0
 800cfca:	4606      	mov	r6, r0
 800cfcc:	460f      	mov	r7, r1
 800cfce:	eb02 0ac3 	add.w	sl, r2, r3, lsl #3
 800cfd2:	462c      	mov	r4, r5
 800cfd4:	f04f 0800 	mov.w	r8, #0
 800cfd8:	2c00      	cmp	r4, #0
 800cfda:	f280 80cf 	bge.w	800d17c <__kernel_rem_pio2+0x45c>
 800cfde:	462c      	mov	r4, r5
 800cfe0:	2c00      	cmp	r4, #0
 800cfe2:	f2c0 80fd 	blt.w	800d1e0 <__kernel_rem_pio2+0x4c0>
 800cfe6:	4b1a      	ldr	r3, [pc, #104]	; (800d050 <__kernel_rem_pio2+0x330>)
 800cfe8:	461e      	mov	r6, r3
 800cfea:	ab70      	add	r3, sp, #448	; 0x1c0
 800cfec:	eb03 08c4 	add.w	r8, r3, r4, lsl #3
 800cff0:	1b2b      	subs	r3, r5, r4
 800cff2:	f04f 0900 	mov.w	r9, #0
 800cff6:	f04f 0a00 	mov.w	sl, #0
 800cffa:	2700      	movs	r7, #0
 800cffc:	9306      	str	r3, [sp, #24]
 800cffe:	e0e1      	b.n	800d1c4 <__kernel_rem_pio2+0x4a4>
 800d000:	f04f 0b02 	mov.w	fp, #2
 800d004:	e756      	b.n	800ceb4 <__kernel_rem_pio2+0x194>
 800d006:	f8d8 3000 	ldr.w	r3, [r8]
 800d00a:	b955      	cbnz	r5, 800d022 <__kernel_rem_pio2+0x302>
 800d00c:	b123      	cbz	r3, 800d018 <__kernel_rem_pio2+0x2f8>
 800d00e:	f1c3 7380 	rsb	r3, r3, #16777216	; 0x1000000
 800d012:	f8c8 3000 	str.w	r3, [r8]
 800d016:	2301      	movs	r3, #1
 800d018:	3201      	adds	r2, #1
 800d01a:	f108 0804 	add.w	r8, r8, #4
 800d01e:	461d      	mov	r5, r3
 800d020:	e74f      	b.n	800cec2 <__kernel_rem_pio2+0x1a2>
 800d022:	1acb      	subs	r3, r1, r3
 800d024:	f8c8 3000 	str.w	r3, [r8]
 800d028:	462b      	mov	r3, r5
 800d02a:	e7f5      	b.n	800d018 <__kernel_rem_pio2+0x2f8>
 800d02c:	f3af 8000 	nop.w
	...
 800d038:	0800e448 	.word	0x0800e448
 800d03c:	40200000 	.word	0x40200000
 800d040:	3ff00000 	.word	0x3ff00000
 800d044:	3e700000 	.word	0x3e700000
 800d048:	41700000 	.word	0x41700000
 800d04c:	3fe00000 	.word	0x3fe00000
 800d050:	0800e408 	.word	0x0800e408
 800d054:	1e62      	subs	r2, r4, #1
 800d056:	ab0c      	add	r3, sp, #48	; 0x30
 800d058:	f853 3022 	ldr.w	r3, [r3, r2, lsl #2]
 800d05c:	f3c3 0316 	ubfx	r3, r3, #0, #23
 800d060:	a90c      	add	r1, sp, #48	; 0x30
 800d062:	f841 3022 	str.w	r3, [r1, r2, lsl #2]
 800d066:	e73a      	b.n	800cede <__kernel_rem_pio2+0x1be>
 800d068:	1e62      	subs	r2, r4, #1
 800d06a:	ab0c      	add	r3, sp, #48	; 0x30
 800d06c:	f853 3022 	ldr.w	r3, [r3, r2, lsl #2]
 800d070:	f3c3 0315 	ubfx	r3, r3, #0, #22
 800d074:	e7f4      	b.n	800d060 <__kernel_rem_pio2+0x340>
 800d076:	a90c      	add	r1, sp, #48	; 0x30
 800d078:	f851 1023 	ldr.w	r1, [r1, r3, lsl #2]
 800d07c:	3b01      	subs	r3, #1
 800d07e:	430a      	orrs	r2, r1
 800d080:	e78a      	b.n	800cf98 <__kernel_rem_pio2+0x278>
 800d082:	3301      	adds	r3, #1
 800d084:	f852 1d04 	ldr.w	r1, [r2, #-4]!
 800d088:	2900      	cmp	r1, #0
 800d08a:	d0fa      	beq.n	800d082 <__kernel_rem_pio2+0x362>
 800d08c:	9a08      	ldr	r2, [sp, #32]
 800d08e:	f502 7218 	add.w	r2, r2, #608	; 0x260
 800d092:	446a      	add	r2, sp
 800d094:	3a98      	subs	r2, #152	; 0x98
 800d096:	9208      	str	r2, [sp, #32]
 800d098:	9a06      	ldr	r2, [sp, #24]
 800d09a:	a920      	add	r1, sp, #128	; 0x80
 800d09c:	18a2      	adds	r2, r4, r2
 800d09e:	18e3      	adds	r3, r4, r3
 800d0a0:	f104 0801 	add.w	r8, r4, #1
 800d0a4:	eb01 05c2 	add.w	r5, r1, r2, lsl #3
 800d0a8:	9302      	str	r3, [sp, #8]
 800d0aa:	9b02      	ldr	r3, [sp, #8]
 800d0ac:	4543      	cmp	r3, r8
 800d0ae:	da04      	bge.n	800d0ba <__kernel_rem_pio2+0x39a>
 800d0b0:	461c      	mov	r4, r3
 800d0b2:	e6ab      	b.n	800ce0c <__kernel_rem_pio2+0xec>
 800d0b4:	9a0b      	ldr	r2, [sp, #44]	; 0x2c
 800d0b6:	2301      	movs	r3, #1
 800d0b8:	e7e4      	b.n	800d084 <__kernel_rem_pio2+0x364>
 800d0ba:	9b0a      	ldr	r3, [sp, #40]	; 0x28
 800d0bc:	f853 0028 	ldr.w	r0, [r3, r8, lsl #2]
 800d0c0:	f7f7 fa28 	bl	8004514 <__aeabi_i2d>
 800d0c4:	e8e5 0102 	strd	r0, r1, [r5], #8
 800d0c8:	9b09      	ldr	r3, [sp, #36]	; 0x24
 800d0ca:	46ab      	mov	fp, r5
 800d0cc:	461c      	mov	r4, r3
 800d0ce:	f04f 0900 	mov.w	r9, #0
 800d0d2:	2600      	movs	r6, #0
 800d0d4:	2700      	movs	r7, #0
 800d0d6:	9b05      	ldr	r3, [sp, #20]
 800d0d8:	4599      	cmp	r9, r3
 800d0da:	dd06      	ble.n	800d0ea <__kernel_rem_pio2+0x3ca>
 800d0dc:	9b08      	ldr	r3, [sp, #32]
 800d0de:	e8e3 6702 	strd	r6, r7, [r3], #8
 800d0e2:	f108 0801 	add.w	r8, r8, #1
 800d0e6:	9308      	str	r3, [sp, #32]
 800d0e8:	e7df      	b.n	800d0aa <__kernel_rem_pio2+0x38a>
 800d0ea:	e97b 2302 	ldrd	r2, r3, [fp, #-8]!
 800d0ee:	e8f4 0102 	ldrd	r0, r1, [r4], #8
 800d0f2:	f7f7 fa79 	bl	80045e8 <__aeabi_dmul>
 800d0f6:	4602      	mov	r2, r0
 800d0f8:	460b      	mov	r3, r1
 800d0fa:	4630      	mov	r0, r6
 800d0fc:	4639      	mov	r1, r7
 800d0fe:	f7f7 f8bd 	bl	800427c <__adddf3>
 800d102:	f109 0901 	add.w	r9, r9, #1
 800d106:	4606      	mov	r6, r0
 800d108:	460f      	mov	r7, r1
 800d10a:	e7e4      	b.n	800d0d6 <__kernel_rem_pio2+0x3b6>
 800d10c:	3d01      	subs	r5, #1
 800d10e:	e749      	b.n	800cfa4 <__kernel_rem_pio2+0x284>
 800d110:	f1ca 0200 	rsb	r2, sl, #0
 800d114:	4630      	mov	r0, r6
 800d116:	4639      	mov	r1, r7
 800d118:	f000 f946 	bl	800d3a8 <scalbn>
 800d11c:	4b9f      	ldr	r3, [pc, #636]	; (800d39c <__kernel_rem_pio2+0x67c>)
 800d11e:	2200      	movs	r2, #0
 800d120:	4606      	mov	r6, r0
 800d122:	460f      	mov	r7, r1
 800d124:	f7f7 fce6 	bl	8004af4 <__aeabi_dcmpge>
 800d128:	b1f8      	cbz	r0, 800d16a <__kernel_rem_pio2+0x44a>
 800d12a:	4b9d      	ldr	r3, [pc, #628]	; (800d3a0 <__kernel_rem_pio2+0x680>)
 800d12c:	2200      	movs	r2, #0
 800d12e:	4630      	mov	r0, r6
 800d130:	4639      	mov	r1, r7
 800d132:	f7f7 fa59 	bl	80045e8 <__aeabi_dmul>
 800d136:	f7f7 fcf1 	bl	8004b1c <__aeabi_d2iz>
 800d13a:	4680      	mov	r8, r0
 800d13c:	f7f7 f9ea 	bl	8004514 <__aeabi_i2d>
 800d140:	4b96      	ldr	r3, [pc, #600]	; (800d39c <__kernel_rem_pio2+0x67c>)
 800d142:	2200      	movs	r2, #0
 800d144:	f7f7 fa50 	bl	80045e8 <__aeabi_dmul>
 800d148:	460b      	mov	r3, r1
 800d14a:	4602      	mov	r2, r0
 800d14c:	4639      	mov	r1, r7
 800d14e:	4630      	mov	r0, r6
 800d150:	f7f7 f892 	bl	8004278 <__aeabi_dsub>
 800d154:	f7f7 fce2 	bl	8004b1c <__aeabi_d2iz>
 800d158:	1c65      	adds	r5, r4, #1
 800d15a:	ab0c      	add	r3, sp, #48	; 0x30
 800d15c:	f10a 0a18 	add.w	sl, sl, #24
 800d160:	f843 0024 	str.w	r0, [r3, r4, lsl #2]
 800d164:	f843 8025 	str.w	r8, [r3, r5, lsl #2]
 800d168:	e724      	b.n	800cfb4 <__kernel_rem_pio2+0x294>
 800d16a:	4630      	mov	r0, r6
 800d16c:	4639      	mov	r1, r7
 800d16e:	f7f7 fcd5 	bl	8004b1c <__aeabi_d2iz>
 800d172:	ab0c      	add	r3, sp, #48	; 0x30
 800d174:	4625      	mov	r5, r4
 800d176:	f843 0024 	str.w	r0, [r3, r4, lsl #2]
 800d17a:	e71b      	b.n	800cfb4 <__kernel_rem_pio2+0x294>
 800d17c:	ab0c      	add	r3, sp, #48	; 0x30
 800d17e:	f853 0024 	ldr.w	r0, [r3, r4, lsl #2]
 800d182:	f7f7 f9c7 	bl	8004514 <__aeabi_i2d>
 800d186:	4632      	mov	r2, r6
 800d188:	463b      	mov	r3, r7
 800d18a:	f7f7 fa2d 	bl	80045e8 <__aeabi_dmul>
 800d18e:	4642      	mov	r2, r8
 800d190:	e96a 0102 	strd	r0, r1, [sl, #-8]!
 800d194:	464b      	mov	r3, r9
 800d196:	4630      	mov	r0, r6
 800d198:	4639      	mov	r1, r7
 800d19a:	f7f7 fa25 	bl	80045e8 <__aeabi_dmul>
 800d19e:	3c01      	subs	r4, #1
 800d1a0:	4606      	mov	r6, r0
 800d1a2:	460f      	mov	r7, r1
 800d1a4:	e718      	b.n	800cfd8 <__kernel_rem_pio2+0x2b8>
 800d1a6:	e8f8 2302 	ldrd	r2, r3, [r8], #8
 800d1aa:	e8f6 0102 	ldrd	r0, r1, [r6], #8
 800d1ae:	f7f7 fa1b 	bl	80045e8 <__aeabi_dmul>
 800d1b2:	4602      	mov	r2, r0
 800d1b4:	460b      	mov	r3, r1
 800d1b6:	4648      	mov	r0, r9
 800d1b8:	4651      	mov	r1, sl
 800d1ba:	f7f7 f85f 	bl	800427c <__adddf3>
 800d1be:	3701      	adds	r7, #1
 800d1c0:	4681      	mov	r9, r0
 800d1c2:	468a      	mov	sl, r1
 800d1c4:	9b00      	ldr	r3, [sp, #0]
 800d1c6:	429f      	cmp	r7, r3
 800d1c8:	dc02      	bgt.n	800d1d0 <__kernel_rem_pio2+0x4b0>
 800d1ca:	9b06      	ldr	r3, [sp, #24]
 800d1cc:	429f      	cmp	r7, r3
 800d1ce:	ddea      	ble.n	800d1a6 <__kernel_rem_pio2+0x486>
 800d1d0:	9a06      	ldr	r2, [sp, #24]
 800d1d2:	ab48      	add	r3, sp, #288	; 0x120
 800d1d4:	eb03 06c2 	add.w	r6, r3, r2, lsl #3
 800d1d8:	e9c6 9a00 	strd	r9, sl, [r6]
 800d1dc:	3c01      	subs	r4, #1
 800d1de:	e6ff      	b.n	800cfe0 <__kernel_rem_pio2+0x2c0>
 800d1e0:	9ba4      	ldr	r3, [sp, #656]	; 0x290
 800d1e2:	2b02      	cmp	r3, #2
 800d1e4:	dc0b      	bgt.n	800d1fe <__kernel_rem_pio2+0x4de>
 800d1e6:	2b00      	cmp	r3, #0
 800d1e8:	dc39      	bgt.n	800d25e <__kernel_rem_pio2+0x53e>
 800d1ea:	d05d      	beq.n	800d2a8 <__kernel_rem_pio2+0x588>
 800d1ec:	9b02      	ldr	r3, [sp, #8]
 800d1ee:	f003 0007 	and.w	r0, r3, #7
 800d1f2:	f50d 7d19 	add.w	sp, sp, #612	; 0x264
 800d1f6:	ecbd 8b02 	vpop	{d8}
 800d1fa:	e8bd 8ff0 	ldmia.w	sp!, {r4, r5, r6, r7, r8, r9, sl, fp, pc}
 800d1fe:	9ba4      	ldr	r3, [sp, #656]	; 0x290
 800d200:	2b03      	cmp	r3, #3
 800d202:	d1f3      	bne.n	800d1ec <__kernel_rem_pio2+0x4cc>
 800d204:	9b05      	ldr	r3, [sp, #20]
 800d206:	9500      	str	r5, [sp, #0]
 800d208:	f503 7318 	add.w	r3, r3, #608	; 0x260
 800d20c:	eb0d 0403 	add.w	r4, sp, r3
 800d210:	f5a4 74a4 	sub.w	r4, r4, #328	; 0x148
 800d214:	46a2      	mov	sl, r4
 800d216:	9b00      	ldr	r3, [sp, #0]
 800d218:	2b00      	cmp	r3, #0
 800d21a:	f1aa 0a08 	sub.w	sl, sl, #8
 800d21e:	dc69      	bgt.n	800d2f4 <__kernel_rem_pio2+0x5d4>
 800d220:	46aa      	mov	sl, r5
 800d222:	f1ba 0f01 	cmp.w	sl, #1
 800d226:	f1a4 0408 	sub.w	r4, r4, #8
 800d22a:	f300 8083 	bgt.w	800d334 <__kernel_rem_pio2+0x614>
 800d22e:	9c05      	ldr	r4, [sp, #20]
 800d230:	ab48      	add	r3, sp, #288	; 0x120
 800d232:	441c      	add	r4, r3
 800d234:	2000      	movs	r0, #0
 800d236:	2100      	movs	r1, #0
 800d238:	2d01      	cmp	r5, #1
 800d23a:	f300 809a 	bgt.w	800d372 <__kernel_rem_pio2+0x652>
 800d23e:	e9dd 7848 	ldrd	r7, r8, [sp, #288]	; 0x120
 800d242:	e9dd 564a 	ldrd	r5, r6, [sp, #296]	; 0x128
 800d246:	f1bb 0f00 	cmp.w	fp, #0
 800d24a:	f040 8098 	bne.w	800d37e <__kernel_rem_pio2+0x65e>
 800d24e:	9b04      	ldr	r3, [sp, #16]
 800d250:	e9c3 7800 	strd	r7, r8, [r3]
 800d254:	e9c3 5602 	strd	r5, r6, [r3, #8]
 800d258:	e9c3 0104 	strd	r0, r1, [r3, #16]
 800d25c:	e7c6      	b.n	800d1ec <__kernel_rem_pio2+0x4cc>
 800d25e:	9e05      	ldr	r6, [sp, #20]
 800d260:	ab48      	add	r3, sp, #288	; 0x120
 800d262:	441e      	add	r6, r3
 800d264:	462c      	mov	r4, r5
 800d266:	2000      	movs	r0, #0
 800d268:	2100      	movs	r1, #0
 800d26a:	2c00      	cmp	r4, #0
 800d26c:	da33      	bge.n	800d2d6 <__kernel_rem_pio2+0x5b6>
 800d26e:	f1bb 0f00 	cmp.w	fp, #0
 800d272:	d036      	beq.n	800d2e2 <__kernel_rem_pio2+0x5c2>
 800d274:	4602      	mov	r2, r0
 800d276:	f101 4300 	add.w	r3, r1, #2147483648	; 0x80000000
 800d27a:	9c04      	ldr	r4, [sp, #16]
 800d27c:	e9c4 2300 	strd	r2, r3, [r4]
 800d280:	4602      	mov	r2, r0
 800d282:	460b      	mov	r3, r1
 800d284:	e9dd 0148 	ldrd	r0, r1, [sp, #288]	; 0x120
 800d288:	f7f6 fff6 	bl	8004278 <__aeabi_dsub>
 800d28c:	ae4a      	add	r6, sp, #296	; 0x128
 800d28e:	2401      	movs	r4, #1
 800d290:	42a5      	cmp	r5, r4
 800d292:	da29      	bge.n	800d2e8 <__kernel_rem_pio2+0x5c8>
 800d294:	f1bb 0f00 	cmp.w	fp, #0
 800d298:	d002      	beq.n	800d2a0 <__kernel_rem_pio2+0x580>
 800d29a:	f101 4300 	add.w	r3, r1, #2147483648	; 0x80000000
 800d29e:	4619      	mov	r1, r3
 800d2a0:	9b04      	ldr	r3, [sp, #16]
 800d2a2:	e9c3 0102 	strd	r0, r1, [r3, #8]
 800d2a6:	e7a1      	b.n	800d1ec <__kernel_rem_pio2+0x4cc>
 800d2a8:	9c05      	ldr	r4, [sp, #20]
 800d2aa:	ab48      	add	r3, sp, #288	; 0x120
 800d2ac:	441c      	add	r4, r3
 800d2ae:	2000      	movs	r0, #0
 800d2b0:	2100      	movs	r1, #0
 800d2b2:	2d00      	cmp	r5, #0
 800d2b4:	da09      	bge.n	800d2ca <__kernel_rem_pio2+0x5aa>
 800d2b6:	f1bb 0f00 	cmp.w	fp, #0
 800d2ba:	d002      	beq.n	800d2c2 <__kernel_rem_pio2+0x5a2>
 800d2bc:	f101 4300 	add.w	r3, r1, #2147483648	; 0x80000000
 800d2c0:	4619      	mov	r1, r3
 800d2c2:	9b04      	ldr	r3, [sp, #16]
 800d2c4:	e9c3 0100 	strd	r0, r1, [r3]
 800d2c8:	e790      	b.n	800d1ec <__kernel_rem_pio2+0x4cc>
 800d2ca:	e974 2302 	ldrd	r2, r3, [r4, #-8]!
 800d2ce:	f7f6 ffd5 	bl	800427c <__adddf3>
 800d2d2:	3d01      	subs	r5, #1
 800d2d4:	e7ed      	b.n	800d2b2 <__kernel_rem_pio2+0x592>
 800d2d6:	e976 2302 	ldrd	r2, r3, [r6, #-8]!
 800d2da:	f7f6 ffcf 	bl	800427c <__adddf3>
 800d2de:	3c01      	subs	r4, #1
 800d2e0:	e7c3      	b.n	800d26a <__kernel_rem_pio2+0x54a>
 800d2e2:	4602      	mov	r2, r0
 800d2e4:	460b      	mov	r3, r1
 800d2e6:	e7c8      	b.n	800d27a <__kernel_rem_pio2+0x55a>
 800d2e8:	e8f6 2302 	ldrd	r2, r3, [r6], #8
 800d2ec:	f7f6 ffc6 	bl	800427c <__adddf3>
 800d2f0:	3401      	adds	r4, #1
 800d2f2:	e7cd      	b.n	800d290 <__kernel_rem_pio2+0x570>
 800d2f4:	e9da 8900 	ldrd	r8, r9, [sl]
 800d2f8:	e9da 6702 	ldrd	r6, r7, [sl, #8]
 800d2fc:	9b00      	ldr	r3, [sp, #0]
 800d2fe:	3b01      	subs	r3, #1
 800d300:	9300      	str	r3, [sp, #0]
 800d302:	4632      	mov	r2, r6
 800d304:	463b      	mov	r3, r7
 800d306:	4640      	mov	r0, r8
 800d308:	4649      	mov	r1, r9
 800d30a:	f7f6 ffb7 	bl	800427c <__adddf3>
 800d30e:	e9cd 0106 	strd	r0, r1, [sp, #24]
 800d312:	4602      	mov	r2, r0
 800d314:	460b      	mov	r3, r1
 800d316:	4640      	mov	r0, r8
 800d318:	4649      	mov	r1, r9
 800d31a:	f7f6 ffad 	bl	8004278 <__aeabi_dsub>
 800d31e:	4632      	mov	r2, r6
 800d320:	463b      	mov	r3, r7
 800d322:	f7f6 ffab 	bl	800427c <__adddf3>
 800d326:	ed9d 7b06 	vldr	d7, [sp, #24]
 800d32a:	e9ca 0102 	strd	r0, r1, [sl, #8]
 800d32e:	ed8a 7b00 	vstr	d7, [sl]
 800d332:	e770      	b.n	800d216 <__kernel_rem_pio2+0x4f6>
 800d334:	e9d4 8900 	ldrd	r8, r9, [r4]
 800d338:	e9d4 6702 	ldrd	r6, r7, [r4, #8]
 800d33c:	4640      	mov	r0, r8
 800d33e:	4632      	mov	r2, r6
 800d340:	463b      	mov	r3, r7
 800d342:	4649      	mov	r1, r9
 800d344:	f7f6 ff9a 	bl	800427c <__adddf3>
 800d348:	e9cd 0100 	strd	r0, r1, [sp]
 800d34c:	4602      	mov	r2, r0
 800d34e:	460b      	mov	r3, r1
 800d350:	4640      	mov	r0, r8
 800d352:	4649      	mov	r1, r9
 800d354:	f7f6 ff90 	bl	8004278 <__aeabi_dsub>
 800d358:	4632      	mov	r2, r6
 800d35a:	463b      	mov	r3, r7
 800d35c:	f7f6 ff8e 	bl	800427c <__adddf3>
 800d360:	ed9d 7b00 	vldr	d7, [sp]
 800d364:	e9c4 0102 	strd	r0, r1, [r4, #8]
 800d368:	ed84 7b00 	vstr	d7, [r4]
 800d36c:	f10a 3aff 	add.w	sl, sl, #4294967295
 800d370:	e757      	b.n	800d222 <__kernel_rem_pio2+0x502>
 800d372:	e974 2302 	ldrd	r2, r3, [r4, #-8]!
 800d376:	f7f6 ff81 	bl	800427c <__adddf3>
 800d37a:	3d01      	subs	r5, #1
 800d37c:	e75c      	b.n	800d238 <__kernel_rem_pio2+0x518>
 800d37e:	9b04      	ldr	r3, [sp, #16]
 800d380:	9a04      	ldr	r2, [sp, #16]
 800d382:	601f      	str	r7, [r3, #0]
 800d384:	f108 4400 	add.w	r4, r8, #2147483648	; 0x80000000
 800d388:	605c      	str	r4, [r3, #4]
 800d38a:	609d      	str	r5, [r3, #8]
 800d38c:	f106 4300 	add.w	r3, r6, #2147483648	; 0x80000000
 800d390:	60d3      	str	r3, [r2, #12]
 800d392:	f101 4300 	add.w	r3, r1, #2147483648	; 0x80000000
 800d396:	6110      	str	r0, [r2, #16]
 800d398:	6153      	str	r3, [r2, #20]
 800d39a:	e727      	b.n	800d1ec <__kernel_rem_pio2+0x4cc>
 800d39c:	41700000 	.word	0x41700000
 800d3a0:	3e700000 	.word	0x3e700000
 800d3a4:	00000000 	.word	0x00000000

0800d3a8 <scalbn>:
 800d3a8:	b5f8      	push	{r3, r4, r5, r6, r7, lr}
 800d3aa:	4616      	mov	r6, r2
 800d3ac:	f3c1 520a 	ubfx	r2, r1, #20, #11
 800d3b0:	4604      	mov	r4, r0
 800d3b2:	460d      	mov	r5, r1
 800d3b4:	460b      	mov	r3, r1
 800d3b6:	b982      	cbnz	r2, 800d3da <scalbn+0x32>
 800d3b8:	f021 4300 	bic.w	r3, r1, #2147483648	; 0x80000000
 800d3bc:	4303      	orrs	r3, r0
 800d3be:	d039      	beq.n	800d434 <scalbn+0x8c>
 800d3c0:	4b31      	ldr	r3, [pc, #196]	; (800d488 <scalbn+0xe0>)
 800d3c2:	2200      	movs	r2, #0
 800d3c4:	f7f7 f910 	bl	80045e8 <__aeabi_dmul>
 800d3c8:	4b30      	ldr	r3, [pc, #192]	; (800d48c <scalbn+0xe4>)
 800d3ca:	429e      	cmp	r6, r3
 800d3cc:	4604      	mov	r4, r0
 800d3ce:	460d      	mov	r5, r1
 800d3d0:	da0d      	bge.n	800d3ee <scalbn+0x46>
 800d3d2:	a325      	add	r3, pc, #148	; (adr r3, 800d468 <scalbn+0xc0>)
 800d3d4:	e9d3 2300 	ldrd	r2, r3, [r3]
 800d3d8:	e01c      	b.n	800d414 <scalbn+0x6c>
 800d3da:	f240 77ff 	movw	r7, #2047	; 0x7ff
 800d3de:	42ba      	cmp	r2, r7
 800d3e0:	d109      	bne.n	800d3f6 <scalbn+0x4e>
 800d3e2:	4602      	mov	r2, r0
 800d3e4:	f7f6 ff4a 	bl	800427c <__adddf3>
 800d3e8:	4604      	mov	r4, r0
 800d3ea:	460d      	mov	r5, r1
 800d3ec:	e022      	b.n	800d434 <scalbn+0x8c>
 800d3ee:	f3c1 520a 	ubfx	r2, r1, #20, #11
 800d3f2:	460b      	mov	r3, r1
 800d3f4:	3a36      	subs	r2, #54	; 0x36
 800d3f6:	f24c 3150 	movw	r1, #50000	; 0xc350
 800d3fa:	428e      	cmp	r6, r1
 800d3fc:	dd0d      	ble.n	800d41a <scalbn+0x72>
 800d3fe:	2d00      	cmp	r5, #0
 800d400:	a11b      	add	r1, pc, #108	; (adr r1, 800d470 <scalbn+0xc8>)
 800d402:	e9d1 0100 	ldrd	r0, r1, [r1]
 800d406:	da02      	bge.n	800d40e <scalbn+0x66>
 800d408:	a11b      	add	r1, pc, #108	; (adr r1, 800d478 <scalbn+0xd0>)
 800d40a:	e9d1 0100 	ldrd	r0, r1, [r1]
 800d40e:	a318      	add	r3, pc, #96	; (adr r3, 800d470 <scalbn+0xc8>)
 800d410:	e9d3 2300 	ldrd	r2, r3, [r3]
 800d414:	f7f7 f8e8 	bl	80045e8 <__aeabi_dmul>
 800d418:	e7e6      	b.n	800d3e8 <scalbn+0x40>
 800d41a:	4432      	add	r2, r6
 800d41c:	f240 71fe 	movw	r1, #2046	; 0x7fe
 800d420:	428a      	cmp	r2, r1
 800d422:	dcec      	bgt.n	800d3fe <scalbn+0x56>
 800d424:	2a00      	cmp	r2, #0
 800d426:	dd08      	ble.n	800d43a <scalbn+0x92>
 800d428:	f023 43ff 	bic.w	r3, r3, #2139095040	; 0x7f800000
 800d42c:	f423 03e0 	bic.w	r3, r3, #7340032	; 0x700000
 800d430:	ea43 5502 	orr.w	r5, r3, r2, lsl #20
 800d434:	4620      	mov	r0, r4
 800d436:	4629      	mov	r1, r5
 800d438:	bdf8      	pop	{r3, r4, r5, r6, r7, pc}
 800d43a:	f112 0f35 	cmn.w	r2, #53	; 0x35
 800d43e:	da08      	bge.n	800d452 <scalbn+0xaa>
 800d440:	2d00      	cmp	r5, #0
 800d442:	a109      	add	r1, pc, #36	; (adr r1, 800d468 <scalbn+0xc0>)
 800d444:	e9d1 0100 	ldrd	r0, r1, [r1]
 800d448:	dac3      	bge.n	800d3d2 <scalbn+0x2a>
 800d44a:	a10d      	add	r1, pc, #52	; (adr r1, 800d480 <scalbn+0xd8>)
 800d44c:	e9d1 0100 	ldrd	r0, r1, [r1]
 800d450:	e7bf      	b.n	800d3d2 <scalbn+0x2a>
 800d452:	f023 43ff 	bic.w	r3, r3, #2139095040	; 0x7f800000
 800d456:	3236      	adds	r2, #54	; 0x36
 800d458:	f423 03e0 	bic.w	r3, r3, #7340032	; 0x700000
 800d45c:	ea43 5102 	orr.w	r1, r3, r2, lsl #20
 800d460:	4620      	mov	r0, r4
 800d462:	4b0b      	ldr	r3, [pc, #44]	; (800d490 <scalbn+0xe8>)
 800d464:	2200      	movs	r2, #0
 800d466:	e7d5      	b.n	800d414 <scalbn+0x6c>
 800d468:	c2f8f359 	.word	0xc2f8f359
 800d46c:	01a56e1f 	.word	0x01a56e1f
 800d470:	8800759c 	.word	0x8800759c
 800d474:	7e37e43c 	.word	0x7e37e43c
 800d478:	8800759c 	.word	0x8800759c
 800d47c:	fe37e43c 	.word	0xfe37e43c
 800d480:	c2f8f359 	.word	0xc2f8f359
 800d484:	81a56e1f 	.word	0x81a56e1f
 800d488:	43500000 	.word	0x43500000
 800d48c:	ffff3cb0 	.word	0xffff3cb0
 800d490:	3c900000 	.word	0x3c900000
 800d494:	00000000 	.word	0x00000000

0800d498 <floor>:
 800d498:	e92d 41f0 	stmdb	sp!, {r4, r5, r6, r7, r8, lr}
 800d49c:	f3c1 570a 	ubfx	r7, r1, #20, #11
 800d4a0:	f2a7 36ff 	subw	r6, r7, #1023	; 0x3ff
 800d4a4:	2e13      	cmp	r6, #19
 800d4a6:	4602      	mov	r2, r0
 800d4a8:	460b      	mov	r3, r1
 800d4aa:	460c      	mov	r4, r1
 800d4ac:	4605      	mov	r5, r0
 800d4ae:	4680      	mov	r8, r0
 800d4b0:	dc32      	bgt.n	800d518 <floor+0x80>
 800d4b2:	2e00      	cmp	r6, #0
 800d4b4:	da14      	bge.n	800d4e0 <floor+0x48>
 800d4b6:	a334      	add	r3, pc, #208	; (adr r3, 800d588 <floor+0xf0>)
 800d4b8:	e9d3 2300 	ldrd	r2, r3, [r3]
 800d4bc:	f7f6 fede 	bl	800427c <__adddf3>
 800d4c0:	2200      	movs	r2, #0
 800d4c2:	2300      	movs	r3, #0
 800d4c4:	f7f7 fb20 	bl	8004b08 <__aeabi_dcmpgt>
 800d4c8:	b138      	cbz	r0, 800d4da <floor+0x42>
 800d4ca:	2c00      	cmp	r4, #0
 800d4cc:	da54      	bge.n	800d578 <floor+0xe0>
 800d4ce:	f024 4400 	bic.w	r4, r4, #2147483648	; 0x80000000
 800d4d2:	4325      	orrs	r5, r4
 800d4d4:	d053      	beq.n	800d57e <floor+0xe6>
 800d4d6:	4c2e      	ldr	r4, [pc, #184]	; (800d590 <floor+0xf8>)
 800d4d8:	2500      	movs	r5, #0
 800d4da:	4623      	mov	r3, r4
 800d4dc:	462a      	mov	r2, r5
 800d4de:	e024      	b.n	800d52a <floor+0x92>
 800d4e0:	4f2c      	ldr	r7, [pc, #176]	; (800d594 <floor+0xfc>)
 800d4e2:	4137      	asrs	r7, r6
 800d4e4:	ea01 0c07 	and.w	ip, r1, r7
 800d4e8:	ea5c 0c00 	orrs.w	ip, ip, r0
 800d4ec:	d01d      	beq.n	800d52a <floor+0x92>
 800d4ee:	a326      	add	r3, pc, #152	; (adr r3, 800d588 <floor+0xf0>)
 800d4f0:	e9d3 2300 	ldrd	r2, r3, [r3]
 800d4f4:	f7f6 fec2 	bl	800427c <__adddf3>
 800d4f8:	2200      	movs	r2, #0
 800d4fa:	2300      	movs	r3, #0
 800d4fc:	f7f7 fb04 	bl	8004b08 <__aeabi_dcmpgt>
 800d500:	2800      	cmp	r0, #0
 800d502:	d0ea      	beq.n	800d4da <floor+0x42>
 800d504:	2c00      	cmp	r4, #0
 800d506:	bfbe      	ittt	lt
 800d508:	f44f 1380 	movlt.w	r3, #1048576	; 0x100000
 800d50c:	4133      	asrlt	r3, r6
 800d50e:	18e4      	addlt	r4, r4, r3
 800d510:	ea24 0407 	bic.w	r4, r4, r7
 800d514:	2500      	movs	r5, #0
 800d516:	e7e0      	b.n	800d4da <floor+0x42>
 800d518:	2e33      	cmp	r6, #51	; 0x33
 800d51a:	dd0a      	ble.n	800d532 <floor+0x9a>
 800d51c:	f5b6 6f80 	cmp.w	r6, #1024	; 0x400
 800d520:	d103      	bne.n	800d52a <floor+0x92>
 800d522:	f7f6 feab 	bl	800427c <__adddf3>
 800d526:	4602      	mov	r2, r0
 800d528:	460b      	mov	r3, r1
 800d52a:	4610      	mov	r0, r2
 800d52c:	4619      	mov	r1, r3
 800d52e:	e8bd 81f0 	ldmia.w	sp!, {r4, r5, r6, r7, r8, pc}
 800d532:	f2a7 4713 	subw	r7, r7, #1043	; 0x413
 800d536:	f04f 3cff 	mov.w	ip, #4294967295
 800d53a:	fa2c f707 	lsr.w	r7, ip, r7
 800d53e:	4238      	tst	r0, r7
 800d540:	d0f3      	beq.n	800d52a <floor+0x92>
 800d542:	a311      	add	r3, pc, #68	; (adr r3, 800d588 <floor+0xf0>)
 800d544:	e9d3 2300 	ldrd	r2, r3, [r3]
 800d548:	f7f6 fe98 	bl	800427c <__adddf3>
 800d54c:	2200      	movs	r2, #0
 800d54e:	2300      	movs	r3, #0
 800d550:	f7f7 fada 	bl	8004b08 <__aeabi_dcmpgt>
 800d554:	2800      	cmp	r0, #0
 800d556:	d0c0      	beq.n	800d4da <floor+0x42>
 800d558:	2c00      	cmp	r4, #0
 800d55a:	da0a      	bge.n	800d572 <floor+0xda>
 800d55c:	2e14      	cmp	r6, #20
 800d55e:	d101      	bne.n	800d564 <floor+0xcc>
 800d560:	3401      	adds	r4, #1
 800d562:	e006      	b.n	800d572 <floor+0xda>
 800d564:	f1c6 0634 	rsb	r6, r6, #52	; 0x34
 800d568:	2301      	movs	r3, #1
 800d56a:	40b3      	lsls	r3, r6
 800d56c:	441d      	add	r5, r3
 800d56e:	45a8      	cmp	r8, r5
 800d570:	d8f6      	bhi.n	800d560 <floor+0xc8>
 800d572:	ea25 0507 	bic.w	r5, r5, r7
 800d576:	e7b0      	b.n	800d4da <floor+0x42>
 800d578:	2500      	movs	r5, #0
 800d57a:	462c      	mov	r4, r5
 800d57c:	e7ad      	b.n	800d4da <floor+0x42>
 800d57e:	f04f 4400 	mov.w	r4, #2147483648	; 0x80000000
 800d582:	e7aa      	b.n	800d4da <floor+0x42>
 800d584:	f3af 8000 	nop.w
 800d588:	8800759c 	.word	0x8800759c
 800d58c:	7e37e43c 	.word	0x7e37e43c
 800d590:	bff00000 	.word	0xbff00000
 800d594:	000fffff 	.word	0x000fffff

0800d598 <malloc>:
 800d598:	4b02      	ldr	r3, [pc, #8]	; (800d5a4 <malloc+0xc>)
 800d59a:	4601      	mov	r1, r0
 800d59c:	6818      	ldr	r0, [r3, #0]
 800d59e:	f000 b82b 	b.w	800d5f8 <_malloc_r>
 800d5a2:	bf00      	nop
 800d5a4:	200001e4 	.word	0x200001e4

0800d5a8 <free>:
 800d5a8:	4b02      	ldr	r3, [pc, #8]	; (800d5b4 <free+0xc>)
 800d5aa:	4601      	mov	r1, r0
 800d5ac:	6818      	ldr	r0, [r3, #0]
 800d5ae:	f000 b921 	b.w	800d7f4 <_free_r>
 800d5b2:	bf00      	nop
 800d5b4:	200001e4 	.word	0x200001e4

0800d5b8 <sbrk_aligned>:
 800d5b8:	b570      	push	{r4, r5, r6, lr}
 800d5ba:	4e0e      	ldr	r6, [pc, #56]	; (800d5f4 <sbrk_aligned+0x3c>)
 800d5bc:	460c      	mov	r4, r1
 800d5be:	6831      	ldr	r1, [r6, #0]
 800d5c0:	4605      	mov	r5, r0
 800d5c2:	b911      	cbnz	r1, 800d5ca <sbrk_aligned+0x12>
 800d5c4:	f000 f8cc 	bl	800d760 <_sbrk_r>
 800d5c8:	6030      	str	r0, [r6, #0]
 800d5ca:	4621      	mov	r1, r4
 800d5cc:	4628      	mov	r0, r5
 800d5ce:	f000 f8c7 	bl	800d760 <_sbrk_r>
 800d5d2:	1c43      	adds	r3, r0, #1
 800d5d4:	d00a      	beq.n	800d5ec <sbrk_aligned+0x34>
 800d5d6:	1cc4      	adds	r4, r0, #3
 800d5d8:	f024 0403 	bic.w	r4, r4, #3
 800d5dc:	42a0      	cmp	r0, r4
 800d5de:	d007      	beq.n	800d5f0 <sbrk_aligned+0x38>
 800d5e0:	1a21      	subs	r1, r4, r0
 800d5e2:	4628      	mov	r0, r5
 800d5e4:	f000 f8bc 	bl	800d760 <_sbrk_r>
 800d5e8:	3001      	adds	r0, #1
 800d5ea:	d101      	bne.n	800d5f0 <sbrk_aligned+0x38>
 800d5ec:	f04f 34ff 	mov.w	r4, #4294967295
 800d5f0:	4620      	mov	r0, r4
 800d5f2:	bd70      	pop	{r4, r5, r6, pc}
 800d5f4:	20002930 	.word	0x20002930

0800d5f8 <_malloc_r>:
 800d5f8:	e92d 43f8 	stmdb	sp!, {r3, r4, r5, r6, r7, r8, r9, lr}
 800d5fc:	1ccd      	adds	r5, r1, #3
 800d5fe:	f025 0503 	bic.w	r5, r5, #3
 800d602:	3508      	adds	r5, #8
 800d604:	2d0c      	cmp	r5, #12
 800d606:	bf38      	it	cc
 800d608:	250c      	movcc	r5, #12
 800d60a:	2d00      	cmp	r5, #0
 800d60c:	4607      	mov	r7, r0
 800d60e:	db01      	blt.n	800d614 <_malloc_r+0x1c>
 800d610:	42a9      	cmp	r1, r5
 800d612:	d905      	bls.n	800d620 <_malloc_r+0x28>
 800d614:	230c      	movs	r3, #12
 800d616:	603b      	str	r3, [r7, #0]
 800d618:	2600      	movs	r6, #0
 800d61a:	4630      	mov	r0, r6
 800d61c:	e8bd 83f8 	ldmia.w	sp!, {r3, r4, r5, r6, r7, r8, r9, pc}
 800d620:	f8df 80d0 	ldr.w	r8, [pc, #208]	; 800d6f4 <_malloc_r+0xfc>
 800d624:	f000 f868 	bl	800d6f8 <__malloc_lock>
 800d628:	f8d8 3000 	ldr.w	r3, [r8]
 800d62c:	461c      	mov	r4, r3
 800d62e:	bb5c      	cbnz	r4, 800d688 <_malloc_r+0x90>
 800d630:	4629      	mov	r1, r5
 800d632:	4638      	mov	r0, r7
 800d634:	f7ff ffc0 	bl	800d5b8 <sbrk_aligned>
 800d638:	1c43      	adds	r3, r0, #1
 800d63a:	4604      	mov	r4, r0
 800d63c:	d155      	bne.n	800d6ea <_malloc_r+0xf2>
 800d63e:	f8d8 4000 	ldr.w	r4, [r8]
 800d642:	4626      	mov	r6, r4
 800d644:	2e00      	cmp	r6, #0
 800d646:	d145      	bne.n	800d6d4 <_malloc_r+0xdc>
 800d648:	2c00      	cmp	r4, #0
 800d64a:	d048      	beq.n	800d6de <_malloc_r+0xe6>
 800d64c:	6823      	ldr	r3, [r4, #0]
 800d64e:	4631      	mov	r1, r6
 800d650:	4638      	mov	r0, r7
 800d652:	eb04 0903 	add.w	r9, r4, r3
 800d656:	f000 f883 	bl	800d760 <_sbrk_r>
 800d65a:	4581      	cmp	r9, r0
 800d65c:	d13f      	bne.n	800d6de <_malloc_r+0xe6>
 800d65e:	6821      	ldr	r1, [r4, #0]
 800d660:	1a6d      	subs	r5, r5, r1
 800d662:	4629      	mov	r1, r5
 800d664:	4638      	mov	r0, r7
 800d666:	f7ff ffa7 	bl	800d5b8 <sbrk_aligned>
 800d66a:	3001      	adds	r0, #1
 800d66c:	d037      	beq.n	800d6de <_malloc_r+0xe6>
 800d66e:	6823      	ldr	r3, [r4, #0]
 800d670:	442b      	add	r3, r5
 800d672:	6023      	str	r3, [r4, #0]
 800d674:	f8d8 3000 	ldr.w	r3, [r8]
 800d678:	2b00      	cmp	r3, #0
 800d67a:	d038      	beq.n	800d6ee <_malloc_r+0xf6>
 800d67c:	685a      	ldr	r2, [r3, #4]
 800d67e:	42a2      	cmp	r2, r4
 800d680:	d12b      	bne.n	800d6da <_malloc_r+0xe2>
 800d682:	2200      	movs	r2, #0
 800d684:	605a      	str	r2, [r3, #4]
 800d686:	e00f      	b.n	800d6a8 <_malloc_r+0xb0>
 800d688:	6822      	ldr	r2, [r4, #0]
 800d68a:	1b52      	subs	r2, r2, r5
 800d68c:	d41f      	bmi.n	800d6ce <_malloc_r+0xd6>
 800d68e:	2a0b      	cmp	r2, #11
 800d690:	d917      	bls.n	800d6c2 <_malloc_r+0xca>
 800d692:	1961      	adds	r1, r4, r5
 800d694:	42a3      	cmp	r3, r4
 800d696:	6025      	str	r5, [r4, #0]
 800d698:	bf18      	it	ne
 800d69a:	6059      	strne	r1, [r3, #4]
 800d69c:	6863      	ldr	r3, [r4, #4]
 800d69e:	bf08      	it	eq
 800d6a0:	f8c8 1000 	streq.w	r1, [r8]
 800d6a4:	5162      	str	r2, [r4, r5]
 800d6a6:	604b      	str	r3, [r1, #4]
 800d6a8:	4638      	mov	r0, r7
 800d6aa:	f104 060b 	add.w	r6, r4, #11
 800d6ae:	f000 f829 	bl	800d704 <__malloc_unlock>
 800d6b2:	f026 0607 	bic.w	r6, r6, #7
 800d6b6:	1d23      	adds	r3, r4, #4
 800d6b8:	1af2      	subs	r2, r6, r3
 800d6ba:	d0ae      	beq.n	800d61a <_malloc_r+0x22>
 800d6bc:	1b9b      	subs	r3, r3, r6
 800d6be:	50a3      	str	r3, [r4, r2]
 800d6c0:	e7ab      	b.n	800d61a <_malloc_r+0x22>
 800d6c2:	42a3      	cmp	r3, r4
 800d6c4:	6862      	ldr	r2, [r4, #4]
 800d6c6:	d1dd      	bne.n	800d684 <_malloc_r+0x8c>
 800d6c8:	f8c8 2000 	str.w	r2, [r8]
 800d6cc:	e7ec      	b.n	800d6a8 <_malloc_r+0xb0>
 800d6ce:	4623      	mov	r3, r4
 800d6d0:	6864      	ldr	r4, [r4, #4]
 800d6d2:	e7ac      	b.n	800d62e <_malloc_r+0x36>
 800d6d4:	4634      	mov	r4, r6
 800d6d6:	6876      	ldr	r6, [r6, #4]
 800d6d8:	e7b4      	b.n	800d644 <_malloc_r+0x4c>
 800d6da:	4613      	mov	r3, r2
 800d6dc:	e7cc      	b.n	800d678 <_malloc_r+0x80>
 800d6de:	230c      	movs	r3, #12
 800d6e0:	603b      	str	r3, [r7, #0]
 800d6e2:	4638      	mov	r0, r7
 800d6e4:	f000 f80e 	bl	800d704 <__malloc_unlock>
 800d6e8:	e797      	b.n	800d61a <_malloc_r+0x22>
 800d6ea:	6025      	str	r5, [r4, #0]
 800d6ec:	e7dc      	b.n	800d6a8 <_malloc_r+0xb0>
 800d6ee:	605b      	str	r3, [r3, #4]
 800d6f0:	deff      	udf	#255	; 0xff
 800d6f2:	bf00      	nop
 800d6f4:	2000292c 	.word	0x2000292c

0800d6f8 <__malloc_lock>:
 800d6f8:	4801      	ldr	r0, [pc, #4]	; (800d700 <__malloc_lock+0x8>)
 800d6fa:	f000 b86b 	b.w	800d7d4 <__retarget_lock_acquire_recursive>
 800d6fe:	bf00      	nop
 800d700:	20002a70 	.word	0x20002a70

0800d704 <__malloc_unlock>:
 800d704:	4801      	ldr	r0, [pc, #4]	; (800d70c <__malloc_unlock+0x8>)
 800d706:	f000 b866 	b.w	800d7d6 <__retarget_lock_release_recursive>
 800d70a:	bf00      	nop
 800d70c:	20002a70 	.word	0x20002a70

0800d710 <siprintf>:
 800d710:	b40e      	push	{r1, r2, r3}
 800d712:	b500      	push	{lr}
 800d714:	b09c      	sub	sp, #112	; 0x70
 800d716:	ab1d      	add	r3, sp, #116	; 0x74
 800d718:	9002      	str	r0, [sp, #8]
 800d71a:	9006      	str	r0, [sp, #24]
 800d71c:	f06f 4100 	mvn.w	r1, #2147483648	; 0x80000000
 800d720:	4809      	ldr	r0, [pc, #36]	; (800d748 <siprintf+0x38>)
 800d722:	9107      	str	r1, [sp, #28]
 800d724:	9104      	str	r1, [sp, #16]
 800d726:	4909      	ldr	r1, [pc, #36]	; (800d74c <siprintf+0x3c>)
 800d728:	f853 2b04 	ldr.w	r2, [r3], #4
 800d72c:	9105      	str	r1, [sp, #20]
 800d72e:	6800      	ldr	r0, [r0, #0]
 800d730:	9301      	str	r3, [sp, #4]
 800d732:	a902      	add	r1, sp, #8
 800d734:	f000 f904 	bl	800d940 <_svfiprintf_r>
 800d738:	9b02      	ldr	r3, [sp, #8]
 800d73a:	2200      	movs	r2, #0
 800d73c:	701a      	strb	r2, [r3, #0]
 800d73e:	b01c      	add	sp, #112	; 0x70
 800d740:	f85d eb04 	ldr.w	lr, [sp], #4
 800d744:	b003      	add	sp, #12
 800d746:	4770      	bx	lr
 800d748:	200001e4 	.word	0x200001e4
 800d74c:	ffff0208 	.word	0xffff0208

0800d750 <memset>:
 800d750:	4402      	add	r2, r0
 800d752:	4603      	mov	r3, r0
 800d754:	4293      	cmp	r3, r2
 800d756:	d100      	bne.n	800d75a <memset+0xa>
 800d758:	4770      	bx	lr
 800d75a:	f803 1b01 	strb.w	r1, [r3], #1
 800d75e:	e7f9      	b.n	800d754 <memset+0x4>

0800d760 <_sbrk_r>:
 800d760:	b538      	push	{r3, r4, r5, lr}
 800d762:	4d06      	ldr	r5, [pc, #24]	; (800d77c <_sbrk_r+0x1c>)
 800d764:	2300      	movs	r3, #0
 800d766:	4604      	mov	r4, r0
 800d768:	4608      	mov	r0, r1
 800d76a:	602b      	str	r3, [r5, #0]
 800d76c:	f7f8 fdc0 	bl	80062f0 <_sbrk>
 800d770:	1c43      	adds	r3, r0, #1
 800d772:	d102      	bne.n	800d77a <_sbrk_r+0x1a>
 800d774:	682b      	ldr	r3, [r5, #0]
 800d776:	b103      	cbz	r3, 800d77a <_sbrk_r+0x1a>
 800d778:	6023      	str	r3, [r4, #0]
 800d77a:	bd38      	pop	{r3, r4, r5, pc}
 800d77c:	20002a6c 	.word	0x20002a6c

0800d780 <__errno>:
 800d780:	4b01      	ldr	r3, [pc, #4]	; (800d788 <__errno+0x8>)
 800d782:	6818      	ldr	r0, [r3, #0]
 800d784:	4770      	bx	lr
 800d786:	bf00      	nop
 800d788:	200001e4 	.word	0x200001e4

0800d78c <__libc_init_array>:
 800d78c:	b570      	push	{r4, r5, r6, lr}
 800d78e:	4d0d      	ldr	r5, [pc, #52]	; (800d7c4 <__libc_init_array+0x38>)
 800d790:	4c0d      	ldr	r4, [pc, #52]	; (800d7c8 <__libc_init_array+0x3c>)
 800d792:	1b64      	subs	r4, r4, r5
 800d794:	10a4      	asrs	r4, r4, #2
 800d796:	2600      	movs	r6, #0
 800d798:	42a6      	cmp	r6, r4
 800d79a:	d109      	bne.n	800d7b0 <__libc_init_array+0x24>
 800d79c:	4d0b      	ldr	r5, [pc, #44]	; (800d7cc <__libc_init_array+0x40>)
 800d79e:	4c0c      	ldr	r4, [pc, #48]	; (800d7d0 <__libc_init_array+0x44>)
 800d7a0:	f000 fbae 	bl	800df00 <_init>
 800d7a4:	1b64      	subs	r4, r4, r5
 800d7a6:	10a4      	asrs	r4, r4, #2
 800d7a8:	2600      	movs	r6, #0
 800d7aa:	42a6      	cmp	r6, r4
 800d7ac:	d105      	bne.n	800d7ba <__libc_init_array+0x2e>
 800d7ae:	bd70      	pop	{r4, r5, r6, pc}
 800d7b0:	f855 3b04 	ldr.w	r3, [r5], #4
 800d7b4:	4798      	blx	r3
 800d7b6:	3601      	adds	r6, #1
 800d7b8:	e7ee      	b.n	800d798 <__libc_init_array+0xc>
 800d7ba:	f855 3b04 	ldr.w	r3, [r5], #4
 800d7be:	4798      	blx	r3
 800d7c0:	3601      	adds	r6, #1
 800d7c2:	e7f2      	b.n	800d7aa <__libc_init_array+0x1e>
 800d7c4:	0800e490 	.word	0x0800e490
 800d7c8:	0800e490 	.word	0x0800e490
 800d7cc:	0800e490 	.word	0x0800e490
 800d7d0:	0800e494 	.word	0x0800e494

0800d7d4 <__retarget_lock_acquire_recursive>:
 800d7d4:	4770      	bx	lr

0800d7d6 <__retarget_lock_release_recursive>:
 800d7d6:	4770      	bx	lr

0800d7d8 <memcpy>:
 800d7d8:	440a      	add	r2, r1
 800d7da:	4291      	cmp	r1, r2
 800d7dc:	f100 33ff 	add.w	r3, r0, #4294967295
 800d7e0:	d100      	bne.n	800d7e4 <memcpy+0xc>
 800d7e2:	4770      	bx	lr
 800d7e4:	b510      	push	{r4, lr}
 800d7e6:	f811 4b01 	ldrb.w	r4, [r1], #1
 800d7ea:	f803 4f01 	strb.w	r4, [r3, #1]!
 800d7ee:	4291      	cmp	r1, r2
 800d7f0:	d1f9      	bne.n	800d7e6 <memcpy+0xe>
 800d7f2:	bd10      	pop	{r4, pc}

0800d7f4 <_free_r>:
 800d7f4:	b537      	push	{r0, r1, r2, r4, r5, lr}
 800d7f6:	2900      	cmp	r1, #0
 800d7f8:	d044      	beq.n	800d884 <_free_r+0x90>
 800d7fa:	f851 3c04 	ldr.w	r3, [r1, #-4]
 800d7fe:	9001      	str	r0, [sp, #4]
 800d800:	2b00      	cmp	r3, #0
 800d802:	f1a1 0404 	sub.w	r4, r1, #4
 800d806:	bfb8      	it	lt
 800d808:	18e4      	addlt	r4, r4, r3
 800d80a:	f7ff ff75 	bl	800d6f8 <__malloc_lock>
 800d80e:	4a1e      	ldr	r2, [pc, #120]	; (800d888 <_free_r+0x94>)
 800d810:	9801      	ldr	r0, [sp, #4]
 800d812:	6813      	ldr	r3, [r2, #0]
 800d814:	b933      	cbnz	r3, 800d824 <_free_r+0x30>
 800d816:	6063      	str	r3, [r4, #4]
 800d818:	6014      	str	r4, [r2, #0]
 800d81a:	b003      	add	sp, #12
 800d81c:	e8bd 4030 	ldmia.w	sp!, {r4, r5, lr}
 800d820:	f7ff bf70 	b.w	800d704 <__malloc_unlock>
 800d824:	42a3      	cmp	r3, r4
 800d826:	d908      	bls.n	800d83a <_free_r+0x46>
 800d828:	6825      	ldr	r5, [r4, #0]
 800d82a:	1961      	adds	r1, r4, r5
 800d82c:	428b      	cmp	r3, r1
 800d82e:	bf01      	itttt	eq
 800d830:	6819      	ldreq	r1, [r3, #0]
 800d832:	685b      	ldreq	r3, [r3, #4]
 800d834:	1949      	addeq	r1, r1, r5
 800d836:	6021      	streq	r1, [r4, #0]
 800d838:	e7ed      	b.n	800d816 <_free_r+0x22>
 800d83a:	461a      	mov	r2, r3
 800d83c:	685b      	ldr	r3, [r3, #4]
 800d83e:	b10b      	cbz	r3, 800d844 <_free_r+0x50>
 800d840:	42a3      	cmp	r3, r4
 800d842:	d9fa      	bls.n	800d83a <_free_r+0x46>
 800d844:	6811      	ldr	r1, [r2, #0]
 800d846:	1855      	adds	r5, r2, r1
 800d848:	42a5      	cmp	r5, r4
 800d84a:	d10b      	bne.n	800d864 <_free_r+0x70>
 800d84c:	6824      	ldr	r4, [r4, #0]
 800d84e:	4421      	add	r1, r4
 800d850:	1854      	adds	r4, r2, r1
 800d852:	42a3      	cmp	r3, r4
 800d854:	6011      	str	r1, [r2, #0]
 800d856:	d1e0      	bne.n	800d81a <_free_r+0x26>
 800d858:	681c      	ldr	r4, [r3, #0]
 800d85a:	685b      	ldr	r3, [r3, #4]
 800d85c:	6053      	str	r3, [r2, #4]
 800d85e:	440c      	add	r4, r1
 800d860:	6014      	str	r4, [r2, #0]
 800d862:	e7da      	b.n	800d81a <_free_r+0x26>
 800d864:	d902      	bls.n	800d86c <_free_r+0x78>
 800d866:	230c      	movs	r3, #12
 800d868:	6003      	str	r3, [r0, #0]
 800d86a:	e7d6      	b.n	800d81a <_free_r+0x26>
 800d86c:	6825      	ldr	r5, [r4, #0]
 800d86e:	1961      	adds	r1, r4, r5
 800d870:	428b      	cmp	r3, r1
 800d872:	bf04      	itt	eq
 800d874:	6819      	ldreq	r1, [r3, #0]
 800d876:	685b      	ldreq	r3, [r3, #4]
 800d878:	6063      	str	r3, [r4, #4]
 800d87a:	bf04      	itt	eq
 800d87c:	1949      	addeq	r1, r1, r5
 800d87e:	6021      	streq	r1, [r4, #0]
 800d880:	6054      	str	r4, [r2, #4]
 800d882:	e7ca      	b.n	800d81a <_free_r+0x26>
 800d884:	b003      	add	sp, #12
 800d886:	bd30      	pop	{r4, r5, pc}
 800d888:	2000292c 	.word	0x2000292c

0800d88c <__ssputs_r>:
 800d88c:	e92d 47f0 	stmdb	sp!, {r4, r5, r6, r7, r8, r9, sl, lr}
 800d890:	688e      	ldr	r6, [r1, #8]
 800d892:	461f      	mov	r7, r3
 800d894:	42be      	cmp	r6, r7
 800d896:	680b      	ldr	r3, [r1, #0]
 800d898:	4682      	mov	sl, r0
 800d89a:	460c      	mov	r4, r1
 800d89c:	4690      	mov	r8, r2
 800d89e:	d82c      	bhi.n	800d8fa <__ssputs_r+0x6e>
 800d8a0:	898a      	ldrh	r2, [r1, #12]
 800d8a2:	f412 6f90 	tst.w	r2, #1152	; 0x480
 800d8a6:	d026      	beq.n	800d8f6 <__ssputs_r+0x6a>
 800d8a8:	6965      	ldr	r5, [r4, #20]
 800d8aa:	6909      	ldr	r1, [r1, #16]
 800d8ac:	eb05 0545 	add.w	r5, r5, r5, lsl #1
 800d8b0:	eba3 0901 	sub.w	r9, r3, r1
 800d8b4:	eb05 75d5 	add.w	r5, r5, r5, lsr #31
 800d8b8:	1c7b      	adds	r3, r7, #1
 800d8ba:	444b      	add	r3, r9
 800d8bc:	106d      	asrs	r5, r5, #1
 800d8be:	429d      	cmp	r5, r3
 800d8c0:	bf38      	it	cc
 800d8c2:	461d      	movcc	r5, r3
 800d8c4:	0553      	lsls	r3, r2, #21
 800d8c6:	d527      	bpl.n	800d918 <__ssputs_r+0x8c>
 800d8c8:	4629      	mov	r1, r5
 800d8ca:	f7ff fe95 	bl	800d5f8 <_malloc_r>
 800d8ce:	4606      	mov	r6, r0
 800d8d0:	b360      	cbz	r0, 800d92c <__ssputs_r+0xa0>
 800d8d2:	6921      	ldr	r1, [r4, #16]
 800d8d4:	464a      	mov	r2, r9
 800d8d6:	f7ff ff7f 	bl	800d7d8 <memcpy>
 800d8da:	89a3      	ldrh	r3, [r4, #12]
 800d8dc:	f423 6390 	bic.w	r3, r3, #1152	; 0x480
 800d8e0:	f043 0380 	orr.w	r3, r3, #128	; 0x80
 800d8e4:	81a3      	strh	r3, [r4, #12]
 800d8e6:	6126      	str	r6, [r4, #16]
 800d8e8:	6165      	str	r5, [r4, #20]
 800d8ea:	444e      	add	r6, r9
 800d8ec:	eba5 0509 	sub.w	r5, r5, r9
 800d8f0:	6026      	str	r6, [r4, #0]
 800d8f2:	60a5      	str	r5, [r4, #8]
 800d8f4:	463e      	mov	r6, r7
 800d8f6:	42be      	cmp	r6, r7
 800d8f8:	d900      	bls.n	800d8fc <__ssputs_r+0x70>
 800d8fa:	463e      	mov	r6, r7
 800d8fc:	6820      	ldr	r0, [r4, #0]
 800d8fe:	4632      	mov	r2, r6
 800d900:	4641      	mov	r1, r8
 800d902:	f000 faab 	bl	800de5c <memmove>
 800d906:	68a3      	ldr	r3, [r4, #8]
 800d908:	1b9b      	subs	r3, r3, r6
 800d90a:	60a3      	str	r3, [r4, #8]
 800d90c:	6823      	ldr	r3, [r4, #0]
 800d90e:	4433      	add	r3, r6
 800d910:	6023      	str	r3, [r4, #0]
 800d912:	2000      	movs	r0, #0
 800d914:	e8bd 87f0 	ldmia.w	sp!, {r4, r5, r6, r7, r8, r9, sl, pc}
 800d918:	462a      	mov	r2, r5
 800d91a:	f000 fab9 	bl	800de90 <_realloc_r>
 800d91e:	4606      	mov	r6, r0
 800d920:	2800      	cmp	r0, #0
 800d922:	d1e0      	bne.n	800d8e6 <__ssputs_r+0x5a>
 800d924:	6921      	ldr	r1, [r4, #16]
 800d926:	4650      	mov	r0, sl
 800d928:	f7ff ff64 	bl	800d7f4 <_free_r>
 800d92c:	230c      	movs	r3, #12
 800d92e:	f8ca 3000 	str.w	r3, [sl]
 800d932:	89a3      	ldrh	r3, [r4, #12]
 800d934:	f043 0340 	orr.w	r3, r3, #64	; 0x40
 800d938:	81a3      	strh	r3, [r4, #12]
 800d93a:	f04f 30ff 	mov.w	r0, #4294967295
 800d93e:	e7e9      	b.n	800d914 <__ssputs_r+0x88>

0800d940 <_svfiprintf_r>:
 800d940:	e92d 4ff0 	stmdb	sp!, {r4, r5, r6, r7, r8, r9, sl, fp, lr}
 800d944:	4698      	mov	r8, r3
 800d946:	898b      	ldrh	r3, [r1, #12]
 800d948:	061b      	lsls	r3, r3, #24
 800d94a:	b09d      	sub	sp, #116	; 0x74
 800d94c:	4607      	mov	r7, r0
 800d94e:	460d      	mov	r5, r1
 800d950:	4614      	mov	r4, r2
 800d952:	d50e      	bpl.n	800d972 <_svfiprintf_r+0x32>
 800d954:	690b      	ldr	r3, [r1, #16]
 800d956:	b963      	cbnz	r3, 800d972 <_svfiprintf_r+0x32>
 800d958:	2140      	movs	r1, #64	; 0x40
 800d95a:	f7ff fe4d 	bl	800d5f8 <_malloc_r>
 800d95e:	6028      	str	r0, [r5, #0]
 800d960:	6128      	str	r0, [r5, #16]
 800d962:	b920      	cbnz	r0, 800d96e <_svfiprintf_r+0x2e>
 800d964:	230c      	movs	r3, #12
 800d966:	603b      	str	r3, [r7, #0]
 800d968:	f04f 30ff 	mov.w	r0, #4294967295
 800d96c:	e0d0      	b.n	800db10 <_svfiprintf_r+0x1d0>
 800d96e:	2340      	movs	r3, #64	; 0x40
 800d970:	616b      	str	r3, [r5, #20]
 800d972:	2300      	movs	r3, #0
 800d974:	9309      	str	r3, [sp, #36]	; 0x24
 800d976:	2320      	movs	r3, #32
 800d978:	f88d 3029 	strb.w	r3, [sp, #41]	; 0x29
 800d97c:	f8cd 800c 	str.w	r8, [sp, #12]
 800d980:	2330      	movs	r3, #48	; 0x30
 800d982:	f8df 81a4 	ldr.w	r8, [pc, #420]	; 800db28 <_svfiprintf_r+0x1e8>
 800d986:	f88d 302a 	strb.w	r3, [sp, #42]	; 0x2a
 800d98a:	f04f 0901 	mov.w	r9, #1
 800d98e:	4623      	mov	r3, r4
 800d990:	469a      	mov	sl, r3
 800d992:	f813 2b01 	ldrb.w	r2, [r3], #1
 800d996:	b10a      	cbz	r2, 800d99c <_svfiprintf_r+0x5c>
 800d998:	2a25      	cmp	r2, #37	; 0x25
 800d99a:	d1f9      	bne.n	800d990 <_svfiprintf_r+0x50>
 800d99c:	ebba 0b04 	subs.w	fp, sl, r4
 800d9a0:	d00b      	beq.n	800d9ba <_svfiprintf_r+0x7a>
 800d9a2:	465b      	mov	r3, fp
 800d9a4:	4622      	mov	r2, r4
 800d9a6:	4629      	mov	r1, r5
 800d9a8:	4638      	mov	r0, r7
 800d9aa:	f7ff ff6f 	bl	800d88c <__ssputs_r>
 800d9ae:	3001      	adds	r0, #1
 800d9b0:	f000 80a9 	beq.w	800db06 <_svfiprintf_r+0x1c6>
 800d9b4:	9a09      	ldr	r2, [sp, #36]	; 0x24
 800d9b6:	445a      	add	r2, fp
 800d9b8:	9209      	str	r2, [sp, #36]	; 0x24
 800d9ba:	f89a 3000 	ldrb.w	r3, [sl]
 800d9be:	2b00      	cmp	r3, #0
 800d9c0:	f000 80a1 	beq.w	800db06 <_svfiprintf_r+0x1c6>
 800d9c4:	2300      	movs	r3, #0
 800d9c6:	f04f 32ff 	mov.w	r2, #4294967295
 800d9ca:	e9cd 2305 	strd	r2, r3, [sp, #20]
 800d9ce:	f10a 0a01 	add.w	sl, sl, #1
 800d9d2:	9304      	str	r3, [sp, #16]
 800d9d4:	9307      	str	r3, [sp, #28]
 800d9d6:	f88d 3053 	strb.w	r3, [sp, #83]	; 0x53
 800d9da:	931a      	str	r3, [sp, #104]	; 0x68
 800d9dc:	4654      	mov	r4, sl
 800d9de:	2205      	movs	r2, #5
 800d9e0:	f814 1b01 	ldrb.w	r1, [r4], #1
 800d9e4:	4850      	ldr	r0, [pc, #320]	; (800db28 <_svfiprintf_r+0x1e8>)
 800d9e6:	f7f6 fbf3 	bl	80041d0 <memchr>
 800d9ea:	9a04      	ldr	r2, [sp, #16]
 800d9ec:	b9d8      	cbnz	r0, 800da26 <_svfiprintf_r+0xe6>
 800d9ee:	06d0      	lsls	r0, r2, #27
 800d9f0:	bf44      	itt	mi
 800d9f2:	2320      	movmi	r3, #32
 800d9f4:	f88d 3053 	strbmi.w	r3, [sp, #83]	; 0x53
 800d9f8:	0711      	lsls	r1, r2, #28
 800d9fa:	bf44      	itt	mi
 800d9fc:	232b      	movmi	r3, #43	; 0x2b
 800d9fe:	f88d 3053 	strbmi.w	r3, [sp, #83]	; 0x53
 800da02:	f89a 3000 	ldrb.w	r3, [sl]
 800da06:	2b2a      	cmp	r3, #42	; 0x2a
 800da08:	d015      	beq.n	800da36 <_svfiprintf_r+0xf6>
 800da0a:	9a07      	ldr	r2, [sp, #28]
 800da0c:	4654      	mov	r4, sl
 800da0e:	2000      	movs	r0, #0
 800da10:	f04f 0c0a 	mov.w	ip, #10
 800da14:	4621      	mov	r1, r4
 800da16:	f811 3b01 	ldrb.w	r3, [r1], #1
 800da1a:	3b30      	subs	r3, #48	; 0x30
 800da1c:	2b09      	cmp	r3, #9
 800da1e:	d94d      	bls.n	800dabc <_svfiprintf_r+0x17c>
 800da20:	b1b0      	cbz	r0, 800da50 <_svfiprintf_r+0x110>
 800da22:	9207      	str	r2, [sp, #28]
 800da24:	e014      	b.n	800da50 <_svfiprintf_r+0x110>
 800da26:	eba0 0308 	sub.w	r3, r0, r8
 800da2a:	fa09 f303 	lsl.w	r3, r9, r3
 800da2e:	4313      	orrs	r3, r2
 800da30:	9304      	str	r3, [sp, #16]
 800da32:	46a2      	mov	sl, r4
 800da34:	e7d2      	b.n	800d9dc <_svfiprintf_r+0x9c>
 800da36:	9b03      	ldr	r3, [sp, #12]
 800da38:	1d19      	adds	r1, r3, #4
 800da3a:	681b      	ldr	r3, [r3, #0]
 800da3c:	9103      	str	r1, [sp, #12]
 800da3e:	2b00      	cmp	r3, #0
 800da40:	bfbb      	ittet	lt
 800da42:	425b      	neglt	r3, r3
 800da44:	f042 0202 	orrlt.w	r2, r2, #2
 800da48:	9307      	strge	r3, [sp, #28]
 800da4a:	9307      	strlt	r3, [sp, #28]
 800da4c:	bfb8      	it	lt
 800da4e:	9204      	strlt	r2, [sp, #16]
 800da50:	7823      	ldrb	r3, [r4, #0]
 800da52:	2b2e      	cmp	r3, #46	; 0x2e
 800da54:	d10c      	bne.n	800da70 <_svfiprintf_r+0x130>
 800da56:	7863      	ldrb	r3, [r4, #1]
 800da58:	2b2a      	cmp	r3, #42	; 0x2a
 800da5a:	d134      	bne.n	800dac6 <_svfiprintf_r+0x186>
 800da5c:	9b03      	ldr	r3, [sp, #12]
 800da5e:	1d1a      	adds	r2, r3, #4
 800da60:	681b      	ldr	r3, [r3, #0]
 800da62:	9203      	str	r2, [sp, #12]
 800da64:	2b00      	cmp	r3, #0
 800da66:	bfb8      	it	lt
 800da68:	f04f 33ff 	movlt.w	r3, #4294967295
 800da6c:	3402      	adds	r4, #2
 800da6e:	9305      	str	r3, [sp, #20]
 800da70:	f8df a0c4 	ldr.w	sl, [pc, #196]	; 800db38 <_svfiprintf_r+0x1f8>
 800da74:	7821      	ldrb	r1, [r4, #0]
 800da76:	2203      	movs	r2, #3
 800da78:	4650      	mov	r0, sl
 800da7a:	f7f6 fba9 	bl	80041d0 <memchr>
 800da7e:	b138      	cbz	r0, 800da90 <_svfiprintf_r+0x150>
 800da80:	9b04      	ldr	r3, [sp, #16]
 800da82:	eba0 000a 	sub.w	r0, r0, sl
 800da86:	2240      	movs	r2, #64	; 0x40
 800da88:	4082      	lsls	r2, r0
 800da8a:	4313      	orrs	r3, r2
 800da8c:	3401      	adds	r4, #1
 800da8e:	9304      	str	r3, [sp, #16]
 800da90:	f814 1b01 	ldrb.w	r1, [r4], #1
 800da94:	4825      	ldr	r0, [pc, #148]	; (800db2c <_svfiprintf_r+0x1ec>)
 800da96:	f88d 1028 	strb.w	r1, [sp, #40]	; 0x28
 800da9a:	2206      	movs	r2, #6
 800da9c:	f7f6 fb98 	bl	80041d0 <memchr>
 800daa0:	2800      	cmp	r0, #0
 800daa2:	d038      	beq.n	800db16 <_svfiprintf_r+0x1d6>
 800daa4:	4b22      	ldr	r3, [pc, #136]	; (800db30 <_svfiprintf_r+0x1f0>)
 800daa6:	bb1b      	cbnz	r3, 800daf0 <_svfiprintf_r+0x1b0>
 800daa8:	9b03      	ldr	r3, [sp, #12]
 800daaa:	3307      	adds	r3, #7
 800daac:	f023 0307 	bic.w	r3, r3, #7
 800dab0:	3308      	adds	r3, #8
 800dab2:	9303      	str	r3, [sp, #12]
 800dab4:	9b09      	ldr	r3, [sp, #36]	; 0x24
 800dab6:	4433      	add	r3, r6
 800dab8:	9309      	str	r3, [sp, #36]	; 0x24
 800daba:	e768      	b.n	800d98e <_svfiprintf_r+0x4e>
 800dabc:	fb0c 3202 	mla	r2, ip, r2, r3
 800dac0:	460c      	mov	r4, r1
 800dac2:	2001      	movs	r0, #1
 800dac4:	e7a6      	b.n	800da14 <_svfiprintf_r+0xd4>
 800dac6:	2300      	movs	r3, #0
 800dac8:	3401      	adds	r4, #1
 800daca:	9305      	str	r3, [sp, #20]
 800dacc:	4619      	mov	r1, r3
 800dace:	f04f 0c0a 	mov.w	ip, #10
 800dad2:	4620      	mov	r0, r4
 800dad4:	f810 2b01 	ldrb.w	r2, [r0], #1
 800dad8:	3a30      	subs	r2, #48	; 0x30
 800dada:	2a09      	cmp	r2, #9
 800dadc:	d903      	bls.n	800dae6 <_svfiprintf_r+0x1a6>
 800dade:	2b00      	cmp	r3, #0
 800dae0:	d0c6      	beq.n	800da70 <_svfiprintf_r+0x130>
 800dae2:	9105      	str	r1, [sp, #20]
 800dae4:	e7c4      	b.n	800da70 <_svfiprintf_r+0x130>
 800dae6:	fb0c 2101 	mla	r1, ip, r1, r2
 800daea:	4604      	mov	r4, r0
 800daec:	2301      	movs	r3, #1
 800daee:	e7f0      	b.n	800dad2 <_svfiprintf_r+0x192>
 800daf0:	ab03      	add	r3, sp, #12
 800daf2:	9300      	str	r3, [sp, #0]
 800daf4:	462a      	mov	r2, r5
 800daf6:	4b0f      	ldr	r3, [pc, #60]	; (800db34 <_svfiprintf_r+0x1f4>)
 800daf8:	a904      	add	r1, sp, #16
 800dafa:	4638      	mov	r0, r7
 800dafc:	f3af 8000 	nop.w
 800db00:	1c42      	adds	r2, r0, #1
 800db02:	4606      	mov	r6, r0
 800db04:	d1d6      	bne.n	800dab4 <_svfiprintf_r+0x174>
 800db06:	89ab      	ldrh	r3, [r5, #12]
 800db08:	065b      	lsls	r3, r3, #25
 800db0a:	f53f af2d 	bmi.w	800d968 <_svfiprintf_r+0x28>
 800db0e:	9809      	ldr	r0, [sp, #36]	; 0x24
 800db10:	b01d      	add	sp, #116	; 0x74
 800db12:	e8bd 8ff0 	ldmia.w	sp!, {r4, r5, r6, r7, r8, r9, sl, fp, pc}
 800db16:	ab03      	add	r3, sp, #12
 800db18:	9300      	str	r3, [sp, #0]
 800db1a:	462a      	mov	r2, r5
 800db1c:	4b05      	ldr	r3, [pc, #20]	; (800db34 <_svfiprintf_r+0x1f4>)
 800db1e:	a904      	add	r1, sp, #16
 800db20:	4638      	mov	r0, r7
 800db22:	f000 f879 	bl	800dc18 <_printf_i>
 800db26:	e7eb      	b.n	800db00 <_svfiprintf_r+0x1c0>
 800db28:	0800e458 	.word	0x0800e458
 800db2c:	0800e462 	.word	0x0800e462
 800db30:	00000000 	.word	0x00000000
 800db34:	0800d88d 	.word	0x0800d88d
 800db38:	0800e45e 	.word	0x0800e45e

0800db3c <_printf_common>:
 800db3c:	e92d 47f0 	stmdb	sp!, {r4, r5, r6, r7, r8, r9, sl, lr}
 800db40:	4616      	mov	r6, r2
 800db42:	4699      	mov	r9, r3
 800db44:	688a      	ldr	r2, [r1, #8]
 800db46:	690b      	ldr	r3, [r1, #16]
 800db48:	f8dd 8020 	ldr.w	r8, [sp, #32]
 800db4c:	4293      	cmp	r3, r2
 800db4e:	bfb8      	it	lt
 800db50:	4613      	movlt	r3, r2
 800db52:	6033      	str	r3, [r6, #0]
 800db54:	f891 2043 	ldrb.w	r2, [r1, #67]	; 0x43
 800db58:	4607      	mov	r7, r0
 800db5a:	460c      	mov	r4, r1
 800db5c:	b10a      	cbz	r2, 800db62 <_printf_common+0x26>
 800db5e:	3301      	adds	r3, #1
 800db60:	6033      	str	r3, [r6, #0]
 800db62:	6823      	ldr	r3, [r4, #0]
 800db64:	0699      	lsls	r1, r3, #26
 800db66:	bf42      	ittt	mi
 800db68:	6833      	ldrmi	r3, [r6, #0]
 800db6a:	3302      	addmi	r3, #2
 800db6c:	6033      	strmi	r3, [r6, #0]
 800db6e:	6825      	ldr	r5, [r4, #0]
 800db70:	f015 0506 	ands.w	r5, r5, #6
 800db74:	d106      	bne.n	800db84 <_printf_common+0x48>
 800db76:	f104 0a19 	add.w	sl, r4, #25
 800db7a:	68e3      	ldr	r3, [r4, #12]
 800db7c:	6832      	ldr	r2, [r6, #0]
 800db7e:	1a9b      	subs	r3, r3, r2
 800db80:	42ab      	cmp	r3, r5
 800db82:	dc26      	bgt.n	800dbd2 <_printf_common+0x96>
 800db84:	f894 2043 	ldrb.w	r2, [r4, #67]	; 0x43
 800db88:	1e13      	subs	r3, r2, #0
 800db8a:	6822      	ldr	r2, [r4, #0]
 800db8c:	bf18      	it	ne
 800db8e:	2301      	movne	r3, #1
 800db90:	0692      	lsls	r2, r2, #26
 800db92:	d42b      	bmi.n	800dbec <_printf_common+0xb0>
 800db94:	f104 0243 	add.w	r2, r4, #67	; 0x43
 800db98:	4649      	mov	r1, r9
 800db9a:	4638      	mov	r0, r7
 800db9c:	47c0      	blx	r8
 800db9e:	3001      	adds	r0, #1
 800dba0:	d01e      	beq.n	800dbe0 <_printf_common+0xa4>
 800dba2:	6823      	ldr	r3, [r4, #0]
 800dba4:	6922      	ldr	r2, [r4, #16]
 800dba6:	f003 0306 	and.w	r3, r3, #6
 800dbaa:	2b04      	cmp	r3, #4
 800dbac:	bf02      	ittt	eq
 800dbae:	68e5      	ldreq	r5, [r4, #12]
 800dbb0:	6833      	ldreq	r3, [r6, #0]
 800dbb2:	1aed      	subeq	r5, r5, r3
 800dbb4:	68a3      	ldr	r3, [r4, #8]
 800dbb6:	bf0c      	ite	eq
 800dbb8:	ea25 75e5 	biceq.w	r5, r5, r5, asr #31
 800dbbc:	2500      	movne	r5, #0
 800dbbe:	4293      	cmp	r3, r2
 800dbc0:	bfc4      	itt	gt
 800dbc2:	1a9b      	subgt	r3, r3, r2
 800dbc4:	18ed      	addgt	r5, r5, r3
 800dbc6:	2600      	movs	r6, #0
 800dbc8:	341a      	adds	r4, #26
 800dbca:	42b5      	cmp	r5, r6
 800dbcc:	d11a      	bne.n	800dc04 <_printf_common+0xc8>
 800dbce:	2000      	movs	r0, #0
 800dbd0:	e008      	b.n	800dbe4 <_printf_common+0xa8>
 800dbd2:	2301      	movs	r3, #1
 800dbd4:	4652      	mov	r2, sl
 800dbd6:	4649      	mov	r1, r9
 800dbd8:	4638      	mov	r0, r7
 800dbda:	47c0      	blx	r8
 800dbdc:	3001      	adds	r0, #1
 800dbde:	d103      	bne.n	800dbe8 <_printf_common+0xac>
 800dbe0:	f04f 30ff 	mov.w	r0, #4294967295
 800dbe4:	e8bd 87f0 	ldmia.w	sp!, {r4, r5, r6, r7, r8, r9, sl, pc}
 800dbe8:	3501      	adds	r5, #1
 800dbea:	e7c6      	b.n	800db7a <_printf_common+0x3e>
 800dbec:	18e1      	adds	r1, r4, r3
 800dbee:	1c5a      	adds	r2, r3, #1
 800dbf0:	2030      	movs	r0, #48	; 0x30
 800dbf2:	f881 0043 	strb.w	r0, [r1, #67]	; 0x43
 800dbf6:	4422      	add	r2, r4
 800dbf8:	f894 1045 	ldrb.w	r1, [r4, #69]	; 0x45
 800dbfc:	f882 1043 	strb.w	r1, [r2, #67]	; 0x43
 800dc00:	3302      	adds	r3, #2
 800dc02:	e7c7      	b.n	800db94 <_printf_common+0x58>
 800dc04:	2301      	movs	r3, #1
 800dc06:	4622      	mov	r2, r4
 800dc08:	4649      	mov	r1, r9
 800dc0a:	4638      	mov	r0, r7
 800dc0c:	47c0      	blx	r8
 800dc0e:	3001      	adds	r0, #1
 800dc10:	d0e6      	beq.n	800dbe0 <_printf_common+0xa4>
 800dc12:	3601      	adds	r6, #1
 800dc14:	e7d9      	b.n	800dbca <_printf_common+0x8e>
	...

0800dc18 <_printf_i>:
 800dc18:	e92d 47ff 	stmdb	sp!, {r0, r1, r2, r3, r4, r5, r6, r7, r8, r9, sl, lr}
 800dc1c:	7e0f      	ldrb	r7, [r1, #24]
 800dc1e:	9d0c      	ldr	r5, [sp, #48]	; 0x30
 800dc20:	2f78      	cmp	r7, #120	; 0x78
 800dc22:	4691      	mov	r9, r2
 800dc24:	4680      	mov	r8, r0
 800dc26:	460c      	mov	r4, r1
 800dc28:	469a      	mov	sl, r3
 800dc2a:	f101 0243 	add.w	r2, r1, #67	; 0x43
 800dc2e:	d807      	bhi.n	800dc40 <_printf_i+0x28>
 800dc30:	2f62      	cmp	r7, #98	; 0x62
 800dc32:	d80a      	bhi.n	800dc4a <_printf_i+0x32>
 800dc34:	2f00      	cmp	r7, #0
 800dc36:	f000 80d4 	beq.w	800dde2 <_printf_i+0x1ca>
 800dc3a:	2f58      	cmp	r7, #88	; 0x58
 800dc3c:	f000 80c0 	beq.w	800ddc0 <_printf_i+0x1a8>
 800dc40:	f104 0542 	add.w	r5, r4, #66	; 0x42
 800dc44:	f884 7042 	strb.w	r7, [r4, #66]	; 0x42
 800dc48:	e03a      	b.n	800dcc0 <_printf_i+0xa8>
 800dc4a:	f1a7 0363 	sub.w	r3, r7, #99	; 0x63
 800dc4e:	2b15      	cmp	r3, #21
 800dc50:	d8f6      	bhi.n	800dc40 <_printf_i+0x28>
 800dc52:	a101      	add	r1, pc, #4	; (adr r1, 800dc58 <_printf_i+0x40>)
 800dc54:	f851 f023 	ldr.w	pc, [r1, r3, lsl #2]
 800dc58:	0800dcb1 	.word	0x0800dcb1
 800dc5c:	0800dcc5 	.word	0x0800dcc5
 800dc60:	0800dc41 	.word	0x0800dc41
 800dc64:	0800dc41 	.word	0x0800dc41
 800dc68:	0800dc41 	.word	0x0800dc41
 800dc6c:	0800dc41 	.word	0x0800dc41
 800dc70:	0800dcc5 	.word	0x0800dcc5
 800dc74:	0800dc41 	.word	0x0800dc41
 800dc78:	0800dc41 	.word	0x0800dc41
 800dc7c:	0800dc41 	.word	0x0800dc41
 800dc80:	0800dc41 	.word	0x0800dc41
 800dc84:	0800ddc9 	.word	0x0800ddc9
 800dc88:	0800dcf1 	.word	0x0800dcf1
 800dc8c:	0800dd83 	.word	0x0800dd83
 800dc90:	0800dc41 	.word	0x0800dc41
 800dc94:	0800dc41 	.word	0x0800dc41
 800dc98:	0800ddeb 	.word	0x0800ddeb
 800dc9c:	0800dc41 	.word	0x0800dc41
 800dca0:	0800dcf1 	.word	0x0800dcf1
 800dca4:	0800dc41 	.word	0x0800dc41
 800dca8:	0800dc41 	.word	0x0800dc41
 800dcac:	0800dd8b 	.word	0x0800dd8b
 800dcb0:	682b      	ldr	r3, [r5, #0]
 800dcb2:	1d1a      	adds	r2, r3, #4
 800dcb4:	681b      	ldr	r3, [r3, #0]
 800dcb6:	602a      	str	r2, [r5, #0]
 800dcb8:	f104 0542 	add.w	r5, r4, #66	; 0x42
 800dcbc:	f884 3042 	strb.w	r3, [r4, #66]	; 0x42
 800dcc0:	2301      	movs	r3, #1
 800dcc2:	e09f      	b.n	800de04 <_printf_i+0x1ec>
 800dcc4:	6820      	ldr	r0, [r4, #0]
 800dcc6:	682b      	ldr	r3, [r5, #0]
 800dcc8:	0607      	lsls	r7, r0, #24
 800dcca:	f103 0104 	add.w	r1, r3, #4
 800dcce:	6029      	str	r1, [r5, #0]
 800dcd0:	d501      	bpl.n	800dcd6 <_printf_i+0xbe>
 800dcd2:	681e      	ldr	r6, [r3, #0]
 800dcd4:	e003      	b.n	800dcde <_printf_i+0xc6>
 800dcd6:	0646      	lsls	r6, r0, #25
 800dcd8:	d5fb      	bpl.n	800dcd2 <_printf_i+0xba>
 800dcda:	f9b3 6000 	ldrsh.w	r6, [r3]
 800dcde:	2e00      	cmp	r6, #0
 800dce0:	da03      	bge.n	800dcea <_printf_i+0xd2>
 800dce2:	232d      	movs	r3, #45	; 0x2d
 800dce4:	4276      	negs	r6, r6
 800dce6:	f884 3043 	strb.w	r3, [r4, #67]	; 0x43
 800dcea:	485a      	ldr	r0, [pc, #360]	; (800de54 <_printf_i+0x23c>)
 800dcec:	230a      	movs	r3, #10
 800dcee:	e012      	b.n	800dd16 <_printf_i+0xfe>
 800dcf0:	682b      	ldr	r3, [r5, #0]
 800dcf2:	6820      	ldr	r0, [r4, #0]
 800dcf4:	1d19      	adds	r1, r3, #4
 800dcf6:	6029      	str	r1, [r5, #0]
 800dcf8:	0605      	lsls	r5, r0, #24
 800dcfa:	d501      	bpl.n	800dd00 <_printf_i+0xe8>
 800dcfc:	681e      	ldr	r6, [r3, #0]
 800dcfe:	e002      	b.n	800dd06 <_printf_i+0xee>
 800dd00:	0641      	lsls	r1, r0, #25
 800dd02:	d5fb      	bpl.n	800dcfc <_printf_i+0xe4>
 800dd04:	881e      	ldrh	r6, [r3, #0]
 800dd06:	4853      	ldr	r0, [pc, #332]	; (800de54 <_printf_i+0x23c>)
 800dd08:	2f6f      	cmp	r7, #111	; 0x6f
 800dd0a:	bf0c      	ite	eq
 800dd0c:	2308      	moveq	r3, #8
 800dd0e:	230a      	movne	r3, #10
 800dd10:	2100      	movs	r1, #0
 800dd12:	f884 1043 	strb.w	r1, [r4, #67]	; 0x43
 800dd16:	6865      	ldr	r5, [r4, #4]
 800dd18:	60a5      	str	r5, [r4, #8]
 800dd1a:	2d00      	cmp	r5, #0
 800dd1c:	bfa2      	ittt	ge
 800dd1e:	6821      	ldrge	r1, [r4, #0]
 800dd20:	f021 0104 	bicge.w	r1, r1, #4
 800dd24:	6021      	strge	r1, [r4, #0]
 800dd26:	b90e      	cbnz	r6, 800dd2c <_printf_i+0x114>
 800dd28:	2d00      	cmp	r5, #0
 800dd2a:	d04b      	beq.n	800ddc4 <_printf_i+0x1ac>
 800dd2c:	4615      	mov	r5, r2
 800dd2e:	fbb6 f1f3 	udiv	r1, r6, r3
 800dd32:	fb03 6711 	mls	r7, r3, r1, r6
 800dd36:	5dc7      	ldrb	r7, [r0, r7]
 800dd38:	f805 7d01 	strb.w	r7, [r5, #-1]!
 800dd3c:	4637      	mov	r7, r6
 800dd3e:	42bb      	cmp	r3, r7
 800dd40:	460e      	mov	r6, r1
 800dd42:	d9f4      	bls.n	800dd2e <_printf_i+0x116>
 800dd44:	2b08      	cmp	r3, #8
 800dd46:	d10b      	bne.n	800dd60 <_printf_i+0x148>
 800dd48:	6823      	ldr	r3, [r4, #0]
 800dd4a:	07de      	lsls	r6, r3, #31
 800dd4c:	d508      	bpl.n	800dd60 <_printf_i+0x148>
 800dd4e:	6923      	ldr	r3, [r4, #16]
 800dd50:	6861      	ldr	r1, [r4, #4]
 800dd52:	4299      	cmp	r1, r3
 800dd54:	bfde      	ittt	le
 800dd56:	2330      	movle	r3, #48	; 0x30
 800dd58:	f805 3c01 	strble.w	r3, [r5, #-1]
 800dd5c:	f105 35ff 	addle.w	r5, r5, #4294967295
 800dd60:	1b52      	subs	r2, r2, r5
 800dd62:	6122      	str	r2, [r4, #16]
 800dd64:	f8cd a000 	str.w	sl, [sp]
 800dd68:	464b      	mov	r3, r9
 800dd6a:	aa03      	add	r2, sp, #12
 800dd6c:	4621      	mov	r1, r4
 800dd6e:	4640      	mov	r0, r8
 800dd70:	f7ff fee4 	bl	800db3c <_printf_common>
 800dd74:	3001      	adds	r0, #1
 800dd76:	d14a      	bne.n	800de0e <_printf_i+0x1f6>
 800dd78:	f04f 30ff 	mov.w	r0, #4294967295
 800dd7c:	b004      	add	sp, #16
 800dd7e:	e8bd 87f0 	ldmia.w	sp!, {r4, r5, r6, r7, r8, r9, sl, pc}
 800dd82:	6823      	ldr	r3, [r4, #0]
 800dd84:	f043 0320 	orr.w	r3, r3, #32
 800dd88:	6023      	str	r3, [r4, #0]
 800dd8a:	4833      	ldr	r0, [pc, #204]	; (800de58 <_printf_i+0x240>)
 800dd8c:	2778      	movs	r7, #120	; 0x78
 800dd8e:	f884 7045 	strb.w	r7, [r4, #69]	; 0x45
 800dd92:	6823      	ldr	r3, [r4, #0]
 800dd94:	6829      	ldr	r1, [r5, #0]
 800dd96:	061f      	lsls	r7, r3, #24
 800dd98:	f851 6b04 	ldr.w	r6, [r1], #4
 800dd9c:	d402      	bmi.n	800dda4 <_printf_i+0x18c>
 800dd9e:	065f      	lsls	r7, r3, #25
 800dda0:	bf48      	it	mi
 800dda2:	b2b6      	uxthmi	r6, r6
 800dda4:	07df      	lsls	r7, r3, #31
 800dda6:	bf48      	it	mi
 800dda8:	f043 0320 	orrmi.w	r3, r3, #32
 800ddac:	6029      	str	r1, [r5, #0]
 800ddae:	bf48      	it	mi
 800ddb0:	6023      	strmi	r3, [r4, #0]
 800ddb2:	b91e      	cbnz	r6, 800ddbc <_printf_i+0x1a4>
 800ddb4:	6823      	ldr	r3, [r4, #0]
 800ddb6:	f023 0320 	bic.w	r3, r3, #32
 800ddba:	6023      	str	r3, [r4, #0]
 800ddbc:	2310      	movs	r3, #16
 800ddbe:	e7a7      	b.n	800dd10 <_printf_i+0xf8>
 800ddc0:	4824      	ldr	r0, [pc, #144]	; (800de54 <_printf_i+0x23c>)
 800ddc2:	e7e4      	b.n	800dd8e <_printf_i+0x176>
 800ddc4:	4615      	mov	r5, r2
 800ddc6:	e7bd      	b.n	800dd44 <_printf_i+0x12c>
 800ddc8:	682b      	ldr	r3, [r5, #0]
 800ddca:	6826      	ldr	r6, [r4, #0]
 800ddcc:	6961      	ldr	r1, [r4, #20]
 800ddce:	1d18      	adds	r0, r3, #4
 800ddd0:	6028      	str	r0, [r5, #0]
 800ddd2:	0635      	lsls	r5, r6, #24
 800ddd4:	681b      	ldr	r3, [r3, #0]
 800ddd6:	d501      	bpl.n	800dddc <_printf_i+0x1c4>
 800ddd8:	6019      	str	r1, [r3, #0]
 800ddda:	e002      	b.n	800dde2 <_printf_i+0x1ca>
 800dddc:	0670      	lsls	r0, r6, #25
 800ddde:	d5fb      	bpl.n	800ddd8 <_printf_i+0x1c0>
 800dde0:	8019      	strh	r1, [r3, #0]
 800dde2:	2300      	movs	r3, #0
 800dde4:	6123      	str	r3, [r4, #16]
 800dde6:	4615      	mov	r5, r2
 800dde8:	e7bc      	b.n	800dd64 <_printf_i+0x14c>
 800ddea:	682b      	ldr	r3, [r5, #0]
 800ddec:	1d1a      	adds	r2, r3, #4
 800ddee:	602a      	str	r2, [r5, #0]
 800ddf0:	681d      	ldr	r5, [r3, #0]
 800ddf2:	6862      	ldr	r2, [r4, #4]
 800ddf4:	2100      	movs	r1, #0
 800ddf6:	4628      	mov	r0, r5
 800ddf8:	f7f6 f9ea 	bl	80041d0 <memchr>
 800ddfc:	b108      	cbz	r0, 800de02 <_printf_i+0x1ea>
 800ddfe:	1b40      	subs	r0, r0, r5
 800de00:	6060      	str	r0, [r4, #4]
 800de02:	6863      	ldr	r3, [r4, #4]
 800de04:	6123      	str	r3, [r4, #16]
 800de06:	2300      	movs	r3, #0
 800de08:	f884 3043 	strb.w	r3, [r4, #67]	; 0x43
 800de0c:	e7aa      	b.n	800dd64 <_printf_i+0x14c>
 800de0e:	6923      	ldr	r3, [r4, #16]
 800de10:	462a      	mov	r2, r5
 800de12:	4649      	mov	r1, r9
 800de14:	4640      	mov	r0, r8
 800de16:	47d0      	blx	sl
 800de18:	3001      	adds	r0, #1
 800de1a:	d0ad      	beq.n	800dd78 <_printf_i+0x160>
 800de1c:	6823      	ldr	r3, [r4, #0]
 800de1e:	079b      	lsls	r3, r3, #30
 800de20:	d413      	bmi.n	800de4a <_printf_i+0x232>
 800de22:	68e0      	ldr	r0, [r4, #12]
 800de24:	9b03      	ldr	r3, [sp, #12]
 800de26:	4298      	cmp	r0, r3
 800de28:	bfb8      	it	lt
 800de2a:	4618      	movlt	r0, r3
 800de2c:	e7a6      	b.n	800dd7c <_printf_i+0x164>
 800de2e:	2301      	movs	r3, #1
 800de30:	4632      	mov	r2, r6
 800de32:	4649      	mov	r1, r9
 800de34:	4640      	mov	r0, r8
 800de36:	47d0      	blx	sl
 800de38:	3001      	adds	r0, #1
 800de3a:	d09d      	beq.n	800dd78 <_printf_i+0x160>
 800de3c:	3501      	adds	r5, #1
 800de3e:	68e3      	ldr	r3, [r4, #12]
 800de40:	9903      	ldr	r1, [sp, #12]
 800de42:	1a5b      	subs	r3, r3, r1
 800de44:	42ab      	cmp	r3, r5
 800de46:	dcf2      	bgt.n	800de2e <_printf_i+0x216>
 800de48:	e7eb      	b.n	800de22 <_printf_i+0x20a>
 800de4a:	2500      	movs	r5, #0
 800de4c:	f104 0619 	add.w	r6, r4, #25
 800de50:	e7f5      	b.n	800de3e <_printf_i+0x226>
 800de52:	bf00      	nop
 800de54:	0800e469 	.word	0x0800e469
 800de58:	0800e47a 	.word	0x0800e47a

0800de5c <memmove>:
 800de5c:	4288      	cmp	r0, r1
 800de5e:	b510      	push	{r4, lr}
 800de60:	eb01 0402 	add.w	r4, r1, r2
 800de64:	d902      	bls.n	800de6c <memmove+0x10>
 800de66:	4284      	cmp	r4, r0
 800de68:	4623      	mov	r3, r4
 800de6a:	d807      	bhi.n	800de7c <memmove+0x20>
 800de6c:	1e43      	subs	r3, r0, #1
 800de6e:	42a1      	cmp	r1, r4
 800de70:	d008      	beq.n	800de84 <memmove+0x28>
 800de72:	f811 2b01 	ldrb.w	r2, [r1], #1
 800de76:	f803 2f01 	strb.w	r2, [r3, #1]!
 800de7a:	e7f8      	b.n	800de6e <memmove+0x12>
 800de7c:	4402      	add	r2, r0
 800de7e:	4601      	mov	r1, r0
 800de80:	428a      	cmp	r2, r1
 800de82:	d100      	bne.n	800de86 <memmove+0x2a>
 800de84:	bd10      	pop	{r4, pc}
 800de86:	f813 4d01 	ldrb.w	r4, [r3, #-1]!
 800de8a:	f802 4d01 	strb.w	r4, [r2, #-1]!
 800de8e:	e7f7      	b.n	800de80 <memmove+0x24>

0800de90 <_realloc_r>:
 800de90:	e92d 41f0 	stmdb	sp!, {r4, r5, r6, r7, r8, lr}
 800de94:	4680      	mov	r8, r0
 800de96:	4614      	mov	r4, r2
 800de98:	460e      	mov	r6, r1
 800de9a:	b921      	cbnz	r1, 800dea6 <_realloc_r+0x16>
 800de9c:	e8bd 41f0 	ldmia.w	sp!, {r4, r5, r6, r7, r8, lr}
 800dea0:	4611      	mov	r1, r2
 800dea2:	f7ff bba9 	b.w	800d5f8 <_malloc_r>
 800dea6:	b92a      	cbnz	r2, 800deb4 <_realloc_r+0x24>
 800dea8:	f7ff fca4 	bl	800d7f4 <_free_r>
 800deac:	4625      	mov	r5, r4
 800deae:	4628      	mov	r0, r5
 800deb0:	e8bd 81f0 	ldmia.w	sp!, {r4, r5, r6, r7, r8, pc}
 800deb4:	f000 f81b 	bl	800deee <_malloc_usable_size_r>
 800deb8:	4284      	cmp	r4, r0
 800deba:	4607      	mov	r7, r0
 800debc:	d802      	bhi.n	800dec4 <_realloc_r+0x34>
 800debe:	ebb4 0f50 	cmp.w	r4, r0, lsr #1
 800dec2:	d812      	bhi.n	800deea <_realloc_r+0x5a>
 800dec4:	4621      	mov	r1, r4
 800dec6:	4640      	mov	r0, r8
 800dec8:	f7ff fb96 	bl	800d5f8 <_malloc_r>
 800decc:	4605      	mov	r5, r0
 800dece:	2800      	cmp	r0, #0
 800ded0:	d0ed      	beq.n	800deae <_realloc_r+0x1e>
 800ded2:	42bc      	cmp	r4, r7
 800ded4:	4622      	mov	r2, r4
 800ded6:	4631      	mov	r1, r6
 800ded8:	bf28      	it	cs
 800deda:	463a      	movcs	r2, r7
 800dedc:	f7ff fc7c 	bl	800d7d8 <memcpy>
 800dee0:	4631      	mov	r1, r6
 800dee2:	4640      	mov	r0, r8
 800dee4:	f7ff fc86 	bl	800d7f4 <_free_r>
 800dee8:	e7e1      	b.n	800deae <_realloc_r+0x1e>
 800deea:	4635      	mov	r5, r6
 800deec:	e7df      	b.n	800deae <_realloc_r+0x1e>

0800deee <_malloc_usable_size_r>:
 800deee:	f851 3c04 	ldr.w	r3, [r1, #-4]
 800def2:	1f18      	subs	r0, r3, #4
 800def4:	2b00      	cmp	r3, #0
 800def6:	bfbc      	itt	lt
 800def8:	580b      	ldrlt	r3, [r1, r0]
 800defa:	18c0      	addlt	r0, r0, r3
 800defc:	4770      	bx	lr
	...

0800df00 <_init>:
 800df00:	b5f8      	push	{r3, r4, r5, r6, r7, lr}
 800df02:	bf00      	nop
 800df04:	bcf8      	pop	{r3, r4, r5, r6, r7}
 800df06:	bc08      	pop	{r3}
 800df08:	469e      	mov	lr, r3
 800df0a:	4770      	bx	lr

0800df0c <_fini>:
 800df0c:	b5f8      	push	{r3, r4, r5, r6, r7, lr}
 800df0e:	bf00      	nop
 800df10:	bcf8      	pop	{r3, r4, r5, r6, r7}
 800df12:	bc08      	pop	{r3}
 800df14:	469e      	mov	lr, r3
 800df16:	4770      	bx	lr
